-[NSString(WebStringDrawing) _web_sizeWithFont:forWidth:ellipsis:letterSpacing:]
dyld_stub_binding_helper
__ZL28_web_initWordRoundingEnabledv
__ZN7WebCore12AtomicString4initEv
__ZN7WebCore12AtomicString3addEPKc
__ZN7WebCore10StringImpl5emptyEv
__ZN7WebCore16threadGlobalDataEv
__ZN7WebCore16ThreadGlobalDataC1Ev
__ZN7WebCore16ThreadGlobalDataC2Ev
__ZN7WebCore10StringImplC1Ev
__ZN7WebCore10StringImplC2Ev
__ZN7WebCore10EventNamesC1Ev
__ZN7WebCore10EventNamesC2Ev
__ZN3WTF7HashSetIPN7WebCore10StringImplENS1_10StringHashENS_10HashTraitsIS3_EEE3addIPKcNS1_17CStringTranslatorEEESt4pairINS_24HashTableIteratorAdapterINS_9HashTableIS3_S3_NS_17IdentityExtractorIS3_EES4_S6_S6_EES3_EEbERKT_
__ZN3WTF9HashTableIPN7WebCore10StringImplES3_NS_17IdentityExtractorIS3_EENS1_10StringHashENS_10HashTraitsIS3_EES8_E6expandEv
__ZN3WTF9HashTableIPN7WebCore10StringImplES3_NS_17IdentityExtractorIS3_EENS1_10StringHashENS_10HashTraitsIS3_EES8_E6rehashEi
__ZN3WTF9HashTableIPN7WebCore10StringImplES3_NS_17IdentityExtractorIS3_EENS1_10StringHashENS_10HashTraitsIS3_EES8_E13allocateTableEi
__ZN3WTF9HashTableIPN7WebCore10StringImplES3_NS_17IdentityExtractorIS3_EENS1_10StringHashENS_10HashTraitsIS3_EES8_E15deallocateTableEPS3_i
__ZN7WebCore10StringImplC1EPKcjj
__ZN7WebCore10StringImplC2EPKcjj
__ZN3WTF9HashTableIPN7WebCore10StringImplES3_NS_17IdentityExtractorIS3_EENS1_10StringHashENS_10HashTraitsIS3_EES8_E4findIS3_NS_22IdentityHashTranslatorIS3_S3_S6_EEEENS_17HashTableIteratorIS3_S3_S5_S6_S8_S8_EERKT_
__ZN7WebCore12AtomicStringC2EPKc
__ZN7WebCore6StringC1EP8NSString
__ZN7WebCore6StringC2EP8NSString
__ZN7WebCore10StringImpl6createEPKtj
__ZN3WTF6VectorItLm1024EE6shrinkEm
__ZL15rendererForFontP8__GSFont
__ZN7WebCore16FontPlatformDataC1EP8__GSFontbb
__ZN7WebCore16FontPlatformDataC2EP8__GSFontbb
__ZN7WebCore4FontC1ERKNS_16FontPlatformDataEb
__ZN7WebCore4FontC2ERKNS_16FontPlatformDataEb
__ZN7WebCore16FontFallbackListC1Ev
__ZN7WebCore16FontFallbackListC2Ev
__ZN7WebCore9fontCacheEv
__ZN7WebCore9FontCache10generationEv
__ZN7WebCore16FontFallbackList15setPlatformFontERKNS_16FontPlatformDataE
__ZN7WebCore9FontCache17getCachedFontDataEPKNS_16FontPlatformDataE
__ZL21initFontCacheLockOncev
__ZN3WTF9HashTableIN7WebCore16FontPlatformDataESt4pairIS2_S3_IPNS1_14SimpleFontDataEjEENS_18PairFirstExtractorIS7_EENS1_20FontDataCacheKeyHashENS_14PairHashTraitsINS1_22FontDataCacheKeyTraitsENS_10HashTraitsIS6_EEEESC_E4findIS2_NS_22IdentityHashTranslatorIS2_S7_SA_EEEENS_17HashTableIteratorIS2_S7_S9_SA_SF_SC_EERKT_
__ZN3WTF9HashTableIN7WebCore16FontPlatformDataESt4pairIS2_S3_IPNS1_14SimpleFontDataEjEENS_18PairFirstExtractorIS7_EENS1_20FontDataCacheKeyHashENS_14PairHashTraitsINS1_22FontDataCacheKeyTraitsENS_10HashTraitsIS6_EEEESC_E6expandEv
__ZN3WTF9HashTableIN7WebCore16FontPlatformDataESt4pairIS2_S3_IPNS1_14SimpleFontDataEjEENS_18PairFirstExtractorIS7_EENS1_20FontDataCacheKeyHashENS_14PairHashTraitsINS1_22FontDataCacheKeyTraitsENS_10HashTraitsIS6_EEEESC_E15deallocateTableEPS7_i
__ZN3WTF9HashTableIN7WebCore16FontPlatformDataESt4pairIS2_S3_IPNS1_14SimpleFontDataEjEENS_18PairFirstExtractorIS7_EENS1_20FontDataCacheKeyHashENS_14PairHashTraitsINS1_22FontDataCacheKeyTraitsENS_10HashTraitsIS6_EEEESC_E13allocateTableEi
__ZN3WTF9HashTableIN7WebCore16FontPlatformDataESt4pairIS2_S3_IPNS1_14SimpleFontDataEjEENS_18PairFirstExtractorIS7_EENS1_20FontDataCacheKeyHashENS_14PairHashTraitsINS1_22FontDataCacheKeyTraitsENS_10HashTraitsIS6_EEEESC_E6rehashEi
__ZN3WTF9HashTableIN7WebCore16FontPlatformDataESt4pairIS2_S3_IPNS1_14SimpleFontDataEjEENS_18PairFirstExtractorIS7_EENS1_20FontDataCacheKeyHashENS_14PairHashTraitsINS1_22FontDataCacheKeyTraitsENS_10HashTraitsIS6_EEEESC_E6removeEPS7_
__ZN3WTF9HashTableIN7WebCore16FontPlatformDataESt4pairIS2_S3_IPNS1_14SimpleFontDataEjEENS_18PairFirstExtractorIS7_EENS1_20FontDataCacheKeyHashENS_14PairHashTraitsINS1_22FontDataCacheKeyTraitsENS_10HashTraitsIS6_EEEESC_E47removeAndInvalidateWithoutEntryConsistencyCheckEPS7_
__ZN7WebCore14SimpleFontDataC1ERKNS_16FontPlatformDataEbbPNS_11SVGFontDataE
__ZN7WebCore14SimpleFontDataC2ERKNS_16FontPlatformDataEbbPNS_11SVGFontDataE
__ZN7WebCore16FontPlatformDataC1ERKS0_
__ZN7WebCore16FontPlatformDataC2ERKS0_
__ZN7WebCore14SimpleFontData12platformInitEv
__ZN7WebCore14SimpleFontData17platformGlyphInitEv
__ZN7WebCore17GlyphPageTreeNode7getRootEj
__ZN7WebCore17GlyphPageTreeNode8getChildEPKNS_8FontDataEj
__ZNK3WTF7HashMapIPKN7WebCore8FontDataEPNS1_17GlyphPageTreeNodeENS_7PtrHashIS4_EENS_10HashTraitsIS4_EENS9_IS6_EEE3getERKS4_
__ZNK7WebCore14SimpleFontData12isCustomFontEv
__ZN3WTF7HashMapIPKN7WebCore8FontDataEPNS1_17GlyphPageTreeNodeENS_7PtrHashIS4_EENS_10HashTraitsIS4_EENS9_IS6_EEE3setERKS4_RKS6_
__ZN3WTF9HashTableIPKN7WebCore8FontDataESt4pairIS4_PNS1_17GlyphPageTreeNodeEENS_18PairFirstExtractorIS8_EENS_7PtrHashIS4_EENS_14PairHashTraitsINS_10HashTraitsIS4_EENSE_IS7_EEEESF_E6expandEv
__ZN3WTF9HashTableIPKN7WebCore8FontDataESt4pairIS4_PNS1_17GlyphPageTreeNodeEENS_18PairFirstExtractorIS8_EENS_7PtrHashIS4_EENS_14PairHashTraitsINS_10HashTraitsIS4_EENSE_IS7_EEEESF_E4findIS4_NS_22IdentityHashTranslatorIS4_S8_SC_EEEENS_17HashTableIteratorIS4_S8_SA_SC_SH_SF_EERKT_
__ZN3WTF9HashTableIPKN7WebCore8FontDataESt4pairIS4_PNS1_17GlyphPageTreeNodeEENS_18PairFirstExtractorIS8_EENS_7PtrHashIS4_EENS_14PairHashTraitsINS_10HashTraitsIS4_EENSE_IS7_EEEESF_E13allocateTableEi
__ZN3WTF9HashTableIPKN7WebCore8FontDataESt4pairIS4_PNS1_17GlyphPageTreeNodeEENS_18PairFirstExtractorIS8_EENS_7PtrHashIS4_EENS_14PairHashTraitsINS_10HashTraitsIS4_EENSE_IS7_EEEESF_E15deallocateTableEPS8_i
__ZN3WTF9HashTableIPKN7WebCore8FontDataESt4pairIS4_PNS1_17GlyphPageTreeNodeEENS_18PairFirstExtractorIS8_EENS_7PtrHashIS4_EENS_14PairHashTraitsINS_10HashTraitsIS4_EENSE_IS7_EEEESF_E6rehashEi
__ZN3WTF9HashTableIPKN7WebCore8FontDataESt4pairIS4_PNS1_17GlyphPageTreeNodeEENS_18PairFirstExtractorIS8_EENS_7PtrHashIS4_EENS_14PairHashTraitsINS_10HashTraitsIS4_EENSE_IS7_EEEESF_E6removeEPS8_
__ZN3WTF9HashTableIPKN7WebCore8FontDataESt4pairIS4_PNS1_17GlyphPageTreeNodeEENS_18PairFirstExtractorIS8_EENS_7PtrHashIS4_EENS_14PairHashTraitsINS_10HashTraitsIS4_EENSE_IS7_EEEESF_E47removeAndInvalidateWithoutEntryConsistencyCheckEPS8_
__ZN7WebCore17GlyphPageTreeNode14initializePageEPKNS_8FontDataEj
__ZNK7WebCore14SimpleFontData11isSegmentedEv
__ZN7WebCore9GlyphPage4fillEjjPtjPKNS_14SimpleFontDataE
__ZNK7WebCore14SimpleFontData13widthForGlyphEt
__ZN7WebCore13GlyphWidthMap13widthForGlyphEt
__ZNK7WebCore14SimpleFontData21platformWidthForGlyphEt
__ZN7WebCore13GlyphWidthMap16setWidthForGlyphEtf
__ZN7WebCore14SimpleFontData14determinePitchEv
__ZN3WTF7HashMapIiPN7WebCore13GlyphWidthMap14GlyphWidthPageENS_7IntHashIjEENS_10HashTraitsIiEENS7_IS4_EEE3setERKiRKS4_
__ZN3WTF9HashTableIiSt4pairIiPN7WebCore13GlyphWidthMap14GlyphWidthPageEENS_18PairFirstExtractorIS6_EENS_7IntHashIjEENS_14PairHashTraitsINS_10HashTraitsIiEENSC_IS5_EEEESD_E6expandEv
__ZN3WTF9HashTableIiSt4pairIiPN7WebCore13GlyphWidthMap14GlyphWidthPageEENS_18PairFirstExtractorIS6_EENS_7IntHashIjEENS_14PairHashTraitsINS_10HashTraitsIiEENSC_IS5_EEEESD_E4findIiNS_22IdentityHashTranslatorIiS6_SA_EEEENS_17HashTableIteratorIiS6_S8_SA_SF_SD_EERKT_
__ZN3WTF9HashTableIiSt4pairIiPN7WebCore13GlyphWidthMap14GlyphWidthPageEENS_18PairFirstExtractorIS6_EENS_7IntHashIjEENS_14PairHashTraitsINS_10HashTraitsIiEENSC_IS5_EEEESD_E13allocateTableEi
__ZN3WTF9HashTableIiSt4pairIiPN7WebCore13GlyphWidthMap14GlyphWidthPageEENS_18PairFirstExtractorIS6_EENS_7IntHashIjEENS_14PairHashTraitsINS_10HashTraitsIiEENSC_IS5_EEEESD_E15deallocateTableEPS6_i
__ZN3WTF9HashTableIiSt4pairIiPN7WebCore13GlyphWidthMap14GlyphWidthPageEENS_18PairFirstExtractorIS6_EENS_7IntHashIjEENS_14PairHashTraitsINS_10HashTraitsIiEENSC_IS5_EEEESD_E6rehashEi
__ZN3WTF7HashMapIN7WebCore16FontPlatformDataESt4pairIPNS1_14SimpleFontDataEjENS1_20FontDataCacheKeyHashENS1_22FontDataCacheKeyTraitsENS_10HashTraitsIS6_EEE3setERKS2_RKS6_
__ZN7WebCore16FontPlatformDataaSERKS0_
__ZN7WebCore16FontPlatformDataD1Ev
__ZN7WebCore16FontPlatformDataD2Ev
__ZN7WebCore4FontC1ERKS0_
__ZN7WebCore4FontC2ERKS0_
__ZN7WebCore10FontFamilyC1ERKS0_
__ZN7WebCore10FontFamilyC2ERKS0_
__ZL18applyEllipsisStyleN7WebCore6StringE16WebEllipsisStylefNS_4FontEPf
__ZN7WebCore15StringTruncator13rightTruncateERKNS_6StringEfRKNS_4FontEbRf
__ZN7WebCoreL14truncateStringERKNS_6StringEfRKNS_4FontEPFjS2_jjPtEbPf
__ZNK7WebCore6String7isEmptyEv
__ZN7WebCoreL11stringWidthERKNS_4FontEPKtjb
__ZNK7WebCore4Font10floatWidthERKNS_7TextRunE
__ZNK7WebCore4Font16cachePrimaryFontEv
__ZNK7WebCore16FontFallbackList10fontDataAtEPKNS_4FontEj
__ZNK7WebCore14SimpleFontData20fontDataForCharacterEi
__ZNK7WebCore4Font16canUseGlyphCacheERKNS_7TextRunE
__ZNK7WebCore4Font23floatWidthForSimpleTextERKNS_7TextRunEPNS_11GlyphBufferE
__ZN7WebCore13WidthIteratorC1EPKNS_4FontERKNS_7TextRunE
__ZN7WebCore13WidthIteratorC2EPKNS_4FontERKNS_7TextRunE
__ZN7WebCore13WidthIterator7advanceEiPNS_11GlyphBufferE
__ZNK7WebCore4Font21glyphDataForCharacterEibb
__ZNK3WTF7HashMapIiPN7WebCore17GlyphPageTreeNodeENS_7IntHashIjEENS_10HashTraitsIiEENS6_IS3_EEE3getERKi
__ZNK7WebCore4Font10fontDataAtEj
__ZN3WTF7HashMapIiPN7WebCore17GlyphPageTreeNodeENS_7IntHashIjEENS_10HashTraitsIiEENS6_IS3_EEE3setERKiRKS3_
__ZNK7WebCore6String6lengthEv
__ZNK7WebCore6String10charactersEv
__ZN7WebCore4FontD1Ev
__ZN7WebCore4FontD2Ev
__ZN7WebCore16FontFallbackList15releaseFontDataEv
__ZN7WebCore9FontCache15releaseFontDataEPKNS_14SimpleFontDataE
__ZN3WTF11ListHashSetIPKN7WebCore14SimpleFontDataENS_7PtrHashIS4_EEE3addERKS4_
__ZN3WTF9HashTableIPNS_15ListHashSetNodeIPKN7WebCore14SimpleFontDataEEES7_NS_17IdentityExtractorIS7_EENS_28ListHashSetNodeHashFunctionsIS5_NS_7PtrHashIS5_EEEENS_10HashTraitsIS7_EESF_E6expandEv
__ZN3WTF9HashTableIPNS_15ListHashSetNodeIPKN7WebCore14SimpleFontDataEEES7_NS_17IdentityExtractorIS7_EENS_28ListHashSetNodeHashFunctionsIS5_NS_7PtrHashIS5_EEEENS_10HashTraitsIS7_EESF_E4findIS7_NS_22IdentityHashTranslatorIS7_S7_SD_EEEENS_17HashTableIteratorIS7_S7_S9_SD_SF_SF_EERKT_
__ZN3WTF9HashTableIPNS_15ListHashSetNodeIPKN7WebCore14SimpleFontDataEEES7_NS_17IdentityExtractorIS7_EENS_28ListHashSetNodeHashFunctionsIS5_NS_7PtrHashIS5_EEEENS_10HashTraitsIS7_EESF_E4findIS5_NS_21ListHashSetTranslatorIS5_SC_EEEENS_17HashTableIteratorIS7_S7_S9_SD_SF_SF_EERKT_
__ZN3WTF9HashTableIPNS_15ListHashSetNodeIPKN7WebCore14SimpleFontDataEEES7_NS_17IdentityExtractorIS7_EENS_28ListHashSetNodeHashFunctionsIS5_NS_7PtrHashIS5_EEEENS_10HashTraitsIS7_EESF_E15deallocateTableEPS7_i
__ZN3WTF9HashTableIPNS_15ListHashSetNodeIPKN7WebCore14SimpleFontDataEEES7_NS_17IdentityExtractorIS7_EENS_28ListHashSetNodeHashFunctionsIS5_NS_7PtrHashIS5_EEEENS_10HashTraitsIS7_EESF_E5clearEv
__ZN3WTF9HashTableIPNS_15ListHashSetNodeIPKN7WebCore14SimpleFontDataEEES7_NS_17IdentityExtractorIS7_EENS_28ListHashSetNodeHashFunctionsIS5_NS_7PtrHashIS5_EEEENS_10HashTraitsIS7_EESF_E13allocateTableEi
__ZN3WTF9HashTableIPNS_15ListHashSetNodeIPKN7WebCore14SimpleFontDataEEES7_NS_17IdentityExtractorIS7_EENS_28ListHashSetNodeHashFunctionsIS5_NS_7PtrHashIS5_EEEENS_10HashTraitsIS7_EESF_E6rehashEi
__ZN3WTF9HashTableIPNS_15ListHashSetNodeIPKN7WebCore14SimpleFontDataEEES7_NS_17IdentityExtractorIS7_EENS_28ListHashSetNodeHashFunctionsIS5_NS_7PtrHashIS5_EEEENS_10HashTraitsIS7_EESF_E6removeEPS7_
__ZN3WTF9HashTableIPNS_15ListHashSetNodeIPKN7WebCore14SimpleFontDataEEES7_NS_17IdentityExtractorIS7_EENS_28ListHashSetNodeHashFunctionsIS5_NS_7PtrHashIS5_EEEENS_10HashTraitsIS7_EESF_E19removeAndInvalidateEPS7_
__ZN3WTF11ListHashSetIPKN7WebCore14SimpleFontDataENS_7PtrHashIS4_EEE10appendNodeEPNS_15ListHashSetNodeIS4_EE
__ZN3WTF6VectorISt4pairIPKN7WebCore8FontDataEbELm1EE6shrinkEm
__ZN7WebCore10StringImplD1Ev
__ZN7WebCore10StringImplD2Ev
-[NSString(WebStringDrawing) _web_sizeWithFont:]
__ZN7WebCore15StringTruncator5widthERKNS_6StringERKNS_4FontEb
__ZN3WTF11ListHashSetIPKN7WebCore14SimpleFontDataENS_7PtrHashIS4_EEE15unlinkAndDeleteEPNS_15ListHashSetNodeIS4_EE
_WKSetCurrentGraphicsContext
_WebThreadCurrentContext
__ZL20CurrentThreadContextv
__ZL20InitThreadContextKeyv
-[NSString(WebStringDrawing) _web_drawAtPoint:forWidth:withFont:ellipsis:letterSpacing:includeEmoji:]
_WKGetCurrentGraphicsContext
__ZN7WebCore15GraphicsContextC1EP9CGContextb
__ZN7WebCore15GraphicsContextC2EP9CGContextb
__ZN7WebCore15GraphicsContext28createGraphicsContextPrivateEv
__ZN7WebCore15GraphicsContext19setPaintingDisabledEb
__ZN7WebCore15GraphicsContext22setEmojiDrawingEnabledEb
__ZL15needsBidiLayoutPKtjRN3WTF7Unicode9DirectionEb
__ZN7WebCore10FloatPointC1ERK7CGPoint
__ZN7WebCore10FloatPointC2ERK7CGPoint
__ZL11drawAtPointRKN7WebCore6StringERKNS_10FloatPointERKNS_4FontEPNS_15GraphicsContextEPNS_10BidiStatusEi
__ZNK7WebCore4Font8drawTextEPNS_15GraphicsContextERKNS_7TextRunERKNS_10FloatPointEii
__ZNK7WebCore4Font14drawSimpleTextEPNS_15GraphicsContextERKNS_7TextRunERKNS_10FloatPointEii
__ZNK7WebCore4Font15drawGlyphBufferEPNS_15GraphicsContextERKNS_11GlyphBufferERKNS_7TextRunERNS_10FloatPointE
__ZNK7WebCore4Font10drawGlyphsEPNS_15GraphicsContextEPKNS_14SimpleFontDataERKNS_11GlyphBufferEiiRKNS_10FloatPointEb
_WebCoreShouldUseFontSmoothing
_WebCoreFontSmoothingStyle
_WebCoreFontAntialiasingStyle
__ZNK7WebCore15GraphicsContext9getShadowERNS_7IntSizeERiRNS_5ColorE
__ZN7WebCore15GraphicsContext15textDrawingModeEv
__ZN3WTF6VectorI6CGSizeLm2048EE6shrinkEm
__ZN3WTF6VectorItLm2048EE6shrinkEm
__ZN3WTF6VectorIPKN7WebCore14SimpleFontDataELm2048EE6shrinkEm
__ZN7WebCore15GraphicsContextD1Ev
__ZN7WebCore15GraphicsContextD2Ev
__ZN7WebCore15GraphicsContext29destroyGraphicsContextPrivateEPNS_22GraphicsContextPrivateE
+[NSString(WebStringDrawing) _web_wordRoundingEnabled]
+[NSString(WebStringDrawing) _web_setWordRoundingEnabled:]
__ZN7WebCore15StringTruncator20rightClipToCharacterERKNS_6StringEfRKNS_4FontEbRf
__ZN7WebCore15StringTruncator14centerTruncateERKNS_6StringEfRKNS_4FontEbRf
_WebThreadLock
-[WAKWindow initWithLayer:]
_WKWindowCreate
_WKCreateObjectWithSize
_WKRetain
__ZN7WebCore12TiledSurfaceC1EP7CALayerP9WAKWindow
__ZN7WebCore12TiledSurfaceC2EP7CALayerP9WAKWindow
-[WebThreadCaller initWithTiledSurface:]
_WKWindowSetTiledSurface
-[WAKView initWithFrame:]
_WKViewCreateWithFrame
_WKViewInitialize
+[WAKView _addViewWrapper:]
+[WAKView _viewWrappers]
-[WAKView _viewRef]
_WebCoreObjCFinalizeOnMainThread
+[WebCoreViewFactory sharedFactory]
-[WebCoreViewFactory init]
-[WAKScrollView initWithFrame:]
_WKScrollViewCreateWithFrame
_WKScrollViewInitialize
_WKClipViewCreateWithFrame
_WKScrollViewSetContentView
_WKViewAddSubview
_WKCollectionRetain
__WKViewSetSuperview
__WKViewSetWindow
_WKRelease
-[WAKScrollView setDelegate:]
-[WAKScrollView setDrawsBackground:]
-[WAKScrollView setHasVerticalScroller:]
-[WAKScrollView setHasHorizontalScroller:]
-[WAKView setAutoresizingMask:]
_WKViewSetAutoresizingMask
-[WAKScrollView setLineScroll:]
-[WAKView addSubview:]
-[WAKView _subviewReferences]
-[WAKView setNextKeyView:]
__ZN7WebCore4PageC1EPNS_12ChromeClientEPNS_17ContextMenuClientEPNS_12EditorClientEPNS_10DragClientEPNS_15InspectorClientE
__ZN7WebCore4PageC2EPNS_12ChromeClientEPNS_17ContextMenuClientEPNS_12EditorClientEPNS_10DragClientEPNS_15InspectorClientE
__ZN7WebCore6ChromeC1EPNS_4PageEPNS_12ChromeClientE
__ZN7WebCore6ChromeC2EPNS_4PageEPNS_12ChromeClientE
__ZN7WebCore19SelectionControllerC1EPNS_5FrameEb
__ZN7WebCore19SelectionControllerC2EPNS_5FrameEb
__ZN7WebCore9SelectionC1Ev
__ZN7WebCore9SelectionC2Ev
__ZN7WebCore15FocusControllerC1EPNS_4PageE
__ZN7WebCore15FocusControllerC2EPNS_4PageE
__ZN7WebCore8SettingsC1EPNS_4PageE
__ZN7WebCore8SettingsC2EPNS_4PageE
__ZN7WebCore4KURL10invalidateEv
__ZN7WebCore15ProgressTrackerC1Ev
__ZN7WebCore15ProgressTrackerC2Ev
__ZN7WebCore15BackForwardListC1EPNS_4PageE
__ZN7WebCore15BackForwardListC2EPNS_4PageE
__ZN7WebCore20networkStateNotifierEv
__ZN7WebCore20NetworkStateNotifierC1Ev
__ZN7WebCore20NetworkStateNotifierC2Ev
__ZN7WebCore20NetworkStateNotifier30setNetworkStateChangedFunctionEPFvvE
__ZN3WTF7HashSetIPN7WebCore4PageENS_7PtrHashIS3_EENS_10HashTraitsIS3_EEE3addERKS3_
__ZN3WTF9HashTableIPN7WebCore4PageES3_NS_17IdentityExtractorIS3_EENS_7PtrHashIS3_EENS_10HashTraitsIS3_EES9_E6expandEv
__ZN3WTF9HashTableIPN7WebCore4PageES3_NS_17IdentityExtractorIS3_EENS_7PtrHashIS3_EENS_10HashTraitsIS3_EES9_E6rehashEi
__ZN3WTF9HashTableIPN7WebCore4PageES3_NS_17IdentityExtractorIS3_EENS_7PtrHashIS3_EENS_10HashTraitsIS3_EES9_E13allocateTableEi
__ZN3WTF9HashTableIPN7WebCore4PageES3_NS_17IdentityExtractorIS3_EENS_7PtrHashIS3_EENS_10HashTraitsIS3_EES9_E15deallocateTableEPS3_i
__ZN7WebCore21JavaScriptDebugServer6sharedEv
__ZN7WebCore21JavaScriptDebugServerC1Ev
__ZN7WebCore21JavaScriptDebugServerC2Ev
__ZN7WebCore9TimerBaseC2Ev
__ZN7WebCore27setSharedTimerFiredFunctionEPFvvE
__ZN7WebCore21JavaScriptDebugServer11pageCreatedEPNS_4PageE
__ZN7WebCore21JavaScriptDebugServer28hasListenersInterestedInPageEPNS_4PageE
__ZNK3WTF9HashTableIPN7WebCore4PageESt4pairIS3_PNS_7HashSetIPNS1_23JavaScriptDebugListenerENS_7PtrHashIS7_EENS_10HashTraitsIS7_EEEEENS_18PairFirstExtractorISE_EENS8_IS3_EENS_14PairHashTraitsINSA_IS3_EENSA_ISD_EEEESJ_E8containsIS3_NS_22IdentityHashTranslatorIS3_SE_SH_EEEEbRKT_
__ZN7WebCore5FrameC1EPNS_4PageEPNS_21HTMLFrameOwnerElementEPNS_17FrameLoaderClientE
__ZN7WebCore5FrameC2EPNS_4PageEPNS_21HTMLFrameOwnerElementEPNS_17FrameLoaderClientE
__ZN7WebCore11FrameLoaderC1EPNS_5FrameEPNS_17FrameLoaderClientE
__ZN7WebCore11FrameLoaderC2EPNS_5FrameEPNS_17FrameLoaderClientE
__ZN7WebCore11PolicyCheckC1Ev
__ZN7WebCore11PolicyCheckC2Ev
__ZN7WebCore6StringC1EPKc
__ZN7WebCore6StringC2EPKc
__ZN7WebCore10StringImpl6createEPKc
__ZN3WTF6RefPtrIN7WebCore10StringImplEED2Ev
__ZN7WebCore16ScriptControllerC1EPNS_5FrameE
__ZN7WebCore16ScriptControllerC2EPNS_5FrameE
__ZN7WebCore6EditorC1EPNS_5FrameE
__ZN7WebCore6EditorC2EPNS_5FrameE
__ZN7WebCore12EventHandlerC1EPNS_5FrameE
__ZN7WebCore12EventHandlerC2EPNS_5FrameE
__ZN7WebCore19AnimationControllerC1EPNS_5FrameE
__ZN7WebCore19AnimationControllerC2EPNS_5FrameE
__ZN7WebCore26AnimationControllerPrivateC1EPNS_5FrameE
__ZN7WebCore26AnimationControllerPrivateC2EPNS_5FrameE
__ZN7WebCore9HTMLNames4initEv
__ZN7WebCore13QualifiedNameC1ERKNS_12AtomicStringES3_S3_
__ZN7WebCore13QualifiedNameC2ERKNS_12AtomicStringES3_S3_
__ZN3WTF7HashSetIPN7WebCore13QualifiedName17QualifiedNameImplENS1_17QualifiedNameHashENS_10HashTraitsIS4_EEE3addINS1_23QualifiedNameComponentsENS1_25QNameComponentsTranslatorEEESt4pairINS_24HashTableIteratorAdapterINS_9HashTableIS4_S4_NS_17IdentityExtractorIS4_EES5_S7_S7_EES4_EEbERKT_
__ZN3WTF9HashTableIPN7WebCore13QualifiedName17QualifiedNameImplES4_NS_17IdentityExtractorIS4_EENS1_17QualifiedNameHashENS_10HashTraitsIS4_EES9_E6expandEv
__ZN3WTF9HashTableIPN7WebCore13QualifiedName17QualifiedNameImplES4_NS_17IdentityExtractorIS4_EENS1_17QualifiedNameHashENS_10HashTraitsIS4_EES9_E4findIS4_NS_22IdentityHashTranslatorIS4_S4_S7_EEEENS_17HashTableIteratorIS4_S4_S6_S7_S9_S9_EERKT_
__ZN3WTF9HashTableIPN7WebCore13QualifiedName17QualifiedNameImplES4_NS_17IdentityExtractorIS4_EENS1_17QualifiedNameHashENS_10HashTraitsIS4_EES9_E15deallocateTableEPS4_i
__ZN3WTF9HashTableIPN7WebCore13QualifiedName17QualifiedNameImplES4_NS_17IdentityExtractorIS4_EENS1_17QualifiedNameHashENS_10HashTraitsIS4_EES9_E13allocateTableEi
__ZN3WTF9HashTableIPN7WebCore13QualifiedName17QualifiedNameImplES4_NS_17IdentityExtractorIS4_EENS1_17QualifiedNameHashENS_10HashTraitsIS4_EES9_E6rehashEi
__ZN3WTF9HashTableIPN7WebCore13QualifiedName17QualifiedNameImplES4_NS_17IdentityExtractorIS4_EENS1_17QualifiedNameHashENS_10HashTraitsIS4_EES9_E6removeEPS4_
__ZN3WTF9HashTableIPN7WebCore13QualifiedName17QualifiedNameImplES4_NS_17IdentityExtractorIS4_EENS1_17QualifiedNameHashENS_10HashTraitsIS4_EES9_E47removeAndInvalidateWithoutEntryConsistencyCheckEPS4_
__ZN7WebCore12AtomicString3addEPNS_10StringImplE
__ZN3WTF10RefCountedIN7WebCore10StringImplEE5derefEv
__ZN7WebCore13QualifiedName4initEv
__ZN7WebCore17MediaFeatureNames4initEv
__ZN7WebCore8XMLNames4initEv
__ZN7WebCore4Page12setMainFrameEN3WTF10PassRefPtrINS_5FrameEEE
__ZN7WebCore4KURLC1EP5NSURL
__ZN7WebCore4KURLC2EP5NSURL
__ZN7WebCore4KURL5parseEPKcPKNS_6StringE
__ZN7WebCoreL22appendEscapingBadCharsERPcPKcm
__ZN7WebCore6StringC1EPKcj
__ZN7WebCore6StringC2EPKcj
__ZN7WebCore10StringImpl6createEPKcj
__ZN3WTF6VectorIcLm4096EE6shrinkEm
__ZN3WTF6VectorIcLm512EE6shrinkEm
__ZN7WebCore5Frame26initWithSimpleHTMLDocumentERKNS_6StringEbRKNS_4KURLE
__ZN7WebCore11FrameLoader26initForSynthesizedDocumentERKNS_4KURLE
__ZN7WebCore4KURLC1EPKc
__ZN7WebCore4KURLC2EPKc
__ZN7WebCore14DocumentLoaderC2ERKNS_15ResourceRequestERKNS_14SubstituteDataE
__ZN3WTF6VectorIN7WebCore6StringELm0EEC1ERKS3_
__ZN3WTF6VectorIN7WebCore6StringELm0EEC2ERKS3_
__ZN7WebCore16NavigationActionC1Ev
__ZN7WebCore16NavigationActionC2Ev
__ZNK7WebCore5Frame4pageEv
__ZN7WebCore14DocumentLoader8setFrameEPNS_5FrameE
__ZN7WebCore14DocumentLoader13attachToFrameEv
__ZN7WebCore11FrameLoader17setDocumentLoaderEPNS_14DocumentLoaderE
__ZNK7WebCore5Frame6loaderEv
__ZNK7WebCore11FrameLoader14documentLoaderEv
__ZN7WebCore11FrameLoader14detachChildrenEv
__ZNK7WebCore5Frame4treeEv
__ZNK7WebCore16ResourceResponse13nsURLResponseEv
__ZNK7WebCore4KURLcvP5NSURLEv
__ZN7WebCore10StringImplcvP8NSStringEv
-[NSURLResponse(WebCoreURLResponse) _webcore_MIMEType]
__ZL13sniffMIMETypeP13NSURLResponse
__ZN7WebCore16MIMETypeRegistry27isSupportedNonImageMIMETypeERKNS_6StringE
__ZN7WebCoreL26initializeMIMETypeRegistryEv
__ZN7WebCoreL38initializeSupportedJavaScriptMIMETypesEv
__ZN3WTF7HashSetIN7WebCore6StringENS1_10StringHashENS_10HashTraitsIS2_EEE3addERKS2_
__ZN3WTF9HashTableIN7WebCore6StringES2_NS_17IdentityExtractorIS2_EENS1_10StringHashENS_10HashTraitsIS2_EES7_E6expandEv
__ZN3WTF9HashTableIN7WebCore6StringES2_NS_17IdentityExtractorIS2_EENS1_10StringHashENS_10HashTraitsIS2_EES7_E6rehashEi
__ZN3WTF9HashTableIN7WebCore6StringES2_NS_17IdentityExtractorIS2_EENS1_10StringHashENS_10HashTraitsIS2_EES7_E13allocateTableEi
__ZN3WTF9HashTableIN7WebCore6StringES2_NS_17IdentityExtractorIS2_EENS1_10StringHashENS_10HashTraitsIS2_EES7_E15deallocateTableEPS2_i
__ZN7WebCore5equalEPNS_10StringImplES1_
__ZN3WTF9HashTableIN7WebCore6StringES2_NS_17IdentityExtractorIS2_EENS1_10StringHashENS_10HashTraitsIS2_EES7_EC1ERKS8_
__ZN3WTF9HashTableIN7WebCore6StringES2_NS_17IdentityExtractorIS2_EENS1_10StringHashENS_10HashTraitsIS2_EES7_EC2ERKS8_
__ZN7WebCoreL36initializeSupportedNonImageMimeTypesEv
__ZN7WebCore14ArchiveFactory29registerKnownArchiveMIMETypesEv
__ZN7WebCore16MIMETypeRegistry29getSupportedNonImageMIMETypesEv
__ZN7WebCoreL16archiveMIMETypesEv
__ZN3WTF7HashMapIN7WebCore6StringEPFNS_10PassRefPtrINS1_7ArchiveEEEPNS1_12SharedBufferEENS1_15CaseFoldingHashENS_10HashTraitsIS2_EENSB_IS9_EEE3setERKS2_RKS9_
__ZN3WTF9HashTableIN7WebCore6StringESt4pairIS2_PFNS_10PassRefPtrINS1_7ArchiveEEEPNS1_12SharedBufferEEENS_18PairFirstExtractorISB_EENS1_15CaseFoldingHashENS_14PairHashTraitsINS_10HashTraitsIS2_EENSG_ISA_EEEESH_E6expandEv
__ZN3WTF9HashTableIN7WebCore6StringESt4pairIS2_PFNS_10PassRefPtrINS1_7ArchiveEEEPNS1_12SharedBufferEEENS_18PairFirstExtractorISB_EENS1_15CaseFoldingHashENS_14PairHashTraitsINS_10HashTraitsIS2_EENSG_ISA_EEEESH_E13allocateTableEi
__ZN3WTF9HashTableIN7WebCore6StringESt4pairIS2_PFNS_10PassRefPtrINS1_7ArchiveEEEPNS1_12SharedBufferEEENS_18PairFirstExtractorISB_EENS1_15CaseFoldingHashENS_14PairHashTraitsINS_10HashTraitsIS2_EENSG_ISA_EEEESH_E4findIS2_NS_22IdentityHashTranslatorIS2_SB_SE_EEEENS_17HashTableIteratorIS2_SB_SD_SE_SJ_SH_EERKT_
__ZN3WTF9HashTableIN7WebCore6StringESt4pairIS2_PFNS_10PassRefPtrINS1_7ArchiveEEEPNS1_12SharedBufferEEENS_18PairFirstExtractorISB_EENS1_15CaseFoldingHashENS_14PairHashTraitsINS_10HashTraitsIS2_EENSG_ISA_EEEESH_E15deallocateTableEPSB_i
__ZN3WTF9HashTableIN7WebCore6StringESt4pairIS2_PFNS_10PassRefPtrINS1_7ArchiveEEEPNS1_12SharedBufferEEENS_18PairFirstExtractorISB_EENS1_15CaseFoldingHashENS_14PairHashTraitsINS_10HashTraitsIS2_EENSG_ISA_EEEESH_E6rehashEi
__ZN7WebCoreL33initializeSupportedImageMIMETypesEv
__ZN3WTF9HashTableIN7WebCore6StringES2_NS_17IdentityExtractorIS2_EENS1_10StringHashENS_10HashTraitsIS2_EES7_E4findIS2_NS_22IdentityHashTranslatorIS2_S2_S5_EEEENS_17HashTableIteratorIS2_S2_S4_S5_S7_S7_EERKT_
__ZNK3WTF9HashTableIN7WebCore6StringES2_NS_17IdentityExtractorIS2_EENS1_10StringHashENS_10HashTraitsIS2_EES7_E8containsIS2_NS_22IdentityHashTranslatorIS2_S2_S5_EEEEbRKT_
-[WAKView bounds]
_WKViewGetBounds
-[WAKView _setDrawsOwnDescendants:]
-[WAKScrollView setDocumentView:]
_WKScrollViewSetDocumentView
_WKScrollViewGetContentView
_WKClipViewSetDocumentView
__ZNK7WebCore5Frame4viewEv
__ZN7WebCore5Frame7setViewEPNS_9FrameViewE
__ZNK7WebCore5Frame12eventHandlerEv
__ZN7WebCore12EventHandler5clearEv
__ZN7WebCore9TimerBase4stopEv
__ZN7WebCore9TimerBase15setNextFireTimeEd
__ZN3WTF9HashTableIjSt4pairIjNS_6RefPtrIN7WebCore5TouchEEEENS_18PairFirstExtractorIS6_EENS_7IntHashIjEENS_14PairHashTraitsINS_10HashTraitsIjEENSC_IS5_EEEESD_E15deallocateTableEPS6_i
__ZN3WTF9HashTableIjSt4pairIjNS_6RefPtrIN7WebCore5TouchEEEENS_18PairFirstExtractorIS6_EENS_7IntHashIjEENS_14PairHashTraitsINS_10HashTraitsIjEENSC_IS5_EEEESD_E5clearEv
__ZN3WTF9HashTableIjSt4pairIjNS_6RefPtrIN7WebCore5TouchEEEENS_18PairFirstExtractorIS6_EENS_7IntHashIjEENS_14PairHashTraitsINS_10HashTraitsIjEENSC_IS5_EEEESD_E13allocateTableEi
__ZN3WTF9HashTableIjSt4pairIjNS_6RefPtrIN7WebCore5TouchEEEENS_18PairFirstExtractorIS6_EENS_7IntHashIjEENS_14PairHashTraitsINS_10HashTraitsIjEENSC_IS5_EEEESD_E4findIjNS_22IdentityHashTranslatorIjS6_SA_EEEENS_17HashTableIteratorIjS6_S8_SA_SF_SD_EERKT_
__ZN3WTF9HashTableIjSt4pairIjNS_6RefPtrIN7WebCore5TouchEEEENS_18PairFirstExtractorIS6_EENS_7IntHashIjEENS_14PairHashTraitsINS_10HashTraitsIjEENSC_IS5_EEEESD_E6rehashEi
__ZN3WTF9HashTableIjSt4pairIjNS_6RefPtrIN7WebCore5TouchEEEENS_18PairFirstExtractorIS6_EENS_7IntHashIjEENS_14PairHashTraitsINS_10HashTraitsIjEENSC_IS5_EEEESD_E6removeEPS6_
__ZN3WTF9HashTableIjSt4pairIjNS_6RefPtrIN7WebCore5TouchEEEENS_18PairFirstExtractorIS6_EENS_7IntHashIjEENS_14PairHashTraitsINS_10HashTraitsIjEENSC_IS5_EEEESD_E47removeAndInvalidateWithoutEntryConsistencyCheckEPS6_
__ZN3WTF9HashTableIjSt4pairIjNS_6RefPtrIN7WebCore5TouchEEEENS_18PairFirstExtractorIS6_EENS_7IntHashIjEENS_14PairHashTraitsINS_10HashTraitsIjEENSC_IS5_EEEESD_E6expandEv
__ZN3WTF9HashTableINS_6RefPtrIN7WebCore11EventTargetEEES4_NS_17IdentityExtractorIS4_EENS_7PtrHashIS4_EENS_10HashTraitsIS4_EESA_E15deallocateTableEPS4_i
__ZN3WTF9HashTableINS_6RefPtrIN7WebCore11EventTargetEEES4_NS_17IdentityExtractorIS4_EENS_7PtrHashIS4_EENS_10HashTraitsIS4_EESA_E5clearEv
__ZN3WTF9HashTableINS_6RefPtrIN7WebCore11EventTargetEEES4_NS_17IdentityExtractorIS4_EENS_7PtrHashIS4_EENS_10HashTraitsIS4_EESA_E13allocateTableEi
__ZN3WTF9HashTableINS_6RefPtrIN7WebCore11EventTargetEEES4_NS_17IdentityExtractorIS4_EENS_7PtrHashIS4_EENS_10HashTraitsIS4_EESA_E6rehashEi
__ZN3WTF9HashTableINS_6RefPtrIN7WebCore11EventTargetEEES4_NS_17IdentityExtractorIS4_EENS_7PtrHashIS4_EENS_10HashTraitsIS4_EESA_E6removeEPS4_
__ZN3WTF9HashTableINS_6RefPtrIN7WebCore11EventTargetEEES4_NS_17IdentityExtractorIS4_EENS_7PtrHashIS4_EENS_10HashTraitsIS4_EESA_E47removeAndInvalidateWithoutEntryConsistencyCheckEPS4_
__ZN3WTF9HashTableINS_6RefPtrIN7WebCore11EventTargetEEES4_NS_17IdentityExtractorIS4_EENS_7PtrHashIS4_EENS_10HashTraitsIS4_EESA_E6expandEv
__ZN3WTF9HashTableINS_6RefPtrIN7WebCore11EventTargetEEES4_NS_17IdentityExtractorIS4_EENS_7PtrHashIS4_EENS_10HashTraitsIS4_EESA_E4findIS4_NS_22IdentityHashTranslatorIS4_S4_S8_EEEENS_17HashTableIteratorIS4_S4_S6_S8_SA_SA_EERKT_
__ZN3WTF9HashTableINS_6RefPtrIN7WebCore11EventTargetEEES4_NS_17IdentityExtractorIS4_EENS_7PtrHashIS4_EENS_10HashTraitsIS4_EESA_EC2ERKSB_
__ZN3WTF9HashTableINS_6RefPtrIN7WebCore11EventTargetEEES4_NS_17IdentityExtractorIS4_EENS_7PtrHashIS4_EENS_10HashTraitsIS4_EESA_EC1ERKSB_
__ZN7WebCore11FrameLoader37resetMultipleFormSubmissionProtectionEv
__ZN7WebCore9FrameViewC1EPNS_5FrameE
__ZN7WebCore9FrameViewC2EPNS_5FrameE
__ZN7WebCore10ScrollViewC2Ev
__ZN7WebCore6WidgetC2EP7WAKView
__ZN7WebCore6Widget4initEP7WAKView
__ZN7WebCore9FrameView4initEv
__ZN7WebCore9FrameView5resetEv
__ZN3WTF6VectorIN7WebCore7IntRectELm0EE14shrinkCapacityEm
__ZNK7WebCore5Frame8documentEv
__ZN7WebCore10ScrollView4showEv
__ZN7WebCore6Widget4showEv
__ZN7WebCore7IntSizeC1ERK6CGSize
__ZN7WebCore7IntSizeC2ERK6CGSize
__ZN7WebCore10ScrollView18setFixedLayoutSizeERKNS_7IntSizeE
__ZNK7WebCore10ScrollView15fixedLayoutSizeEv
__ZN7WebCore10ScrollView17setUseFixedLayoutEb
__ZNK7WebCore10ScrollView14useFixedLayoutEv
-[WAKScrollView documentView]
_WKClipViewGetDocumentView
+[WAKView _wrapperForViewRef:]
__ZN7WebCore9FrameView14setTransparentEb
__ZN7WebCore8makeRGBAEiiii
__ZN7WebCore9FrameView22setBaseBackgroundColorENS_5ColorE
__ZN7WebCore9FrameView29setShouldUpdateWhileOffscreenEb
__ZNK7WebCore9FrameTree12traverseNextEPKNS_5FrameE
__ZN7WebCore6Widget21releasePlatformWidgetEv
__ZN7WebCore6Widget20retainPlatformWidgetEv
__ZNK7WebCore5Frame13ownerRendererEv
__ZN7WebCore9FrameView14initScrollbarsEv
__ZN7WebCore9FrameView27updateDefaultScrollbarStateEv
__ZNK7WebCore10ScrollView14scrollbarModesERNS_13ScrollbarModeES2_
__ZNK7WebCore10ScrollView22platformScrollbarModesERNS_13ScrollbarModeES2_
-[WAKScrollView scrollingModes:vertical:]
__ZN7WebCore10ScrollView17setScrollbarModesENS_13ScrollbarModeES1_
__ZN7WebCore10ScrollView25platformSetScrollbarModesEv
-[WAKScrollView setScrollingModes:vertical:andLock:]
__ZN7WebCore10ScrollView16setParentVisibleEb
__ZNK7WebCore5Frame12ownerElementEv
__ZN7WebCore12HTMLDocumentC1EPNS_5FrameE
__ZN7WebCore12HTMLDocumentC2EPNS_5FrameE
__ZN7WebCore8DocumentC2EPNS_5FrameEb
__ZN7WebCore13ContainerNodeC2EPNS_8DocumentEb
__ZN7WebCore15EventTargetNodeC2EPNS_8DocumentEbbb
__ZN7WebCore4NodeC2EPNS_8DocumentEbbb
__ZN7WebCore22ScriptExecutionContextC2Ev
__ZN7WebCore14StyleSheetListC1EPNS_8DocumentE
__ZN7WebCore14StyleSheetListC2EPNS_8DocumentE
__ZN7WebCore14HTMLCollection14CollectionInfoC1Ev
__ZN7WebCore14HTMLCollection14CollectionInfoC2Ev
__ZN7WebCore14HTMLCollection14CollectionInfo5resetEv
__ZN3WTF20deleteAllPairSecondsIPNS_6VectorIPN7WebCore7ElementELm0EEEKNS_7HashMapIPNS2_16AtomicStringImplES6_NS_7PtrHashIS9_EENS_10HashTraitsIS9_EENSC_IS6_EEEEEEvRT0_
__ZN3WTF9HashTableIPN7WebCore16AtomicStringImplESt4pairIS3_PNS_6VectorIPNS1_7ElementELm0EEEENS_18PairFirstExtractorISA_EENS_7PtrHashIS3_EENS_14PairHashTraitsINS_10HashTraitsIS3_EENSG_IS9_EEEESH_E15deallocateTableEPSA_i
__ZN3WTF9HashTableIPN7WebCore16AtomicStringImplESt4pairIS3_PNS_6VectorIPNS1_7ElementELm0EEEENS_18PairFirstExtractorISA_EENS_7PtrHashIS3_EENS_14PairHashTraitsINS_10HashTraitsIS3_EENSG_IS9_EEEESH_E5clearEv
__ZN3WTF9HashTableIPN7WebCore16AtomicStringImplESt4pairIS3_PNS_6VectorIPNS1_7ElementELm0EEEENS_18PairFirstExtractorISA_EENS_7PtrHashIS3_EENS_14PairHashTraitsINS_10HashTraitsIS3_EENSG_IS9_EEEESH_E13allocateTableEi
__ZN3WTF9HashTableIPN7WebCore16AtomicStringImplESt4pairIS3_PNS_6VectorIPNS1_7ElementELm0EEEENS_18PairFirstExtractorISA_EENS_7PtrHashIS3_EENS_14PairHashTraitsINS_10HashTraitsIS3_EENSG_IS9_EEEESH_E6rehashEi
__ZN3WTF9HashTableIPN7WebCore16AtomicStringImplESt4pairIS3_PNS_6VectorIPNS1_7ElementELm0EEEENS_18PairFirstExtractorISA_EENS_7PtrHashIS3_EENS_14PairHashTraitsINS_10HashTraitsIS3_EENSG_IS9_EEEESH_E6expandEv
__ZN3WTF9HashTableIPN7WebCore16AtomicStringImplESt4pairIS3_PNS_6VectorIPNS1_7ElementELm0EEEENS_18PairFirstExtractorISA_EENS_7PtrHashIS3_EENS_14PairHashTraitsINS_10HashTraitsIS3_EENSG_IS9_EEEESH_E4findIS3_NS_22IdentityHashTranslatorIS3_SA_SE_EEEENS_17HashTableIteratorIS3_SA_SC_SE_SJ_SH_EERKT_
__ZN7WebCore9DocLoaderC1EPNS_8DocumentE
__ZN7WebCore9DocLoaderC2EPNS_8DocumentE
__ZN7WebCore5cacheEv
__ZN7WebCore5CacheC1Ev
__ZN7WebCore5CacheC2Ev
__ZN7WebCore6LoaderC1Ev
__ZN7WebCore6LoaderC2Ev
__ZN7WebCore6Loader4HostC1ERKNS_12AtomicStringEj
__ZN7WebCore6Loader4HostC2ERKNS_12AtomicStringEj
__ZN7WebCore5Cache12addDocLoaderEPNS_9DocLoaderE
__ZN3WTF7HashSetIPN7WebCore9DocLoaderENS_7PtrHashIS3_EENS_10HashTraitsIS3_EEE3addERKS3_
__ZN3WTF9HashTableIPN7WebCore9DocLoaderES3_NS_17IdentityExtractorIS3_EENS_7PtrHashIS3_EENS_10HashTraitsIS3_EES9_E6expandEv
__ZN3WTF9HashTableIPN7WebCore9DocLoaderES3_NS_17IdentityExtractorIS3_EENS_7PtrHashIS3_EENS_10HashTraitsIS3_EES9_E6rehashEi
__ZN3WTF9HashTableIPN7WebCore9DocLoaderES3_NS_17IdentityExtractorIS3_EENS_7PtrHashIS3_EENS_10HashTraitsIS3_EES9_E13allocateTableEi
__ZN3WTF9HashTableIPN7WebCore9DocLoaderES3_NS_17IdentityExtractorIS3_EENS_7PtrHashIS3_EENS_10HashTraitsIS3_EES9_E15deallocateTableEPS3_i
__ZN7WebCore8Document14resetLinkColorEv
__ZN7WebCore7makeRGBEiii
__ZN7WebCore8Document21resetVisitedLinkColorEv
__ZN7WebCore8Document20resetActiveLinkColorEv
__ZN7WebCore5Color13setNamedColorERKNS_6StringE
__ZNK7WebCore6StringixEj
__ZN7WebCore8Document19initSecurityContextEv
__ZN7WebCore14SecurityOrigin6createERKNS_4KURLE
__ZN7WebCore14SecurityOriginC1ERKNS_4KURLE
__ZN7WebCore14SecurityOriginC2ERKNS_4KURLE
__ZNK7WebCore4KURL8protocolEv
__ZNK7WebCore6String9substringEjj
__ZN7WebCore10StringImpl9substringEjj
__ZNK7WebCore6String5lowerEv
__ZN7WebCore10StringImpl5lowerEv
__ZN7WebCore10StringImpl5adoptERNS_12StringBufferE
__ZNK7WebCore4KURL4hostEv
__ZN7WebCore24decodeURLEscapeSequencesERKNS_6StringE
__ZN7WebCore12UTF8EncodingEv
__ZN7WebCore12TextEncodingC1EPKc
__ZN7WebCore12TextEncodingC2EPKc
__ZN7WebCore31atomicCanonicalTextEncodingNameEPKc
__ZN7WebCore15TextCodecLatin121registerEncodingNamesEPFvPKcS2_E
__ZN7WebCoreL24addToTextEncodingNameMapEPKcS1_
__ZNK3WTF7HashMapIPKcS2_N7WebCore20TextEncodingNameHashENS_10HashTraitsIS2_EES6_E3getERKS2_
__ZN3WTF7HashMapIPKcS2_N7WebCore20TextEncodingNameHashENS_10HashTraitsIS2_EES6_E3addERKS2_S9_
__ZN3WTF9HashTableIPKcSt4pairIS2_S2_ENS_18PairFirstExtractorIS4_EEN7WebCore20TextEncodingNameHashENS_14PairHashTraitsINS_10HashTraitsIS2_EESB_EESB_E6expandEv
__ZN3WTF9HashTableIPKcSt4pairIS2_S2_ENS_18PairFirstExtractorIS4_EEN7WebCore20TextEncodingNameHashENS_14PairHashTraitsINS_10HashTraitsIS2_EESB_EESB_E4findIS2_NS_22IdentityHashTranslatorIS2_S4_S8_EEEENS_17HashTableIteratorIS2_S4_S6_S8_SC_SB_EERKT_
__ZN3WTF9HashTableIPKcSt4pairIS2_S2_ENS_18PairFirstExtractorIS4_EEN7WebCore20TextEncodingNameHashENS_14PairHashTraitsINS_10HashTraitsIS2_EESB_EESB_E15deallocateTableEPS4_i
__ZN3WTF9HashTableIPKcSt4pairIS2_S2_ENS_18PairFirstExtractorIS4_EEN7WebCore20TextEncodingNameHashENS_14PairHashTraitsINS_10HashTraitsIS2_EESB_EESB_E13allocateTableEi
__ZN3WTF9HashTableIPKcSt4pairIS2_S2_ENS_18PairFirstExtractorIS4_EEN7WebCore20TextEncodingNameHashENS_14PairHashTraitsINS_10HashTraitsIS2_EESB_EESB_E6rehashEi
__ZN7WebCore15TextCodecLatin114registerCodecsEPFvPKcPFSt8auto_ptrINS_9TextCodecEERKNS_12TextEncodingEPKvESA_E
__ZN7WebCoreL17addToTextCodecMapEPKcPFSt8auto_ptrINS_9TextCodecEERKNS_12TextEncodingEPKvES9_
__ZN3WTF7HashMapIPKcN7WebCore16TextCodecFactoryENS_7PtrHashIS2_EENS_10HashTraitsIS2_EENS7_IS4_EEE3addERKS2_RKS4_
__ZN3WTF9HashTableIPKcSt4pairIS2_N7WebCore16TextCodecFactoryEENS_18PairFirstExtractorIS6_EENS_7PtrHashIS2_EENS_14PairHashTraitsINS_10HashTraitsIS2_EENSC_IS5_EEEESD_E6expandEv
__ZN3WTF9HashTableIPKcSt4pairIS2_N7WebCore16TextCodecFactoryEENS_18PairFirstExtractorIS6_EENS_7PtrHashIS2_EENS_14PairHashTraitsINS_10HashTraitsIS2_EENSC_IS5_EEEESD_E4findIS2_NS_22IdentityHashTranslatorIS2_S6_SA_EEEENS_17HashTableIteratorIS2_S6_S8_SA_SF_SD_EERKT_
__ZN3WTF9HashTableIPKcSt4pairIS2_N7WebCore16TextCodecFactoryEENS_18PairFirstExtractorIS6_EENS_7PtrHashIS2_EENS_14PairHashTraitsINS_10HashTraitsIS2_EENSC_IS5_EEEESD_E13allocateTableEi
__ZN3WTF9HashTableIPKcSt4pairIS2_N7WebCore16TextCodecFactoryEENS_18PairFirstExtractorIS6_EENS_7PtrHashIS2_EENS_14PairHashTraitsINS_10HashTraitsIS2_EENSC_IS5_EEEESD_E15deallocateTableEPS6_i
__ZN3WTF9HashTableIPKcSt4pairIS2_N7WebCore16TextCodecFactoryEENS_18PairFirstExtractorIS6_EENS_7PtrHashIS2_EENS_14PairHashTraitsINS_10HashTraitsIS2_EENSC_IS5_EEEESD_E6rehashEi
__ZN7WebCore14TextCodecUTF1621registerEncodingNamesEPFvPKcS2_E
__ZN7WebCore14TextCodecUTF1614registerCodecsEPFvPKcPFSt8auto_ptrINS_9TextCodecEERKNS_12TextEncodingEPKvESA_E
__ZN7WebCore20TextCodecUserDefined21registerEncodingNamesEPFvPKcS2_E
__ZN7WebCore20TextCodecUserDefined14registerCodecsEPFvPKcPFSt8auto_ptrINS_9TextCodecEERKNS_12TextEncodingEPKvESA_E
__ZN7WebCore12TextCodecICU25registerBaseEncodingNamesEPFvPKcS2_E
__ZN7WebCore12TextCodecICU18registerBaseCodecsEPFvPKcPFSt8auto_ptrINS_9TextCodecEERKNS_12TextEncodingEPKvESA_E
__ZN7WebCoreL21encodingRegistryMutexEv
__ZNK7WebCore12TextEncoding25backslashAsCurrencySymbolEv
__ZN7WebCore30noExtendedTextEncodingNameUsedEv
__ZN7WebCore24decodeURLEscapeSequencesERKNS_6StringERKNS_12TextEncodingE
__ZN7WebCore10StringImpl4findEti
__ZN3WTF6VectorItLm0EE6appendItEEvPKT_m
__ZN3WTF6VectorItLm0EE14expandCapacityEmPKt
__ZN3WTF6VectorItLm0EE14expandCapacityEm
__ZN3WTF6VectorItLm0EE15reserveCapacityEm
__ZN7WebCore10StringImpl5adoptERN3WTF6VectorItLm0EEE
__ZNK7WebCore4KURL4portEv
__ZN7WebCore5equalEPNS_10StringImplEPKc
__ZNK7WebCore14SecurityOrigin7isLocalEv
__ZN7WebCore11FrameLoader24shouldTreatSchemeAsLocalERKNS_6StringE
__ZN7WebCoreL12localSchemesEv
__ZN3WTF7HashSetIN7WebCore6StringENS1_15CaseFoldingHashENS_10HashTraitsIS2_EEE3addERKS2_
__ZN3WTF9HashTableIN7WebCore6StringES2_NS_17IdentityExtractorIS2_EENS1_15CaseFoldingHashENS_10HashTraitsIS2_EES7_E6expandEv
__ZN3WTF9HashTableIN7WebCore6StringES2_NS_17IdentityExtractorIS2_EENS1_15CaseFoldingHashENS_10HashTraitsIS2_EES7_E6rehashEi
__ZN3WTF9HashTableIN7WebCore6StringES2_NS_17IdentityExtractorIS2_EENS1_15CaseFoldingHashENS_10HashTraitsIS2_EES7_E13allocateTableEi
__ZN3WTF9HashTableIN7WebCore6StringES2_NS_17IdentityExtractorIS2_EENS1_15CaseFoldingHashENS_10HashTraitsIS2_EES7_E15deallocateTableEPS2_i
__ZNK3WTF9HashTableIN7WebCore6StringES2_NS_17IdentityExtractorIS2_EENS1_15CaseFoldingHashENS_10HashTraitsIS2_EES7_E8containsIS2_NS_22IdentityHashTranslatorIS2_S2_S5_EEEEbRKT_
__ZN7WebCoreL24isDefaultPortForProtocolEtRKNS_6StringE
__ZN3WTF7HashMapIN7WebCore6StringEjNS1_10StringHashENS_10HashTraitsIS2_EENS4_IjEEE3setERKS2_RKj
__ZN3WTF9HashTableIN7WebCore6StringESt4pairIS2_jENS_18PairFirstExtractorIS4_EENS1_10StringHashENS_14PairHashTraitsINS_10HashTraitsIS2_EENS9_IjEEEESA_E6expandEv
__ZN3WTF9HashTableIN7WebCore6StringESt4pairIS2_jENS_18PairFirstExtractorIS4_EENS1_10StringHashENS_14PairHashTraitsINS_10HashTraitsIS2_EENS9_IjEEEESA_E13allocateTableEi
__ZN3WTF9HashTableIN7WebCore6StringESt4pairIS2_jENS_18PairFirstExtractorIS4_EENS1_10StringHashENS_14PairHashTraitsINS_10HashTraitsIS2_EENS9_IjEEEESA_E15deallocateTableEPS4_i
__ZN3WTF9HashTableIN7WebCore6StringESt4pairIS2_jENS_18PairFirstExtractorIS4_EENS1_10StringHashENS_14PairHashTraitsINS_10HashTraitsIS2_EENS9_IjEEEESA_E5clearEv
__ZN3WTF9HashTableIN7WebCore6StringESt4pairIS2_jENS_18PairFirstExtractorIS4_EENS1_10StringHashENS_14PairHashTraitsINS_10HashTraitsIS2_EENS9_IjEEEESA_E6rehashEi
__ZN3WTF9HashTableIN7WebCore6StringESt4pairIS2_jENS_18PairFirstExtractorIS4_EENS1_10StringHashENS_14PairHashTraitsINS_10HashTraitsIS2_EENS9_IjEEEESA_E6removeEPS4_
__ZN3WTF9HashTableIN7WebCore6StringESt4pairIS2_jENS_18PairFirstExtractorIS4_EENS1_10StringHashENS_14PairHashTraitsINS_10HashTraitsIS2_EENS9_IjEEEESA_E47removeAndInvalidateWithoutEntryConsistencyCheckEPS4_
__ZN3WTF9HashTableIN7WebCore6StringESt4pairIS2_jENS_18PairFirstExtractorIS4_EENS1_10StringHashENS_14PairHashTraitsINS_10HashTraitsIS2_EENS9_IjEEEESA_E4findIS2_NS_22IdentityHashTranslatorIS2_S4_S7_EEEENS_17HashTableIteratorIS2_S4_S6_S7_SC_SA_EERKT_
__ZNK3WTF7HashMapIN7WebCore6StringEjNS1_10StringHashENS_10HashTraitsIS2_EENS4_IjEEE3getERKS2_
__ZN7WebCore22ScriptExecutionContext17setSecurityOriginEN3WTF10PassRefPtrINS_14SecurityOriginEEE
__ZN7WebCore11FrameLoader32allowSubstituteDataAccessToLocalEv
__ZNK7WebCore14SecurityOrigin7isEmptyEv
__ZN7WebCore8Document15initDNSPrefetchEv
__ZNK7WebCore8Document14parentDocumentEv
__ZNK7WebCore9FrameTree6parentEb
__ZN7WebCore8Document6setURLERKNS_4KURLE
__ZN7WebCore8Document13updateBaseURLEv
__ZN7WebCore4KURLC1ERKS0_RKNS_6StringE
__ZN7WebCore4KURLC2ERKS0_RKNS_6StringE
__ZN7WebCore4KURL4initERKS0_RKNS_6StringERKNS_12TextEncodingE
__ZN3WTF6VectorIcLm512EE6resizeEm
__ZN7WebCoreL9copyASCIIEPKtiPc
__ZN7WebCore5Frame11setDocumentEN3WTF10PassRefPtrINS_8DocumentEEE
__ZNK7WebCore5Frame9selectionEv
__ZNK7WebCore19SelectionController18isFocusedAndActiveEv
__ZN7WebCore8Document6attachEv
__ZN7WebCore11RenderArenaC1Ej
__ZN7WebCore11RenderArenaC2Ej
__ZN7WebCore13InitArenaPoolEPNS_9ArenaPoolEPKcjj
__ZNK7WebCore8Document4viewEv
__ZN7WebCore12RenderObjectnwEmPNS_11RenderArenaE
__ZN7WebCore11RenderArena8allocateEm
__ZN7WebCore13ArenaAllocateEPNS_9ArenaPoolEj
__ZN7WebCore10RenderViewC1EPNS_4NodeEPNS_9FrameViewE
__ZN7WebCore10RenderViewC2EPNS_4NodeEPNS_9FrameViewE
__ZN7WebCore11RenderBlockC2EPNS_4NodeE
__ZN7WebCore15RenderContainerC2EPNS_4NodeE
__ZN7WebCore9RenderBoxC2EPNS_4NodeE
__ZN7WebCore12RenderObjectC2EPNS_4NodeE
__ZN7WebCore12RenderObject18setPrefWidthsDirtyEbb
__ZN7WebCore11RenderLayernwEmPNS_11RenderArenaE
__ZN7WebCore11RenderLayerC1EPNS_9RenderBoxE
__ZN7WebCore11RenderLayerC2EPNS_9RenderBoxE
__ZNK7WebCore11RenderLayer22shouldBeNormalFlowOnlyEv
__ZNK7WebCore15RenderContainer10firstChildEv
__ZNK7WebCore8Document10renderViewEv
__ZN7WebCore10RenderView15didMoveOnscreenEv
__ZNK7WebCore8Document8settingsEv
__ZNK7WebCore5Frame8settingsEv
__ZNK7WebCore8Document14userStyleSheetEv
__ZN7WebCore16CSSStyleSelectorC1EPNS_8DocumentERKNS_6StringEPNS_14StyleSheetListEPNS_13CSSStyleSheetEbb
__ZN7WebCore16CSSStyleSelectorC2EPNS_8DocumentERKNS_6StringEPNS_14StyleSheetListEPNS_13CSSStyleSheetEbb
__ZN7WebCore9FillLayerC1ENS_14EFillLayerTypeE
__ZN7WebCore9FillLayerC2ENS_14EFillLayerTypeE
__ZN7WebCore16CSSStyleSelector15SelectorCheckerC1EPNS_8DocumentEb
__ZN7WebCore16CSSStyleSelector15SelectorCheckerC2EPNS_8DocumentEb
__ZNK7WebCore12HTMLDocument14isHTMLDocumentEv
__ZN7WebCore15CSSFontSelectorC1EPNS_8DocumentE
__ZN7WebCore15CSSFontSelectorC2EPNS_8DocumentE
__ZN7WebCore9FontCache9addClientEPNS_12FontSelectorE
__ZN3WTF7HashSetIPN7WebCore12FontSelectorENS_7PtrHashIS3_EENS_10HashTraitsIS3_EEE3addERKS3_
__ZN3WTF9HashTableIPN7WebCore12FontSelectorES3_NS_17IdentityExtractorIS3_EENS_7PtrHashIS3_EENS_10HashTraitsIS3_EES9_E6expandEv
__ZN3WTF9HashTableIPN7WebCore12FontSelectorES3_NS_17IdentityExtractorIS3_EENS_7PtrHashIS3_EENS_10HashTraitsIS3_EES9_E6rehashEi
__ZN3WTF9HashTableIPN7WebCore12FontSelectorES3_NS_17IdentityExtractorIS3_EENS_7PtrHashIS3_EENS_10HashTraitsIS3_EES9_E13allocateTableEi
__ZN3WTF9HashTableIPN7WebCore12FontSelectorES3_NS_17IdentityExtractorIS3_EENS_7PtrHashIS3_EENS_10HashTraitsIS3_EES9_E15deallocateTableEPS3_i
__ZN7WebCore16CSSStyleSelector4initEv
__ZN3WTF6VectorIPN7WebCore26CSSMutableStyleDeclarationELm64EE14shrinkCapacityEm
__ZNK7WebCore8Document20cacheDocumentElementEv
__ZN7WebCore10CSSRuleSetC1Ev
__ZN7WebCore10CSSRuleSetC2Ev
__ZN7WebCoreL12parseUASheetEPKcj
__ZN7WebCoreL12parseUASheetERKNS_6StringE
__ZN7WebCore13CSSStyleSheetC1EPS0_RKNS_6StringES4_
__ZN7WebCore13CSSStyleSheetC2EPS0_RKNS_6StringES4_
__ZN7WebCore10StyleSheetC2EPS0_RKNS_6StringE
__ZN7WebCore13CSSStyleSheet11parseStringERKNS_6StringEb
__ZN7WebCore9CSSParserC1Eb
__ZN7WebCore9CSSParserC2Eb
__ZN7WebCore9CSSParser10parseSheetEPNS_13CSSStyleSheetERKNS_6StringE
__ZN7WebCore9CSSParser11setupParserEPKcRKNS_6StringES2_
__Z10cssyyparsePv
__ZN7WebCore9CSSParser3lexEPv
__ZN7WebCore9CSSParser3lexEv
__ZN7WebCore9CSSParser4textEPi
__ZNK7WebCore9CSSParser8documentEv
__ZNK7WebCore13CSSStyleSheet15isCSSStyleSheetEv
__ZN7WebCore9CSSParser22createFloatingSelectorEv
__ZN7WebCore13QualifiedNameC1ERKS0_
__ZN7WebCore13QualifiedNameC2ERKS0_
__ZN3WTF7HashSetIPN7WebCore11CSSSelectorENS_7PtrHashIS3_EENS_10HashTraitsIS3_EEE3addERKS3_
__ZN3WTF9HashTableIPN7WebCore11CSSSelectorES3_NS_17IdentityExtractorIS3_EENS_7PtrHashIS3_EENS_10HashTraitsIS3_EES9_E6expandEv
__ZN3WTF9HashTableIPN7WebCore11CSSSelectorES3_NS_17IdentityExtractorIS3_EENS_7PtrHashIS3_EENS_10HashTraitsIS3_EES9_E6rehashEi
__ZN3WTF9HashTableIPN7WebCore11CSSSelectorES3_NS_17IdentityExtractorIS3_EENS_7PtrHashIS3_EENS_10HashTraitsIS3_EES9_E13allocateTableEi
__ZN3WTF9HashTableIPN7WebCore11CSSSelectorES3_NS_17IdentityExtractorIS3_EENS_7PtrHashIS3_EENS_10HashTraitsIS3_EES9_E15deallocateTableEPS3_i
__ZN7WebCore12AtomicString3addEPKti
__ZN3WTF7HashSetIPN7WebCore10StringImplENS1_10StringHashENS_10HashTraitsIS3_EEE3addINS1_11UCharBufferENS1_21UCharBufferTranslatorEEESt4pairINS_24HashTableIteratorAdapterINS_9HashTableIS3_S3_NS_17IdentityExtractorIS3_EES4_S6_S6_EES3_EEbERKT_
__ZN7WebCore13QualifiedNameaSERKS0_
__ZN7WebCore13QualifiedName5derefEv
__ZN7WebCore13QualifiedNameD1Ev
__ZN7WebCore13QualifiedNameD2Ev
__ZN3WTF15deleteAllValuesIPN7WebCore11CSSSelectorELm0EEEvRKNS_6VectorIT_XT0_EEE
__ZN3WTF6VectorIPN7WebCore11CSSSelectorELm0EE6shrinkEm
__ZN7WebCore9CSSParser20sinkFloatingSelectorEPNS_11CSSSelectorE
__ZN3WTF9HashTableIPN7WebCore11CSSSelectorES3_NS_17IdentityExtractorIS3_EENS_7PtrHashIS3_EENS_10HashTraitsIS3_EES9_E4findIS3_NS_22IdentityHashTranslatorIS3_S3_S7_EEEENS_17HashTableIteratorIS3_S3_S5_S7_S9_S9_EERKT_
__ZN3WTF9HashTableIPN7WebCore11CSSSelectorES3_NS_17IdentityExtractorIS3_EENS_7PtrHashIS3_EENS_10HashTraitsIS3_EES9_E47removeAndInvalidateWithoutEntryConsistencyCheckEPS3_
__ZN3WTF9HashTableIPN7WebCore11CSSSelectorES3_NS_17IdentityExtractorIS3_EENS_7PtrHashIS3_EENS_10HashTraitsIS3_EES9_E6removeEPS3_
__ZN3WTF6VectorIPN7WebCore11CSSSelectorELm0EE14expandCapacityEmPKS3_
__ZN3WTF6VectorIPN7WebCore11CSSSelectorELm0EE14expandCapacityEm
__ZN3WTF6VectorIPN7WebCore11CSSSelectorELm0EE15reserveCapacityEm
__ZN7WebCore13cssPropertyIDERKNS_15CSSParserStringE
__ZN7WebCoreL13cssPropertyIDEPKtj
__ZN7WebCore17cssValueKeywordIDERKNS_15CSSParserStringE
__ZN7WebCore9CSSParser23createFloatingValueListEv
__ZN3WTF7HashSetIPN7WebCore18CSSParserValueListENS_7PtrHashIS3_EENS_10HashTraitsIS3_EEE3addERKS3_
__ZN3WTF9HashTableIPN7WebCore18CSSParserValueListES3_NS_17IdentityExtractorIS3_EENS_7PtrHashIS3_EENS_10HashTraitsIS3_EES9_E6expandEv
__ZN3WTF9HashTableIPN7WebCore18CSSParserValueListES3_NS_17IdentityExtractorIS3_EENS_7PtrHashIS3_EENS_10HashTraitsIS3_EES9_E6rehashEi
__ZN3WTF9HashTableIPN7WebCore18CSSParserValueListES3_NS_17IdentityExtractorIS3_EENS_7PtrHashIS3_EENS_10HashTraitsIS3_EES9_E13allocateTableEi
__ZN3WTF9HashTableIPN7WebCore18CSSParserValueListES3_NS_17IdentityExtractorIS3_EENS_7PtrHashIS3_EENS_10HashTraitsIS3_EES9_E15deallocateTableEPS3_i
__ZN7WebCore9CSSParser17sinkFloatingValueERNS_14CSSParserValueE
__ZN7WebCore18CSSParserValueList8addValueERKNS_14CSSParserValueE
__ZN7WebCore9CSSParser21sinkFloatingValueListEPNS_18CSSParserValueListE
__ZN3WTF9HashTableIPN7WebCore18CSSParserValueListES3_NS_17IdentityExtractorIS3_EENS_7PtrHashIS3_EENS_10HashTraitsIS3_EES9_E4findIS3_NS_22IdentityHashTranslatorIS3_S3_S7_EEEENS_17HashTableIteratorIS3_S3_S5_S7_S9_S9_EERKT_
__ZN3WTF9HashTableIPN7WebCore18CSSParserValueListES3_NS_17IdentityExtractorIS3_EENS_7PtrHashIS3_EENS_10HashTraitsIS3_EES9_E47removeAndInvalidateWithoutEntryConsistencyCheckEPS3_
__ZN3WTF9HashTableIPN7WebCore18CSSParserValueListES3_NS_17IdentityExtractorIS3_EENS_7PtrHashIS3_EENS_10HashTraitsIS3_EES9_E6removeEPS3_
__ZN7WebCore9CSSParser10parseValueEib
__ZN7WebCore9CSSParser21checkForOrphanedUnitsEv
__ZN7WebCore9CSSParser17checkForVariablesEPNS_18CSSParserValueListE
__ZN7WebCore17CSSPrimitiveValue16createIdentifierEi
__ZN7WebCore17CSSPrimitiveValueC1Ei
__ZN7WebCore17CSSPrimitiveValueC2Ei
__ZN7WebCore9CSSParser11addPropertyEiN3WTF10PassRefPtrINS_8CSSValueEEEb
__ZN7WebCore18CSSParserValueListD1Ev
__ZN7WebCore18CSSParserValueListD2Ev
__ZN3WTF6VectorIN7WebCore14CSSParserValueELm16EE6shrinkEm
__ZN7WebCore9CSSParser15createStyleRuleEPN3WTF6VectorIPNS_11CSSSelectorELm0EEE
__ZN7WebCore12CSSStyleRuleC1EPNS_13CSSStyleSheetE
__ZN7WebCore12CSSStyleRuleC2EPNS_13CSSStyleSheetE
__ZN7WebCore15CSSSelectorList19adoptSelectorVectorERN3WTF6VectorIPNS_11CSSSelectorELm0EEE
__ZN7WebCore15CSSSelectorList15deleteSelectorsEv
__ZN7WebCore26CSSMutableStyleDeclarationC1EPNS_7CSSRuleEPKPKNS_11CSSPropertyEi
__ZN7WebCore26CSSMutableStyleDeclarationC2EPNS_7CSSRuleEPKPKNS_11CSSPropertyEi
__ZN7WebCore19CSSStyleDeclarationC2EPNS_7CSSRuleE
__ZNK7WebCore9StyleBase16useStrictParsingEv
__ZN3WTF6VectorIN7WebCore11CSSPropertyELm0EE15reserveCapacityEm
__ZNK7WebCore8CSSValue24isVariableDependentValueEv
__ZN7WebCore12CSSStyleRule14setDeclarationEN3WTF10PassRefPtrINS_26CSSMutableStyleDeclarationEEE
__ZN3WTF6VectorINS_6RefPtrIN7WebCore9StyleBaseEEELm0EE14expandCapacityEm
__ZN3WTF6VectorINS_6RefPtrIN7WebCore9StyleBaseEEELm0EE15reserveCapacityEm
__ZN7WebCore9CSSParser15clearPropertiesEv
__ZN7WebCore9StyleList6appendEN3WTF10PassRefPtrINS_9StyleBaseEEE
__ZN7WebCore9StyleBase18insertedIntoParentEv
__ZN7WebCore18charactersToDoubleEPKtmPb
__ZN3WTF6VectorIcLm256EE6shrinkEm
__ZN7WebCore9CSSParser12parse4ValuesEiPKib
__ZN7WebCore9CSSParser9validUnitEPNS_14CSSParserValueENS0_5UnitsEb
__ZN7WebCore17CSSPrimitiveValue6createEdNS0_9UnitTypesE
__ZN7WebCore17CSSPrimitiveValueC1EdNS0_9UnitTypesE
__ZN7WebCore17CSSPrimitiveValueC2EdNS0_9UnitTypesE
__ZN7WebCore15CSSParserString5lowerEv
__ZNK7WebCore11CSSSelector17extractPseudoTypeEv
__ZN7WebCoreL9hasPrefixEPKcjS1_
__ZN7WebCore9CSSParser14parseShorthandEiPKiib
__ZN7WebCore12CSSValueListC1Eb
__ZN7WebCore12CSSValueListC2Eb
__ZN7WebCore12CSSValueList6appendEN3WTF10PassRefPtrINS_8CSSValueEEE
__ZN3WTF6VectorINS_6RefPtrIN7WebCore8CSSValueEEELm0EE14expandCapacityEm
__ZN3WTF6VectorINS_6RefPtrIN7WebCore8CSSValueEEELm0EE15reserveCapacityEm
__ZN7WebCore11CSSSelector13setTagHistoryEPS0_
__ZN7WebCore9CSSParserD1Ev
__ZN7WebCore9CSSParserD2Ev
__ZN7WebCore9CSSParser14clearVariablesEv
__ZN3WTF6VectorIN7WebCore6StringELm0EE14shrinkCapacityEm
__ZN3WTF6VectorINS_6RefPtrIN7WebCore8CSSValueEEELm0EE14shrinkCapacityEm
__ZN3WTF15deleteAllValuesIPN7WebCore11CSSSelectorEKNS_9HashTableIS3_S3_NS_17IdentityExtractorIS3_EENS_7PtrHashIS3_EENS_10HashTraitsIS3_EESA_EEEEvRT0_
__ZN3WTF15deleteAllValuesIPN7WebCore18CSSParserValueListEKNS_9HashTableIS3_S3_NS_17IdentityExtractorIS3_EENS_7PtrHashIS3_EENS_10HashTraitsIS3_EESA_EEEEvRT0_
__ZN3WTF15deleteAllValuesIPN7WebCore17CSSParserFunctionEKNS_9HashTableIS3_S3_NS_17IdentityExtractorIS3_EENS_7PtrHashIS3_EENS_10HashTraitsIS3_EESA_EEEEvRT0_
__ZN3WTF9HashTableIPN7WebCore17CSSParserFunctionES3_NS_17IdentityExtractorIS3_EENS_7PtrHashIS3_EENS_10HashTraitsIS3_EES9_E15deallocateTableEPS3_i
__ZN3WTF6VectorINS_6RefPtrIN7WebCore9StyleBaseEEELm0EE6shrinkEm
__ZN7WebCoreL10screenEvalEv
__ZN7WebCore19MediaQueryEvaluatorC1EPKcb
__ZN7WebCore19MediaQueryEvaluatorC2EPKcb
__ZN7WebCore10CSSRuleSet17addRulesFromSheetEPNS_13CSSStyleSheetERKNS_19MediaQueryEvaluatorEPNS_16CSSStyleSelectorE
__ZN7WebCore12CSSStyleRule11isStyleRuleEv
__ZN7WebCore10CSSRuleSet7addRuleEPNS_12CSSStyleRuleEPNS_11CSSSelectorE
__ZN7WebCore10CSSRuleSet12addToRuleSetEPNS_16AtomicStringImplERN3WTF7HashMapIS2_PNS_15CSSRuleDataListENS3_7PtrHashIS2_EENS3_10HashTraitsIS2_EENS9_IS6_EEEEPNS_12CSSStyleRuleEPNS_11CSSSelectorE
__ZNK3WTF7HashMapIPN7WebCore16AtomicStringImplEPNS1_15CSSRuleDataListENS_7PtrHashIS3_EENS_10HashTraitsIS3_EENS8_IS5_EEE3getERKS3_
__ZN3WTF7HashMapIPN7WebCore16AtomicStringImplEPNS1_15CSSRuleDataListENS_7PtrHashIS3_EENS_10HashTraitsIS3_EENS8_IS5_EEE3setERKS3_RKS5_
__ZN3WTF9HashTableIPN7WebCore16AtomicStringImplESt4pairIS3_PNS1_15CSSRuleDataListEENS_18PairFirstExtractorIS7_EENS_7PtrHashIS3_EENS_14PairHashTraitsINS_10HashTraitsIS3_EENSD_IS6_EEEESE_E6expandEv
__ZN3WTF9HashTableIPN7WebCore16AtomicStringImplESt4pairIS3_PNS1_15CSSRuleDataListEENS_18PairFirstExtractorIS7_EENS_7PtrHashIS3_EENS_14PairHashTraitsINS_10HashTraitsIS3_EENSD_IS6_EEEESE_E4findIS3_NS_22IdentityHashTranslatorIS3_S7_SB_EEEENS_17HashTableIteratorIS3_S7_S9_SB_SG_SE_EERKT_
__ZN3WTF9HashTableIPN7WebCore16AtomicStringImplESt4pairIS3_PNS1_15CSSRuleDataListEENS_18PairFirstExtractorIS7_EENS_7PtrHashIS3_EENS_14PairHashTraitsINS_10HashTraitsIS3_EENSD_IS6_EEEESE_E15deallocateTableEPS7_i
__ZN3WTF9HashTableIPN7WebCore16AtomicStringImplESt4pairIS3_PNS1_15CSSRuleDataListEENS_18PairFirstExtractorIS7_EENS_7PtrHashIS3_EENS_14PairHashTraitsINS_10HashTraitsIS3_EENSD_IS6_EEEESE_E13allocateTableEi
__ZN3WTF9HashTableIPN7WebCore16AtomicStringImplESt4pairIS3_PNS1_15CSSRuleDataListEENS_18PairFirstExtractorIS7_EENS_7PtrHashIS3_EENS_14PairHashTraitsINS_10HashTraitsIS3_EENSD_IS6_EEEESE_E6rehashEi
__ZNK7WebCore9FrameView9mediaTypeEv
__ZN7WebCore19MediaQueryEvaluatorC1ERKNS_6StringEb
__ZN7WebCore19MediaQueryEvaluatorC2ERKNS_6StringEb
__ZNK7WebCore14StyleSheetList6lengthEv
__ZN7WebCore8Document11recalcStyleENS_4Node11StyleChangeE
__ZNK7WebCore9FrameView10isPaintingEv
__ZN7WebCore13ContainerNode26suspendPostAttachCallbacksEv
__ZN7WebCore11RenderStyle6createEv
__ZN7WebCore11RenderStyleC1Ev
__ZN7WebCore11RenderStyleC2Ev
__ZN7WebCore11RenderStyle18createDefaultStyleEv
__ZN7WebCore11RenderStyleC1Eb
__ZN7WebCore11RenderStyleC2Eb
__ZN7WebCore12StyleBoxDataC1Ev
__ZN7WebCore12StyleBoxDataC2Ev
__ZN7WebCore15StyleVisualDataC1Ev
__ZN7WebCore15StyleVisualDataC2Ev
__ZN7WebCore19StyleBackgroundDataC1Ev
__ZN7WebCore19StyleBackgroundDataC2Ev
__ZN7WebCore17StyleSurroundDataC1Ev
__ZN7WebCore17StyleSurroundDataC2Ev
__ZN7WebCore25StyleRareNonInheritedDataC1Ev
__ZN7WebCore25StyleRareNonInheritedDataC2Ev
__ZN7WebCore20StyleFlexibleBoxDataC1Ev
__ZN7WebCore20StyleFlexibleBoxDataC2Ev
__ZN7WebCore16StyleMarqueeDataC1Ev
__ZN7WebCore16StyleMarqueeDataC2Ev
__ZN7WebCore17StyleMultiColDataC1Ev
__ZN7WebCore17StyleMultiColDataC2Ev
__ZN7WebCore18StyleTransformDataC1Ev
__ZN7WebCore18StyleTransformDataC2Ev
__ZN7WebCore19TransformOperationsC1Eb
__ZN7WebCore19TransformOperationsC2Eb
__ZN3WTF6VectorINS_6RefPtrIN7WebCore18TransformOperationEEELm0EEC1ERKS5_
__ZN3WTF6VectorINS_6RefPtrIN7WebCore18TransformOperationEEELm0EEC2ERKS5_
__ZN7WebCore22StyleRareInheritedDataC1Ev
__ZN7WebCore22StyleRareInheritedDataC2Ev
__ZN7WebCore18StyleInheritedDataC1Ev
__ZN7WebCore18StyleInheritedDataC2Ev
__ZN7WebCore4FontC1Ev
__ZN7WebCore4FontC2Ev
__ZN7WebCore14SVGRenderStyleC1Ev
__ZN7WebCore14SVGRenderStyleC2Ev
__ZN7WebCore14SVGRenderStyleC1ENS0_17CreateDefaultTypeE
__ZN7WebCore14SVGRenderStyleC2ENS0_17CreateDefaultTypeE
__ZN7WebCore13StyleFillDataC1Ev
__ZN7WebCore13StyleFillDataC2Ev
__ZN7WebCore8SVGPaint11defaultFillEv
__ZN7WebCore8SVGPaintC1ERKNS_5ColorE
__ZN7WebCore8SVGPaintC2ERKNS_5ColorE
__ZN7WebCore8SVGColorC2ERKNS_5ColorE
__ZN7WebCore15StyleStrokeDataC1Ev
__ZN7WebCore15StyleStrokeDataC2Ev
__ZN7WebCore8SVGPaint13defaultStrokeEv
__ZN7WebCore8SVGPaintC1ENS0_12SVGPaintTypeE
__ZN7WebCore8SVGPaintC2ENS0_12SVGPaintTypeE
__ZN7WebCore8SVGColorC2Ev
__ZN7WebCore13StyleTextDataC1Ev
__ZN7WebCore13StyleTextDataC2Ev
__ZN7WebCore13StyleStopDataC1Ev
__ZN7WebCore13StyleStopDataC2Ev
__ZN7WebCore13StyleClipDataC1Ev
__ZN7WebCore13StyleClipDataC2Ev
__ZN7WebCore13StyleMaskDataC1Ev
__ZN7WebCore13StyleMaskDataC2Ev
__ZN7WebCore13StyleMiscDataC1Ev
__ZN7WebCore13StyleMiscDataC2Ev
__ZN7WebCore15StyleMarkerDataC1Ev
__ZN7WebCore15StyleMarkerDataC2Ev
__ZNK7WebCore4Font6updateEN3WTF10PassRefPtrINS_12FontSelectorEEE
__ZN7WebCore16FontFallbackList10invalidateEN3WTF10PassRefPtrINS_12FontSelectorEEE
__ZN3WTF6VectorISt4pairIPKN7WebCore8FontDataEbELm1EE14shrinkCapacityEm
__ZNK7WebCore5Frame19shouldApplyPageZoomEv
__ZNK7WebCore8Settings17fontRenderingModeEv
__ZNK7WebCore16CSSStyleSelector18fontSizeForKeywordEibb
__ZN7WebCore16CSSStyleSelector11setFontSizeERNS_15FontDescriptionEf
__ZN7WebCore16CSSStyleSelector32getComputedSizeFromSpecifiedSizeEbf
__ZNK7WebCore5Frame19shouldApplyTextZoomEv
__ZN7WebCoreeqERKNS_10FontFamilyES2_
__ZN7WebCore18StyleInheritedDataC1ERKS0_
__ZN7WebCore18StyleInheritedDataC2ERKS0_
__ZN7WebCore4FontC1ERKNS_15FontDescriptionEff
__ZN7WebCore4FontC2ERKNS_15FontDescriptionEff
__ZN7WebCore4FontaSERKS0_
__ZN7WebCore10FontFamilyaSERKS0_
__ZN3WTF9HashTableIiSt4pairIiPN7WebCore17GlyphPageTreeNodeEENS_18PairFirstExtractorIS5_EENS_7IntHashIjEENS_14PairHashTraitsINS_10HashTraitsIiEENSB_IS4_EEEESC_EaSERKSF_
__ZN3WTF9HashTableIiSt4pairIiPN7WebCore17GlyphPageTreeNodeEENS_18PairFirstExtractorIS5_EENS_7IntHashIjEENS_14PairHashTraitsINS_10HashTraitsIiEENSB_IS4_EEEESC_E4findIiNS_22IdentityHashTranslatorIiS5_S9_EEEENS_17HashTableIteratorIiS5_S7_S9_SE_SC_EERKT_
__ZN3WTF9HashTableIiSt4pairIiPN7WebCore17GlyphPageTreeNodeEENS_18PairFirstExtractorIS5_EENS_7IntHashIjEENS_14PairHashTraitsINS_10HashTraitsIiEENSB_IS4_EEEESC_E4swapERSF_
__ZN3WTF9HashTableIiSt4pairIiPN7WebCore17GlyphPageTreeNodeEENS_18PairFirstExtractorIS5_EENS_7IntHashIjEENS_14PairHashTraitsINS_10HashTraitsIiEENSB_IS4_EEEESC_E15deallocateTableEPS5_i
__ZN3WTF9HashTableIiSt4pairIiPN7WebCore17GlyphPageTreeNodeEENS_18PairFirstExtractorIS5_EENS_7IntHashIjEENS_14PairHashTraitsINS_10HashTraitsIiEENSB_IS4_EEEESC_E5clearEv
__ZN3WTF9HashTableIiSt4pairIiPN7WebCore17GlyphPageTreeNodeEENS_18PairFirstExtractorIS5_EENS_7IntHashIjEENS_14PairHashTraitsINS_10HashTraitsIiEENSB_IS4_EEEESC_E13allocateTableEi
__ZN3WTF9HashTableIiSt4pairIiPN7WebCore17GlyphPageTreeNodeEENS_18PairFirstExtractorIS5_EENS_7IntHashIjEENS_14PairHashTraitsINS_10HashTraitsIiEENSB_IS4_EEEESC_E6rehashEi
__ZN3WTF9HashTableIiSt4pairIiPN7WebCore17GlyphPageTreeNodeEENS_18PairFirstExtractorIS5_EENS_7IntHashIjEENS_14PairHashTraitsINS_10HashTraitsIiEENSB_IS4_EEEESC_E6expandEv
__ZN3WTF9HashTableIiSt4pairIiPN7WebCore17GlyphPageTreeNodeEENS_18PairFirstExtractorIS5_EENS_7IntHashIjEENS_14PairHashTraitsINS_10HashTraitsIiEENSB_IS4_EEEESC_EC2ERKSF_
__ZN3WTF9HashTableIiSt4pairIiPN7WebCore17GlyphPageTreeNodeEENS_18PairFirstExtractorIS5_EENS_7IntHashIjEENS_14PairHashTraitsINS_10HashTraitsIiEENSB_IS4_EEEESC_EC1ERKSF_
__ZN7WebCore4Node4diffEPNS_11RenderStyleES2_
__ZNK7WebCore11RenderStyle14hasPseudoStyleENS0_8PseudoIdE
__ZN7WebCore12RenderObject8setStyleEN3WTF10PassRefPtrINS_11RenderStyleEEE
__ZNK7WebCore12RenderObject21adjustStyleDifferenceENS_15StyleDifferenceEj
__ZN7WebCore11RenderBlock15styleWillChangeENS_15StyleDifferenceEPKNS_11RenderStyleE
__ZN7WebCore9RenderBox15styleWillChangeENS_15StyleDifferenceEPKNS_11RenderStyleE
__ZN7WebCore12RenderObject15styleWillChangeENS_15StyleDifferenceEPKNS_11RenderStyleE
__ZNK7WebCore12RenderObject4viewEv
__ZN7WebCore12RenderObject16updateFillImagesEPKNS_9FillLayerES3_
__ZN7WebCore12RenderObject11updateImageEPNS_10StyleImageES2_
__ZN7WebCore11RenderBlock14styleDidChangeENS_15StyleDifferenceEPKNS_11RenderStyleE
__ZN7WebCore9RenderBox14styleDidChangeENS_15StyleDifferenceEPKNS_11RenderStyleE
__ZN7WebCore12RenderObject14styleDidChangeENS_15StyleDifferenceEPKNS_11RenderStyleE
__ZNK7WebCore10RenderView12isRenderViewEv
__ZNK7WebCore9RenderBox13requiresLayerEv
__ZN7WebCore11RenderLayer12styleChangedENS_15StyleDifferenceEPKNS_11RenderStyleE
__ZN7WebCore11RenderLayer23updateScrollCornerStyleEv
__ZN7WebCore11RenderLayer18updateResizerStyleEv
__ZN7WebCore11RenderLayer15updateTransformEv
__ZNK7WebCore11RenderLayer10compositorEv
__ZN7WebCore10RenderView10compositorEv
__ZN7WebCore21RenderLayerCompositorC1EPNS_10RenderViewE
__ZN7WebCore21RenderLayerCompositorC2EPNS_10RenderViewE
__ZN7WebCore21RenderLayerCompositor27updateLayerCompositingStateEPNS_11RenderLayerENS_15StyleDifferenceE
__ZNK7WebCore21RenderLayerCompositor19needsToBeCompositedEPKNS_11RenderLayerE
__ZNK7WebCore21RenderLayerCompositor24requiresCompositingLayerEPKNS_11RenderLayerE
__ZN7WebCore21RenderLayerCompositor31requiresCompositingForTransformEPNS_12RenderObjectE
__ZNK7WebCore21RenderLayerCompositor27clipsCompositingDescendantsEPKNS_11RenderLayerE
__ZN7WebCore21RenderLayerCompositor31requiresCompositingForAnimationEPNS_12RenderObjectE
__ZNK7WebCore12RenderObject9animationEv
__ZNK7WebCore5Frame9animationEv
__ZNK7WebCore19AnimationController29isAnimatingPropertyOnRendererEPNS_12RenderObjectE13CSSPropertyIDb
__ZNK7WebCore26AnimationControllerPrivate29isAnimatingPropertyOnRendererEPNS_12RenderObjectE13CSSPropertyIDb
__ZNK3WTF7HashMapIPN7WebCore12RenderObjectENS_6RefPtrINS1_18CompositeAnimationEEENS_7PtrHashIS3_EENS_10HashTraitsIS3_EENS9_IS6_EEE3getERKS3_
__ZNK7WebCore12RenderObject6isBodyEv
__ZN7WebCore11RenderBlock17updateFirstLetterEv
__ZN7WebCore9FrameView23updateCompositingLayersENS0_17CompositingUpdateE
__ZNK7WebCore5Frame15contentRendererEv
__ZNK7WebCore10RenderView15usesCompositingEv
__ZN7WebCore4Node10setChangedENS_15StyleChangeTypeE
__ZN7WebCore8Document18setDocumentChangedEb
__ZN7WebCore13ContainerNode25resumePostAttachCallbacksEv
__ZN7WebCore13ContainerNode6attachEv
__ZN7WebCore4Node6attachEv
__ZN7WebCore16ScriptController14updateDocumentEv
__ZN7WebCore8Document15createElementNSERKNS_6StringES3_Ri
__ZN7WebCore8Document18parseQualifiedNameERKNS_6StringERS1_S4_Ri
__ZN3WTF7HashSetIPN7WebCore10StringImplENS1_10StringHashENS_10HashTraitsIS3_EEE3addERKS3_
__ZN7WebCore8Document26hasPrefixNamespaceMismatchERKNS_13QualifiedNameE
__ZN7WebCore8Document13createElementERKNS_13QualifiedNameEbRi
__ZN7WebCore18HTMLElementFactory17createHTMLElementERKNS_13QualifiedNameEPNS_8DocumentEPNS_15HTMLFormElementEb
__ZN7WebCoreL6addTagERKNS_13QualifiedNameEPFN3WTF10PassRefPtrINS_11HTMLElementEEES2_PNS_8DocumentEPNS_15HTMLFormElementEbE
__ZN3WTF7HashMapIPN7WebCore16AtomicStringImplEPFNS_10PassRefPtrINS1_11HTMLElementEEERKNS1_13QualifiedNameEPNS1_8DocumentEPNS1_15HTMLFormElementEbENS_7PtrHashIS3_EENS_10HashTraitsIS3_EENSI_ISF_EEE3setERKS3_RKSF_
__ZN3WTF9HashTableIPN7WebCore16AtomicStringImplESt4pairIS3_PFNS_10PassRefPtrINS1_11HTMLElementEEERKNS1_13QualifiedNameEPNS1_8DocumentEPNS1_15HTMLFormElementEbEENS_18PairFirstExtractorISH_EENS_7PtrHashIS3_EENS_14PairHashTraitsINS_10HashTraitsIS3_EENSN_ISG_EEEESO_E6expandEv
__ZN3WTF9HashTableIPN7WebCore16AtomicStringImplESt4pairIS3_PFNS_10PassRefPtrINS1_11HTMLElementEEERKNS1_13QualifiedNameEPNS1_8DocumentEPNS1_15HTMLFormElementEbEENS_18PairFirstExtractorISH_EENS_7PtrHashIS3_EENS_14PairHashTraitsINS_10HashTraitsIS3_EENSN_ISG_EEEESO_E4findIS3_NS_22IdentityHashTranslatorIS3_SH_SL_EEEENS_17HashTableIteratorIS3_SH_SJ_SL_SQ_SO_EERKT_
__ZN3WTF9HashTableIPN7WebCore16AtomicStringImplESt4pairIS3_PFNS_10PassRefPtrINS1_11HTMLElementEEERKNS1_13QualifiedNameEPNS1_8DocumentEPNS1_15HTMLFormElementEbEENS_18PairFirstExtractorISH_EENS_7PtrHashIS3_EENS_14PairHashTraitsINS_10HashTraitsIS3_EENSN_ISG_EEEESO_E15deallocateTableEPSH_i
__ZN3WTF9HashTableIPN7WebCore16AtomicStringImplESt4pairIS3_PFNS_10PassRefPtrINS1_11HTMLElementEEERKNS1_13QualifiedNameEPNS1_8DocumentEPNS1_15HTMLFormElementEbEENS_18PairFirstExtractorISH_EENS_7PtrHashIS3_EENS_14PairHashTraitsINS_10HashTraitsIS3_EENSN_ISG_EEEESO_E13allocateTableEi
__ZN3WTF9HashTableIPN7WebCore16AtomicStringImplESt4pairIS3_PFNS_10PassRefPtrINS1_11HTMLElementEEERKNS1_13QualifiedNameEPNS1_8DocumentEPNS1_15HTMLFormElementEbEENS_18PairFirstExtractorISH_EENS_7PtrHashIS3_EENS_14PairHashTraitsINS_10HashTraitsIS3_EENSN_ISG_EEEESO_E6rehashEi
__ZNK3WTF7HashMapIPN7WebCore16AtomicStringImplEPFNS_10PassRefPtrINS1_11HTMLElementEEERKNS1_13QualifiedNameEPNS1_8DocumentEPNS1_15HTMLFormElementEbENS_7PtrHashIS3_EENS_10HashTraitsIS3_EENSI_ISF_EEE3getERKS3_
__ZN7WebCoreL15htmlConstructorERKNS_13QualifiedNameEPNS_8DocumentEPNS_15HTMLFormElementEb
__ZN7WebCore15HTMLHtmlElementC1ERKNS_13QualifiedNameEPNS_8DocumentE
__ZN7WebCore15HTMLHtmlElementC2ERKNS_13QualifiedNameEPNS_8DocumentE
__ZN7WebCore11HTMLElementC2ERKNS_13QualifiedNameEPNS_8DocumentE
__ZN7WebCore13StyledElementC2ERKNS_13QualifiedNameEPNS_8DocumentE
__ZN7WebCore7ElementC2ERKNS_13QualifiedNameEPNS_8DocumentE
__ZN7WebCore13ContainerNode11appendChildEN3WTF10PassRefPtrINS_4NodeEEERib
__ZN7WebCore4Node13checkAddChildEPS0_Ri
__ZNK7WebCore8Document8nodeTypeEv
__ZNK7WebCore4Node14isDescendantOfEPKS0_
__ZNK7WebCore7Element8nodeTypeEv
__ZN7WebCore8Document16childTypeAllowedENS_4Node8NodeTypeE
__ZN7WebCoreL28dispatchChildInsertionEventsEPNS_4NodeERi
__ZN7WebCore15HTMLHtmlElement20insertedIntoDocumentEv
__ZN7WebCore7Element20insertedIntoDocumentEv
__ZN7WebCore13ContainerNode20insertedIntoDocumentEv
__ZN7WebCore15EventTargetNode20insertedIntoDocumentEv
__ZNK7WebCore15EventTargetNode14eventListenersEv
__ZN7WebCore4Node20insertedIntoDocumentEv
__ZN7WebCore13ContainerNode16insertedIntoTreeEb
__ZN7WebCore7Element6attachEv
__ZN7WebCore4Node22createRendererIfNeededEv
__ZN7WebCore8Document21shouldCreateRenderersEv
__ZNK7WebCore15RenderContainer15canHaveChildrenEv
__ZNK7WebCore4Node25childShouldCreateRendererEPS0_
__ZN7WebCore4Node16styleForRendererEv
__ZN7WebCore16CSSStyleSelector15styleForElementEPNS_7ElementEPNS_11RenderStyleEbb
__ZN7WebCore16CSSStyleSelector25initElementAndPseudoStateEPNS_7ElementE
__ZNK7WebCore13StyledElement15isStyledElementEv
__ZN7WebCore16CSSStyleSelector17locateSharedStyleEv
__ZN7WebCore16CSSStyleSelector16locateCousinListEPNS_7ElementEj
__ZN7WebCore16CSSStyleSelector19initForStyleResolveEPNS_7ElementEPNS_11RenderStyleENS3_8PseudoIdE
__ZN7WebCore11RenderStyle11inheritFromEPKS0_
__ZN7WebCoreL31elementCanUseSimpleDefaultStyleEPNS_7ElementE
__ZNK7WebCore4Node12isSVGElementEv
__ZN7WebCore16CSSStyleSelector12matchUARulesERiS1_
__ZNK7WebCore19MediaQueryEvaluator22mediaTypeMatchSpecificEPKc
__ZN7WebCore17equalIgnoringCaseEPNS_10StringImplEPKc
__ZN7WebCore16CSSStyleSelector10matchRulesEPNS_10CSSRuleSetERiS3_
__ZN3WTF6VectorIPN7WebCore11CSSRuleDataELm32EE14shrinkCapacityEm
__ZN7WebCore16CSSStyleSelector17matchRulesForListEPNS_15CSSRuleDataListERiS3_
__ZN7WebCore16CSSStyleSelector13checkSelectorEPNS_11CSSSelectorE
__ZNK7WebCore16CSSStyleSelector15SelectorChecker13checkSelectorEPNS_11CSSSelectorEPNS_7ElementEPN3WTF7HashSetIPNS_16AtomicStringImplENS6_7PtrHashIS9_EENS6_10HashTraitsIS9_EEEERNS_11RenderStyle8PseudoIdEbbPSG_SJ_
__ZNK7WebCore16CSSStyleSelector15SelectorChecker16checkOneSelectorEPNS_11CSSSelectorEPNS_7ElementEPN3WTF7HashSetIPNS_16AtomicStringImplENS6_7PtrHashIS9_EENS6_10HashTraitsIS9_EEEERNS_11RenderStyle8PseudoIdEbbPSG_SJ_
__ZNK7WebCore26CSSMutableStyleDeclaration6lengthEv
__ZN7WebCore16CSSStyleSelector16sortMatchedRulesEjj
__ZN7WebCore16CSSStyleSelector21addMatchedDeclarationEPNS_26CSSMutableStyleDeclarationE
__ZNK7WebCore5Frame16inViewSourceModeEv
__ZN3WTF6VectorIPN7WebCore11CSSRuleDataELm32EE6shrinkEm
__ZNK7WebCore13StyledElement36canHaveAdditionalAttributeStyleDeclsEv
__ZN7WebCore16CSSStyleSelector17applyDeclarationsEbbii
__ZN7WebCore16CSSStyleSelector13applyPropertyEiPNS_8CSSValueE
__ZNK7WebCore17CSSPrimitiveValue16isPrimitiveValueEv
__ZNK7WebCore17CSSPrimitiveValue12cssValueTypeEv
__ZN7WebCore16CSSStyleSelector24cacheBorderAndBackgroundEv
__ZN7WebCore16CSSStyleSelector17adjustRenderStyleEPNS_11RenderStyleEPNS_7ElementE
__ZN7WebCore12StyleBoxDataC1ERKS0_
__ZN7WebCore12StyleBoxDataC2ERKS0_
__ZN7WebCore11RenderStyle16adjustAnimationsEv
__ZN7WebCore11RenderStyle17adjustTransitionsEv
__ZNK7WebCore4Node9isControlEv
__ZN7WebCore11HTMLElement16rendererIsNeededEPNS_11RenderStyleE
__ZN7WebCore4Node16rendererIsNeededEPNS_11RenderStyleE
__ZN7WebCore11HTMLElement14createRendererEPNS_11RenderArenaEPNS_11RenderStyleE
__ZN7WebCore12RenderObject12createObjectEPNS_4NodeEPNS_11RenderStyleE
__ZN7WebCore11RenderBlockC1EPNS_4NodeE
__ZNK7WebCore12RenderObject14isChildAllowedEPS0_PNS_11RenderStyleE
__ZN7WebCore12RenderObject18setAnimatableStyleEN3WTF10PassRefPtrINS_11RenderStyleEEE
__ZN7WebCore19AnimationController16updateAnimationsEPNS_12RenderObjectEPNS_11RenderStyleE
__ZNK7WebCore12RenderObject12isRenderViewEv
__ZN7WebCore11RenderLayer19insertOnlyThisLayerEv
__ZN7WebCore11RenderLayer34clearClipRectsIncludingDescendantsEv
__ZN7WebCore4Node18shadowAncestorNodeEv
__ZN7WebCore4Node18shadowTreeRootNodeEv
__ZNK7WebCore4Node12isShadowNodeEv
__ZN7WebCore4Node12nextRendererEv
__ZN7WebCore10RenderFlow8addChildEPNS_12RenderObjectES2_
__ZN7WebCore11RenderBlock14addChildToFlowEPNS_12RenderObjectES2_
__ZNK7WebCore15RenderContainer9lastChildEv
__ZNK7WebCore15RenderContainer14isAfterContentEPNS_12RenderObjectE
__ZN7WebCore11RenderBlock21makeChildrenNonInlineEPNS_12RenderObjectE
__ZN7WebCore15RenderContainer8addChildEPNS_12RenderObjectES2_
__ZNK7WebCore12RenderObject10isListItemEv
__ZNK7WebCore12RenderObject10isTableColEv
__ZNK7WebCore11RenderBlock13isRenderBlockEv
__ZNK7WebCore12RenderObject14isTableSectionEv
__ZNK7WebCore12RenderObject10isTableRowEv
__ZNK7WebCore12RenderObject11isTableCellEv
__ZN7WebCore15RenderContainer15insertChildNodeEPNS_12RenderObjectES2_b
__ZN7WebCore15RenderContainer15appendChildNodeEPNS_12RenderObjectEb
__ZNK7WebCore12RenderObject14enclosingLayerEv
__ZN7WebCore12RenderObject9addLayersEPNS_11RenderLayerEPS0_
__ZN7WebCoreL9addLayersEPNS_12RenderObjectEPNS_11RenderLayerERS1_RS3_
__ZN7WebCore12RenderObject13findNextLayerEPNS_11RenderLayerEPS0_b
__ZN7WebCore11RenderLayer8addChildEPS0_S1_
__ZN7WebCore11RenderLayer9setParentEPS0_
__ZNK7WebCore12RenderObject22documentBeingDestroyedEv
__ZN7WebCore21RenderLayerCompositor13layerWasAddedEPNS_11RenderLayerES2_
__ZN7WebCore21RenderLayerCompositor30setCompositingLayersNeedUpdateEb
__ZN7WebCore11RenderLayer31dirtyStackingContextZOrderListsEv
__ZNK7WebCore11RenderLayer15stackingContextEv
__ZN7WebCore11RenderLayer16dirtyZOrderListsEv
__ZN7WebCore11RenderLayer22updateVisibilityStatusEv
__ZN7WebCore11RenderLayer22childVisibilityChangedEb
__ZNK7WebCore11RenderBlock14childrenInlineEv
__ZN7WebCore12RenderObject14setNeedsLayoutEbb
__ZN7WebCore12RenderObject29markContainingBlocksForLayoutEbPS0_
__ZNK7WebCore12RenderObject9containerEv
__ZNK7WebCore12RenderObject11isTextFieldEv
__ZNK7WebCore12RenderObject10isTextAreaEv
__ZNK7WebCore12RenderObject9isSVGRootEv
__ZN7WebCore12RenderObject16scheduleRelayoutEv
__ZN7WebCore9FrameView16scheduleRelayoutEv
__ZNK7WebCore9FrameView11needsLayoutEv
__ZNK7WebCore9FrameView13layoutPendingEv
__ZNK7WebCore9TimerBase8isActiveEv
__ZN7WebCore8Document20shouldScheduleLayoutEv
__ZN7WebCore8Document4bodyEv
__ZN7WebCore12RenderObject29invalidateContainerPrefWidthsEv
__ZN3WTF7HashSetIPN7WebCore8DocumentENS_7PtrHashIS3_EENS_10HashTraitsIS3_EEE3addERKS3_
__ZN3WTF9HashTableIPN7WebCore8DocumentES3_NS_17IdentityExtractorIS3_EENS_7PtrHashIS3_EENS_10HashTraitsIS3_EES9_E6expandEv
__ZN3WTF9HashTableIPN7WebCore8DocumentES3_NS_17IdentityExtractorIS3_EENS_7PtrHashIS3_EENS_10HashTraitsIS3_EES9_E6rehashEi
__ZN3WTF9HashTableIPN7WebCore8DocumentES3_NS_17IdentityExtractorIS3_EENS_7PtrHashIS3_EENS_10HashTraitsIS3_EES9_E13allocateTableEi
__ZN3WTF9HashTableIPN7WebCore8DocumentES3_NS_17IdentityExtractorIS3_EENS_7PtrHashIS3_EENS_10HashTraitsIS3_EES9_E15deallocateTableEPS3_i
__ZN7WebCore8Document15childrenChangedEbPNS_4NodeES2_i
__ZN7WebCore13ContainerNode15childrenChangedEbPNS_4NodeES2_i
__ZN7WebCore8Document19nodeChildrenChangedEPNS_13ContainerNodeE
__ZNK7WebCore8Document4pageEv
__ZN7WebCore15EventTargetNode28dispatchSubtreeModifiedEventEv
__ZN7WebCore4Node31notifyNodeListsAttributeChangedEv
__ZN7WebCore4Node36notifyLocalNodeListsAttributeChangedEv
__ZN7WebCoreL15bodyConstructorERKNS_13QualifiedNameEPNS_8DocumentEPNS_15HTMLFormElementEb
__ZN7WebCore15HTMLBodyElementC1ERKNS_13QualifiedNameEPNS_8DocumentE
__ZN7WebCore15HTMLBodyElementC2ERKNS_13QualifiedNameEPNS_8DocumentE
__ZN7WebCore7Element16childTypeAllowedENS_4Node8NodeTypeE
__ZN7WebCore15HTMLBodyElement20insertedIntoDocumentEv
__ZNK7WebCore8Document12ownerElementEv
__ZN7WebCore5Frame37invalidateOwnerRendererLayoutIfNeededEv
__ZN7WebCore8Document18minimumLayoutDelayEv
__ZNK7WebCore8Document11elapsedTimeEv
__ZN7WebCore9TimerBase5startEdd
__ZN3WTF6VectorIPN7WebCore9TimerBaseELm0EE14expandCapacityEmPKS3_
__ZN3WTF6VectorIPN7WebCore9TimerBaseELm0EE14expandCapacityEm
__ZN3WTF6VectorIPN7WebCore9TimerBaseELm0EE15reserveCapacityEm
__ZN7WebCore9TimerBase15heapDecreaseKeyEv
__ZSt11__push_heapIN7WebCore17TimerHeapIteratorEiNS0_16TimerHeapElementEEvT_T0_S4_T1_
__ZN7WebCore17updateSharedTimerEv
__ZN7WebCore22setSharedTimerFireTimeEd
_WebThreadRunLoop
__ZN3WTF6VectorIPN7WebCore26CSSMutableStyleDeclarationELm64EE6shrinkEm
__ZN7WebCoregtERNS_11CSSRuleDataES1_
__ZN7WebCore11CSSSelector11specificityEv
__ZN7WebCore17CSSPrimitiveValue8getIdentEv
__ZN7WebCore17CSSPrimitiveValue25computeLengthIntForLengthEPNS_11RenderStyleEd
__ZN7WebCore17CSSPrimitiveValue19computeLengthDoubleEPNS_11RenderStyleEdb
__ZN7WebCore17CSSPrimitiveValue12isQuirkValueEv
__ZN7WebCore7DataRefINS_17StyleSurroundDataEE6accessEv
__ZN7WebCore17StyleSurroundDataC1ERKS0_
__ZN7WebCore17StyleSurroundDataC2ERKS0_
__ZN7WebCore7Element15childrenChangedEbPNS_4NodeES2_i
__ZN7WebCoreL27checkForSiblingStyleChangesEPNS_7ElementEPNS_11RenderStyleEbPNS_4NodeES5_i
__ZN7WebCore11FrameLoader18setLocalLoadPolicyENS0_15LocalLoadPolicyE
-[WAKWindow _windowRef]
_WKWindowSetContentView
_WKViewFirstChild
__ZL20notificationCallbackP6WKView22WKViewNotificationTypePv
_WKViewGetWindow
-[WAKView superview]
_WKViewGetSuperview
-[WAKView _initWithViewRef:]
_WKViewNextSibling
_WKArrayIndexOfValue
__notificationCallback
-[WAKView viewDidMoveToWindow]
_WebThreadUnlock
-[WAKWindow setTilesOpaque:]
_WKWindowGetTiledSurface
__ZN7WebCore12TiledSurface14setTilesOpaqueEb
__ZNK7WebCore5Frame41createDefaultFieldEditorDocumentStructureEv
__ZN7WebCore7Element12setAttributeERKNS_13QualifiedNameERKNS_12AtomicStringE
__ZN7WebCore7Element12setAttributeERKNS_13QualifiedNameERKNS_12AtomicStringERi
__ZNK7WebCore7Element10attributesEb
__ZNK7WebCore13StyledElement18createAttributeMapEv
__ZNK7WebCore12NamedAttrMap16getAttributeItemERKNS_13QualifiedNameE
__ZNK7WebCore12NamedAttrMap6lengthEv
__ZN7WebCore13StyledElement15createAttributeERKNS_13QualifiedNameERKNS_12AtomicStringE
__ZN7WebCore12NamedAttrMap12addAttributeEN3WTF10PassRefPtrINS_9AttributeEEE
__ZN3WTF6VectorINS_6RefPtrIN7WebCore9AttributeEEELm0EE14expandCapacityEmPKS4_
__ZN3WTF6VectorINS_6RefPtrIN7WebCore9AttributeEEELm0EE14expandCapacityEm
__ZN3WTF6VectorINS_6RefPtrIN7WebCore9AttributeEEELm0EE15reserveCapacityEm
__ZN7WebCore13StyledElement16attributeChangedEPNS_9AttributeEb
__ZN7WebCore15MappedAttribute17isMappedAttributeEv
__ZNK7WebCore15HTMLBodyElement10mapToEntryERKNS_13QualifiedNameERNS_20MappedAttributeEntryE
__ZNK7WebCore11HTMLElement10mapToEntryERKNS_13QualifiedNameERNS_20MappedAttributeEntryE
__ZNK7WebCore13StyledElement10mapToEntryERKNS_13QualifiedNameERNS_20MappedAttributeEntryE
__ZN7WebCore15HTMLBodyElement20parseMappedAttributeEPNS_15MappedAttributeE
__ZN7WebCore11HTMLElement20parseMappedAttributeEPNS_15MappedAttributeE
__ZN7WebCore13StyledElement20parseMappedAttributeEPNS_15MappedAttributeE
__ZN7WebCore13StyledElement18getInlineStyleDeclEv
__ZN7WebCore13StyledElement21createInlineStyleDeclEv
__ZN7WebCore26CSSMutableStyleDeclarationC1Ev
__ZN7WebCore26CSSMutableStyleDeclarationC2Ev
__ZN7WebCore8Document12elementSheetEv
__ZN7WebCore13CSSStyleSheetC1EPNS_4NodeERKNS_6StringES5_
__ZN7WebCore13CSSStyleSheetC2EPNS_4NodeERKNS_6StringES5_
__ZN7WebCore10StyleSheetC2EPNS_4NodeERKNS_6StringE
__ZNK7WebCore11HTMLElement13isHTMLElementEv
__ZN7WebCore26CSSMutableStyleDeclaration16parseDeclarationERKNS_6StringE
__ZN3WTF6VectorIN7WebCore11CSSPropertyELm0EE14shrinkCapacityEm
__ZN7WebCore9CSSParser16parseDeclarationEPNS_26CSSMutableStyleDeclarationERKNS_6StringE
__ZN7WebCore9StyleBase10stylesheetEv
__ZNK7WebCore9StyleBase12isStyleSheetEv
__ZNK7WebCore10StyleSheet12isStyleSheetEv
__ZN7WebCore9CSSParser15parseFontFamilyEv
__ZN7WebCore6StringC1EPKtj
__ZN7WebCore6StringC2EPKtj
__ZN7WebCore15FontFamilyValueC1ERKNS_6StringE
__ZN7WebCore15FontFamilyValueC2ERKNS_6StringE
__ZN7WebCore17CSSPrimitiveValueC2ERKNS_6StringENS0_9UnitTypesE
__ZN7WebCore6String8truncateEj
__ZN7WebCore26CSSMutableStyleDeclaration19addParsedPropertiesEPKPKNS_11CSSPropertyEi
__ZNK7WebCore26CSSMutableStyleDeclaration19getPropertyPriorityEi
__ZNK7WebCore26CSSMutableStyleDeclaration18findPropertyWithIdEi
__ZN7WebCore26CSSMutableStyleDeclaration14removePropertyEibb
__ZN7WebCore26CSSMutableStyleDeclaration23removeShorthandPropertyEib
__ZN7WebCore19longhandForPropertyEi
__ZN7WebCoreL16initShorthandMapERN3WTF7HashMapIiNS_19CSSPropertyLonghandENS0_7IntHashIjEENS0_10HashTraitsIiEENS5_IS2_EEEE
__ZN3WTF7HashMapIiN7WebCore19CSSPropertyLonghandENS_7IntHashIjEENS_10HashTraitsIiEENS5_IS2_EEE3setERKiRKS2_
__ZN3WTF9HashTableIiSt4pairIiN7WebCore19CSSPropertyLonghandEENS_18PairFirstExtractorIS4_EENS_7IntHashIjEENS_14PairHashTraitsINS_10HashTraitsIiEENSA_IS3_EEEESB_E6expandEv
__ZN3WTF9HashTableIiSt4pairIiN7WebCore19CSSPropertyLonghandEENS_18PairFirstExtractorIS4_EENS_7IntHashIjEENS_14PairHashTraitsINS_10HashTraitsIiEENSA_IS3_EEEESB_E13allocateTableEi
__ZN3WTF9HashTableIiSt4pairIiN7WebCore19CSSPropertyLonghandEENS_18PairFirstExtractorIS4_EENS_7IntHashIjEENS_14PairHashTraitsINS_10HashTraitsIiEENSA_IS3_EEEESB_E15deallocateTableEPS4_i
__ZN3WTF9HashTableIiSt4pairIiN7WebCore19CSSPropertyLonghandEENS_18PairFirstExtractorIS4_EENS_7IntHashIjEENS_14PairHashTraitsINS_10HashTraitsIiEENSA_IS3_EEEESB_E6rehashEi
__ZN3WTF9HashTableIiSt4pairIiN7WebCore19CSSPropertyLonghandEENS_18PairFirstExtractorIS4_EENS_7IntHashIjEENS_14PairHashTraitsINS_10HashTraitsIiEENSA_IS3_EEEESB_E4findIiNS_22IdentityHashTranslatorIiS4_S8_EEEENS_17HashTableIteratorIiS4_S6_S8_SD_SB_EERKT_
__ZNK3WTF7HashMapIiN7WebCore19CSSPropertyLonghandENS_7IntHashIjEENS_10HashTraitsIiEENS5_IS2_EEE3getERKi
__ZN7WebCore26CSSMutableStyleDeclaration18findPropertyWithIdEi
__ZN7WebCore26CSSMutableStyleDeclaration10setChangedEv
__ZN7WebCore13StyledElement24invalidateStyleAttributeEv
__ZNK7WebCore4Node13ownerDocumentEv
__ZN7WebCore16CSSStyleSelector23hasSelectorForAttributeERKNS_12AtomicStringE
__ZNK3WTF9HashTableIPN7WebCore16AtomicStringImplES3_NS_17IdentityExtractorIS3_EENS_7PtrHashIS3_EENS_10HashTraitsIS3_EES9_E8containsIS3_NS_22IdentityHashTranslatorIS3_S3_S7_EEEEbRKT_
__ZN7WebCore7Element16attributeChangedEPNS_9AttributeEb
__ZNK7WebCore8Document13axObjectCacheEv
__ZNK7WebCore8Document11topDocumentEv
__ZN7WebCoreL14divConstructorERKNS_13QualifiedNameEPNS_8DocumentEPNS_15HTMLFormElementEb
__ZN7WebCore14HTMLDivElementC1ERKNS_13QualifiedNameEPNS_8DocumentE
__ZN7WebCore14HTMLDivElementC2ERKNS_13QualifiedNameEPNS_8DocumentE
__ZN7WebCore7Element12setAttributeERKNS_12AtomicStringES3_Ri
__ZN7WebCore8Document11isValidNameERKNS_6StringE
__ZN7WebCore10StringImpl7isLowerEv
__ZNK7WebCore12NamedAttrMap16getAttributeItemERKNS_6StringEb
__ZN7WebCore7Element8updateIdERKNS_12AtomicStringES3_
__ZNK7WebCore14HTMLDivElement10mapToEntryERKNS_13QualifiedNameERNS_20MappedAttributeEntryE
__ZN7WebCore14HTMLDivElement20parseMappedAttributeEPNS_15MappedAttributeE
__ZN7WebCore7Element25dispatchAttrAdditionEventEPNS_9AttributeE
__ZNK7WebCore13QualifiedName8toStringEv
__ZN7WebCore13StyledElement22getMappedAttributeDeclENS_20MappedAttributeEntryEPNS_9AttributeE
__ZN7WebCore11HTMLElement18setContentEditableEPNS_15MappedAttributeE
__ZN7WebCore13StyledElement14addCSSPropertyEPNS_15MappedAttributeEii
__ZN7WebCore13StyledElement16createMappedDeclEPNS_15MappedAttributeE
__ZN7WebCore26CSSMutableStyleDeclarationC2EPNS_7CSSRuleE
__ZN7WebCore26CSSMutableStyleDeclaration11setPropertyEiibb
__ZN7WebCore26CSSMutableStyleDeclaration19setPropertyInternalERKNS_11CSSPropertyEPS1_
__ZN3WTF6VectorIN7WebCore11CSSPropertyELm0EE14expandCapacityEmPKS2_
__ZN3WTF6VectorIN7WebCore11CSSPropertyELm0EE14expandCapacityEm
__ZN7WebCoreeqERKNS_12AtomicStringEPKc
__ZN7WebCore10StringImpl11reverseFindEPS0_ib
__ZN7WebCore12AtomicString6removeEPNS_10StringImplE
__ZN3WTF9HashTableIPN7WebCore10StringImplES3_NS_17IdentityExtractorIS3_EENS1_10StringHashENS_10HashTraitsIS3_EES8_E47removeAndInvalidateWithoutEntryConsistencyCheckEPS3_
__ZN3WTF9HashTableIPN7WebCore10StringImplES3_NS_17IdentityExtractorIS3_EENS1_10StringHashENS_10HashTraitsIS3_EES8_E6removeEPS3_
__ZN7WebCore13StyledElement22setMappedAttributeDeclENS_20MappedAttributeEntryEPNS_9AttributeEPNS_29CSSMappedAttributeDeclarationE
__ZN3WTF7HashMapIN7WebCore18MappedAttributeKeyEPNS1_29CSSMappedAttributeDeclarationENS1_19MappedAttributeHashENS1_24MappedAttributeKeyTraitsENS_10HashTraitsIS4_EEE3setERKS2_RKS4_
__ZN3WTF9HashTableIN7WebCore18MappedAttributeKeyESt4pairIS2_PNS1_29CSSMappedAttributeDeclarationEENS_18PairFirstExtractorIS6_EENS1_19MappedAttributeHashENS_14PairHashTraitsINS1_24MappedAttributeKeyTraitsENS_10HashTraitsIS5_EEEESB_E6expandEv
__ZN3WTF9HashTableIN7WebCore18MappedAttributeKeyESt4pairIS2_PNS1_29CSSMappedAttributeDeclarationEENS_18PairFirstExtractorIS6_EENS1_19MappedAttributeHashENS_14PairHashTraitsINS1_24MappedAttributeKeyTraitsENS_10HashTraitsIS5_EEEESB_E4findIS2_NS_22IdentityHashTranslatorIS2_S6_S9_EEEENS_17HashTableIteratorIS2_S6_S8_S9_SE_SB_EERKT_
__ZN3WTF9HashTableIN7WebCore18MappedAttributeKeyESt4pairIS2_PNS1_29CSSMappedAttributeDeclarationEENS_18PairFirstExtractorIS6_EENS1_19MappedAttributeHashENS_14PairHashTraitsINS1_24MappedAttributeKeyTraitsENS_10HashTraitsIS5_EEEESB_E15deallocateTableEPS6_i
__ZN3WTF9HashTableIN7WebCore18MappedAttributeKeyESt4pairIS2_PNS1_29CSSMappedAttributeDeclarationEENS_18PairFirstExtractorIS6_EENS1_19MappedAttributeHashENS_14PairHashTraitsINS1_24MappedAttributeKeyTraitsENS_10HashTraitsIS5_EEEESB_E13allocateTableEi
__ZN3WTF9HashTableIN7WebCore18MappedAttributeKeyESt4pairIS2_PNS1_29CSSMappedAttributeDeclarationEENS_18PairFirstExtractorIS6_EENS1_19MappedAttributeHashENS_14PairHashTraitsINS1_24MappedAttributeKeyTraitsENS_10HashTraitsIS5_EEEESB_E6rehashEi
__ZN3WTF9HashTableIN7WebCore18MappedAttributeKeyESt4pairIS2_PNS1_29CSSMappedAttributeDeclarationEENS_18PairFirstExtractorIS6_EENS1_19MappedAttributeHashENS_14PairHashTraitsINS1_24MappedAttributeKeyTraitsENS_10HashTraitsIS5_EEEESB_E6removeEPS6_
__ZN3WTF9HashTableIN7WebCore18MappedAttributeKeyESt4pairIS2_PNS1_29CSSMappedAttributeDeclarationEENS_18PairFirstExtractorIS6_EENS1_19MappedAttributeHashENS_14PairHashTraitsINS1_24MappedAttributeKeyTraitsENS_10HashTraitsIS5_EEEESB_E47removeAndInvalidateWithoutEntryConsistencyCheckEPS6_
__ZN7WebCore19MappedAttributeHash4hashERKNS_18MappedAttributeKeyE
__ZN7WebCore8Document14addElementByIdERKNS_12AtomicStringEPNS_7ElementE
__ZNK3WTF9HashTableIPN7WebCore16AtomicStringImplESt4pairIS3_jENS_18PairFirstExtractorIS5_EENS_7PtrHashIS3_EENS_14PairHashTraitsINS_10HashTraitsIS3_EENSB_IjEEEESC_E8containsIS3_NS_22IdentityHashTranslatorIS3_S5_S9_EEEEbRKT_
__ZN3WTF7HashMapIPN7WebCore16AtomicStringImplEPNS1_7ElementENS_7PtrHashIS3_EENS_10HashTraitsIS3_EENS8_IS5_EEE3addERKS3_RKS5_
__ZN3WTF9HashTableIPN7WebCore16AtomicStringImplESt4pairIS3_PNS1_7ElementEENS_18PairFirstExtractorIS7_EENS_7PtrHashIS3_EENS_14PairHashTraitsINS_10HashTraitsIS3_EENSD_IS6_EEEESE_E6expandEv
__ZN3WTF9HashTableIPN7WebCore16AtomicStringImplESt4pairIS3_PNS1_7ElementEENS_18PairFirstExtractorIS7_EENS_7PtrHashIS3_EENS_14PairHashTraitsINS_10HashTraitsIS3_EENSD_IS6_EEEESE_E4findIS3_NS_22IdentityHashTranslatorIS3_S7_SB_EEEENS_17HashTableIteratorIS3_S7_S9_SB_SG_SE_EERKT_
__ZN3WTF9HashTableIPN7WebCore16AtomicStringImplESt4pairIS3_PNS1_7ElementEENS_18PairFirstExtractorIS7_EENS_7PtrHashIS3_EENS_14PairHashTraitsINS_10HashTraitsIS3_EENSD_IS6_EEEESE_E15deallocateTableEPS7_i
__ZN3WTF9HashTableIPN7WebCore16AtomicStringImplESt4pairIS3_PNS1_7ElementEENS_18PairFirstExtractorIS7_EENS_7PtrHashIS3_EENS_14PairHashTraitsINS_10HashTraitsIS3_EENSD_IS6_EEEESE_E13allocateTableEi
__ZN3WTF9HashTableIPN7WebCore16AtomicStringImplESt4pairIS3_PNS1_7ElementEENS_18PairFirstExtractorIS7_EENS_7PtrHashIS3_EENS_14PairHashTraitsINS_10HashTraitsIS3_EENSD_IS6_EEEESE_E6rehashEi
__ZN3WTF9HashTableIPN7WebCore16AtomicStringImplESt4pairIS3_PNS1_7ElementEENS_18PairFirstExtractorIS7_EENS_7PtrHashIS3_EENS_14PairHashTraitsINS_10HashTraitsIS3_EENSD_IS6_EEEESE_E6removeEPS7_
__ZN3WTF9HashTableIPN7WebCore16AtomicStringImplESt4pairIS3_PNS1_7ElementEENS_18PairFirstExtractorIS7_EENS_7PtrHashIS3_EENS_14PairHashTraitsINS_10HashTraitsIS3_EENSD_IS6_EEEESE_E47removeAndInvalidateWithoutEntryConsistencyCheckEPS7_
__ZNK7WebCore7Element14getIDAttributeEv
__ZNK7WebCore18NamedMappedAttrMap19hasMappedAttributesEv
__ZNK3WTF7HashMapIN7WebCore18MappedAttributeKeyEPNS1_29CSSMappedAttributeDeclarationENS1_19MappedAttributeHashENS1_24MappedAttributeKeyTraitsENS_10HashTraitsIS4_EEE3getERKS2_
__ZN7WebCore7DataRefINS_22StyleRareInheritedDataEE6accessEv
__ZN7WebCore22StyleRareInheritedDataC1ERKS0_
__ZN7WebCore22StyleRareInheritedDataC2ERKS0_
__ZNK7WebCore5Frame6editorEv
__ZNK7WebCore6Editor6clientEv
_WebThreadPostNotification
_WebThreadCreateNSInvocation
__ZL19SendDelegateMessageP12NSInvocation
_WebThreadIsCurrent
__ZL25MainThreadAdoptAndReleaseP11objc_object
_WebThreadIsEnabled
__ZNK7WebCore8Document16isPluginDocumentEv
__ZNK7WebCore8Document15isImageDocumentEv
+[WebScriptObject initialize]
+[DOMDocument(WebCoreInternal) _wrapDocument:]
+[DOMNode(WebCoreInternal) _wrapNode:]
__ZN7WebCore13getDOMWrapperEP17DOMObjectInternal
__ZN7WebCoreL16wrapperCacheLockEv
-[DOMNode(WebCoreInternal) _initWithNode:]
-[DOMObject(WebCoreInternal) _init]
-[WebScriptObject(WebScriptObjectInternal) _init]
__ZN7WebCore13addDOMWrapperEP8NSObjectP17DOMObjectInternal
__ZN7WebCore18createWrapperCacheEv
-[DOMDocument getElementById:]
__ZNK7WebCore8Document14getElementByIdERKNS_12AtomicStringE
__ZNK3WTF7HashMapIPN7WebCore16AtomicStringImplEPNS1_7ElementENS_7PtrHashIS3_EENS_10HashTraitsIS3_EENS8_IS5_EEE3getERKS3_
+[DOMElement(WebCoreInternal) _wrapElement:]
__ZN7WebCoreL12elementClassERKNS_13QualifiedNameEP10objc_class
__ZN7WebCoreL15addElementClassERKNS_13QualifiedNameEP10objc_class
__ZN3WTF7HashMapIPKN7WebCore13QualifiedName17QualifiedNameImplEP10objc_classNS_7PtrHashIS5_EENS_10HashTraitsIS5_EENSA_IS7_EEE3setERKS5_RKS7_
__ZN3WTF9HashTableIPKN7WebCore13QualifiedName17QualifiedNameImplESt4pairIS5_P10objc_classENS_18PairFirstExtractorIS9_EENS_7PtrHashIS5_EENS_14PairHashTraitsINS_10HashTraitsIS5_EENSF_IS8_EEEESG_E6expandEv
__ZN3WTF9HashTableIPKN7WebCore13QualifiedName17QualifiedNameImplESt4pairIS5_P10objc_classENS_18PairFirstExtractorIS9_EENS_7PtrHashIS5_EENS_14PairHashTraitsINS_10HashTraitsIS5_EENSF_IS8_EEEESG_E4findIS5_NS_22IdentityHashTranslatorIS5_S9_SD_EEEENS_17HashTableIteratorIS5_S9_SB_SD_SI_SG_EERKT_
__ZN3WTF9HashTableIPKN7WebCore13QualifiedName17QualifiedNameImplESt4pairIS5_P10objc_classENS_18PairFirstExtractorIS9_EENS_7PtrHashIS5_EENS_14PairHashTraitsINS_10HashTraitsIS5_EENSF_IS8_EEEESG_E15deallocateTableEPS9_i
__ZN3WTF9HashTableIPKN7WebCore13QualifiedName17QualifiedNameImplESt4pairIS5_P10objc_classENS_18PairFirstExtractorIS9_EENS_7PtrHashIS5_EENS_14PairHashTraitsINS_10HashTraitsIS5_EENSF_IS8_EEEESG_E13allocateTableEi
__ZN3WTF9HashTableIPKN7WebCore13QualifiedName17QualifiedNameImplESt4pairIS5_P10objc_classENS_18PairFirstExtractorIS9_EENS_7PtrHashIS5_EENS_14PairHashTraitsINS_10HashTraitsIS5_EENSF_IS8_EEEESG_E6rehashEi
__ZNK3WTF7HashMapIPKN7WebCore13QualifiedName17QualifiedNameImplEP10objc_classNS_7PtrHashIS5_EENS_10HashTraitsIS5_EENSA_IS7_EEE3getERKS5_
__ZN7WebCore15FocusController9setActiveEb
__ZN7WebCore15FocusController18focusedOrMainFrameEv
__ZN7WebCore19SelectionController21pageActivationChangedEv
__ZN7WebCore19SelectionController27focusedOrActiveStateChangedEv
__ZN7WebCore5Frame14clearSelectionEv
__ZN7WebCore19SelectionController12setSelectionERKNS_9SelectionEbbb
__ZN7WebCore13TypingCommand11closeTypingEPNS_11EditCommandE
__ZN7WebCore13TypingCommand26isOpenForMoreTypingCommandEPKNS_11EditCommandE
__ZN7WebCore5Frame16clearTypingStyleEv
__ZN7WebCore5Frame15setCaretVisibleEb
__ZNK7WebCore8Document32useSecureKeyboardEntryWhenActiveEv
__ZN7WebCore9FrameView20setCanHaveScrollbarsEb
__ZN7WebCore10ScrollView20setCanHaveScrollbarsEb
-[WAKView dealloc]
+[WAKView _removeViewWrapper:]
__WKViewSetViewContext
-[NSString(WebStringDrawing) _web_sizeInRect:withFont:ellipsis:lineSpacing:]
-[NSString(WebStringDrawing) _web_drawInRect:withFont:ellipsis:alignment:lineSpacing:includeEmoji:measureOnly:]
__ZN7WebCore21nextBreakablePositionEPKtiib
-[NSString(WebStringDrawing) _web_drawInRect:withFont:ellipsis:alignment:lineSpacing:includeEmoji:]
__ZN7WebCore15StringTruncator15rightClipToWordERKNS_6StringEfRKNS_4FontEbRf
__ZN7WebCoreL10timerFiredEP16__CFRunLoopTimerPv
__ZN7WebCore9TimerBase16sharedTimerFiredEv
__ZN7WebCore9TimerBase19collectFiringTimersEdRN3WTF6VectorIPS0_Lm0EEE
__ZN3WTF7HashSetIPKN7WebCore9TimerBaseENS_7PtrHashIS4_EENS_10HashTraitsIS4_EEE3addERKS4_
__ZN3WTF9HashTableIPKN7WebCore9TimerBaseES4_NS_17IdentityExtractorIS4_EENS_7PtrHashIS4_EENS_10HashTraitsIS4_EESA_E6expandEv
__ZN3WTF9HashTableIPKN7WebCore9TimerBaseES4_NS_17IdentityExtractorIS4_EENS_7PtrHashIS4_EENS_10HashTraitsIS4_EESA_E6rehashEi
__ZN3WTF9HashTableIPKN7WebCore9TimerBaseES4_NS_17IdentityExtractorIS4_EENS_7PtrHashIS4_EENS_10HashTraitsIS4_EESA_E13allocateTableEi
__ZN3WTF9HashTableIPKN7WebCore9TimerBaseES4_NS_17IdentityExtractorIS4_EENS_7PtrHashIS4_EENS_10HashTraitsIS4_EESA_E15deallocateTableEPS4_i
__ZN7WebCore9TimerBase10heapPopMinEv
__ZSt13__adjust_heapIN7WebCore17TimerHeapIteratorEiNS0_16TimerHeapElementEEvT_T0_S4_T1_
__ZN3WTF6VectorIPN7WebCore9TimerBaseELm0EE6shrinkEm
__ZN7WebCore9TimerBase10fireTimersEdRKN3WTF6VectorIPS0_Lm0EEE
__ZNK3WTF9HashTableIPKN7WebCore9TimerBaseES4_NS_17IdentityExtractorIS4_EENS_7PtrHashIS4_EENS_10HashTraitsIS4_EESA_E8containsIS4_NS_22IdentityHashTranslatorIS4_S4_S8_EEEEbRKT_
__ZN3WTF9HashTableIPKN7WebCore9TimerBaseES4_NS_17IdentityExtractorIS4_EENS_7PtrHashIS4_EENS_10HashTraitsIS4_EESA_E4findIS4_NS_22IdentityHashTranslatorIS4_S4_S8_EEEENS_17HashTableIteratorIS4_S4_S6_S8_SA_SA_EERKT_
__ZN3WTF9HashTableIPKN7WebCore9TimerBaseES4_NS_17IdentityExtractorIS4_EENS_7PtrHashIS4_EENS_10HashTraitsIS4_EESA_E47removeAndInvalidateWithoutEntryConsistencyCheckEPS4_
__ZN3WTF9HashTableIPKN7WebCore9TimerBaseES4_NS_17IdentityExtractorIS4_EENS_7PtrHashIS4_EENS_10HashTraitsIS4_EESA_E6removeEPS4_
__ZN7WebCore5TimerINS_9FrameViewEE5firedEv
__ZN7WebCore9FrameView16layoutTimerFiredEPNS_5TimerIS0_EE
__ZN7WebCore9FrameView6layoutEb
__ZNK7WebCore16CSSStyleSelector24affectedByViewportChangeEv
__ZNK7WebCore5Frame18needsReapplyStylesEv
__ZN7WebCore7Element11recalcStyleENS_4Node11StyleChangeE
_WKObservingContentChanges
__ZNK7WebCore8CSSValue16isPrimitiveValueEv
__ZNK7WebCore12CSSValueList12cssValueTypeEv
__ZNK7WebCore12CSSValueList11isValueListEv
__ZN7WebCore11RenderStyle18setFontDescriptionERKNS_15FontDescriptionE
__ZN7WebCore16CSSStyleSelector10updateFontEv
__ZN7WebCore16CSSStyleSelector22checkForTextSizeAdjustEv
__ZN7WebCore16CSSStyleSelector27checkForGenericFamilyChangeEPNS_11RenderStyleES2_
__ZN7WebCore16CSSStyleSelector18checkForZoomChangeEPNS_11RenderStyleES2_
__ZNK7WebCore11RenderStyle21contentDataEquivalentEPKS0_
__ZNK7WebCore11RenderStyleeqERKS0_
__ZNK7WebCore11RenderStyle17inheritedNotEqualEPS0_
__ZN7WebCore4Node14setRenderStyleEN3WTF10PassRefPtrINS_11RenderStyleEEE
__ZNK7WebCore11RenderStyle4diffEPKS0_Rj
__ZN7WebCore12RenderObject7repaintEb
__ZNK7WebCore10RenderView8printingEv
__ZNK7WebCore12RenderObject19containerForRepaintEv
__ZN7WebCore9RenderBox29clippedOverflowRectForRepaintEPS0_
__ZNK7WebCore11RenderBlock12overflowRectEb
__ZNK7WebCore11RenderBlock12overflowLeftEb
__ZNK7WebCore11RenderBlock11overflowTopEb
__ZNK7WebCore11RenderBlock13overflowWidthEb
__ZNK7WebCore11RenderBlock14overflowHeightEb
__ZN7WebCore10RenderView21computeRectForRepaintEPNS_9RenderBoxERNS_7IntRectEb
__ZN7WebCore12RenderObject21repaintUsingContainerEPNS_9RenderBoxERKNS_7IntRectEb
__ZN7WebCore10RenderView20repaintViewRectangleERKNS_7IntRectEb
__ZNK7WebCore10RenderView13shouldRepaintERKNS_7IntRectE
__ZN7WebCore11RenderStyleD1Ev
__ZN7WebCore11RenderStyleD2Ev
__ZNK7WebCore22StyleRareInheritedData20shadowDataEquivalentERKS0_
__ZNK7WebCore4FonteqERKS0_
__ZN7WebCore22StyleRareInheritedDataD1Ev
__ZN7WebCore22StyleRareInheritedDataD2Ev
__ZN3WTF9HashTableIPN7WebCore8DocumentES3_NS_17IdentityExtractorIS3_EENS_7PtrHashIS3_EENS_10HashTraitsIS3_EES9_E4findIS3_NS_22IdentityHashTranslatorIS3_S3_S7_EEEENS_17HashTableIteratorIS3_S3_S5_S7_S9_S9_EERKT_
__ZN3WTF9HashTableIPN7WebCore8DocumentES3_NS_17IdentityExtractorIS3_EENS_7PtrHashIS3_EENS_10HashTraitsIS3_EES9_E47removeAndInvalidateWithoutEntryConsistencyCheckEPS3_
__ZN3WTF9HashTableIPN7WebCore8DocumentES3_NS_17IdentityExtractorIS3_EENS_7PtrHashIS3_EENS_10HashTraitsIS3_EES9_E6removeEPS3_
__ZN7WebCore9FrameView23applyOverflowToViewportEPNS_12RenderObjectERNS_13ScrollbarModeES4_
__ZN7WebCore10ScrollView23setScrollbarsSuppressedEbb
__ZN7WebCore10ScrollView31platformSetScrollbarsSuppressedEb
-[WAKScrollView setScrollBarsSuppressed:repaintOnUnsuppress:]
__ZNK7WebCore6Widget9frameRectEv
__ZNK7WebCore6Widget12getOuterViewEv
-[WAKView frame]
_WKViewGetFrame
_WKViewConvertRectToSuperview
__ZL19_WKViewGetTransformP6WKView
__ZN7WebCore16enclosingIntRectERK6CGRect
__ZNK7WebCore10ScrollView11layoutWidthEv
__ZNK7WebCore10ScrollView18visibleContentRectEb
__ZNK7WebCore10ScrollView26platformVisibleContentRectEb
-[WAKScrollView documentVisibleRect]
_WKClipViewGetDocumentVisibleRect
_WKViewConvertRectFromSuperview
__ZNK7WebCore10ScrollView12layoutHeightEv
__ZN7WebCore9FrameView20pauseScheduledEventsEv
__ZN7WebCore9FrameView21beginDeferredRepaintsEv
__ZN7WebCore10RenderView6layoutEv
__ZNK7WebCore10RenderView9viewWidthEv
__ZNK7WebCore10RenderView10viewHeightEv
__ZN7WebCore11RenderBlock6layoutEv
__ZN7WebCore11RenderBlock11layoutBlockEb
__ZN7WebCore11RenderBlock27layoutOnlyPositionedObjectsEv
__ZNK7WebCore11RenderBlock18desiredColumnWidthEv
__ZNK7WebCore9RenderBox11clientWidthEv
__ZNK7WebCore9RenderBox10borderLeftEv
__ZNK7WebCore9RenderBox11borderRightEv
__ZNK7WebCore9RenderBox22verticalScrollbarWidthEv
__ZNK7WebCore9RenderBox11paddingLeftEb
__ZNK7WebCore9RenderBox12paddingRightEb
__ZN7WebCore10RenderView9calcWidthEv
__ZN7WebCore11RenderBlock15calcColumnWidthEv
__ZN7WebCore11RenderBlock29setDesiredColumnCountAndWidthEii
__ZN7WebCore11RenderBlock11clearFloatsEv
__ZNK7WebCore11RenderBlock12avoidsFloatsEv
__ZNK7WebCore12RenderObject12avoidsFloatsEv
__ZNK7WebCore12RenderObject4isHREv
__ZN7WebCore11RenderBlock19layoutBlockChildrenEbRi
__ZNK7WebCore9RenderBox9borderTopEv
__ZNK7WebCore9RenderBox10paddingTopEb
__ZNK7WebCore9RenderBox12borderBottomEv
__ZNK7WebCore9RenderBox13paddingBottomEb
__ZNK7WebCore9RenderBox25horizontalScrollbarHeightEv
__ZN7WebCore11RenderBlock10MarginInfoC1EPS0_ii
__ZN7WebCore11RenderBlock10MarginInfoC2EPS0_ii
__ZN7WebCore11RenderBlock12layoutLegendEb
__ZN7WebCore11RenderBlock18handleSpecialChildEPNS_9RenderBoxERKNS0_10MarginInfoERb
__ZN7WebCore11RenderBlock21handlePositionedChildEPNS_9RenderBoxERKNS0_10MarginInfoERb
__ZN7WebCore11RenderBlock19handleFloatingChildEPNS_9RenderBoxERKNS0_10MarginInfoERb
__ZN7WebCore11RenderBlock16handleRunInChildEPNS_9RenderBoxERb
__ZN7WebCore9RenderBox19calcVerticalMarginsEv
__ZNK7WebCore12RenderObject15containingBlockEv
__ZNK7WebCore12RenderObject10isFrameSetEv
__ZNK7WebCore12RenderObject7isMediaEv
__ZNK7WebCore12RenderObject14isSVGContainerEv
__ZN7WebCore11RenderBlock24estimateVerticalPositionEPNS_9RenderBoxERKNS0_10MarginInfoE
__ZNK7WebCore11RenderBlock11floatBottomEv
__ZN7WebCore9RenderBox9calcWidthEv
__ZNK7WebCore9FrameView10layoutRootEb
__ZNK7WebCore12RenderObject13isFlexibleBoxEv
__ZNK7WebCore9RenderBox29shouldCalculateSizeAsReplacedEv
__ZNK7WebCore9RenderBox20containingBlockWidthEv
__ZNK7WebCore12RenderObject19shrinkToAvoidFloatsEv
__ZNK7WebCore11RenderBlock14availableWidthEv
__ZN7WebCore9RenderBox14calcWidthUsingENS_9WidthTypeEi
__ZNK7WebCore9RenderBox21sizesToIntrinsicWidthENS_9WidthTypeE
__ZNK7WebCore11RenderBlock26isInlineBlockOrInlineTableEv
__ZNK7WebCore9RenderBox18calcBorderBoxWidthEi
__ZNK7WebCore9RenderBox28stretchesToMinIntrinsicWidthEv
__ZN3WTF9HashTableIPN7WebCore12RenderObjectESt4pairIS3_PNS1_11RenderBlock14FloatingObjectEENS_18PairFirstExtractorIS8_EENS_7PtrHashIS3_EENS_14PairHashTraitsINS_10HashTraitsIS3_EENSE_IS7_EEEESF_E15deallocateTableEPS8_i
__ZN3WTF9HashTableIPN7WebCore12RenderObjectESt4pairIS3_PNS1_11RenderBlock14FloatingObjectEENS_18PairFirstExtractorIS8_EENS_7PtrHashIS3_EENS_14PairHashTraitsINS_10HashTraitsIS3_EENSE_IS7_EEEESF_E13allocateTableEi
__ZN3WTF9HashTableIPN7WebCore12RenderObjectESt4pairIS3_PNS1_11RenderBlock14FloatingObjectEENS_18PairFirstExtractorIS8_EENS_7PtrHashIS3_EENS_14PairHashTraitsINS_10HashTraitsIS3_EENSE_IS7_EEEESF_E6rehashEi
__ZN3WTF9HashTableIPN7WebCore12RenderObjectESt4pairIS3_PNS1_11RenderBlock14FloatingObjectEENS_18PairFirstExtractorIS8_EENS_7PtrHashIS3_EENS_14PairHashTraitsINS_10HashTraitsIS3_EENSE_IS7_EEEESF_E6removeEPS8_
__ZN3WTF9HashTableIPN7WebCore12RenderObjectESt4pairIS3_PNS1_11RenderBlock14FloatingObjectEENS_18PairFirstExtractorIS8_EENS_7PtrHashIS3_EENS_14PairHashTraitsINS_10HashTraitsIS3_EENSE_IS7_EEEESF_E47removeAndInvalidateWithoutEntryConsistencyCheckEPS8_
__ZN3WTF9HashTableIPN7WebCore12RenderObjectESt4pairIS3_PNS1_11RenderBlock14FloatingObjectEENS_18PairFirstExtractorIS8_EENS_7PtrHashIS3_EENS_14PairHashTraitsINS_10HashTraitsIS3_EENSE_IS7_EEEESF_E6expandEv
__ZN3WTF9HashTableIPN7WebCore12RenderObjectESt4pairIS3_PNS1_11RenderBlock14FloatingObjectEENS_18PairFirstExtractorIS8_EENS_7PtrHashIS3_EENS_14PairHashTraitsINS_10HashTraitsIS3_EENSE_IS7_EEEESF_E4findIS3_NS_22IdentityHashTranslatorIS3_S8_SC_EEEENS_17HashTableIteratorIS3_S8_SA_SC_SH_SF_EERKT_
__ZNK7WebCore11RenderBlock12maxTopMarginEb
__ZN3WTF20deleteAllPairSecondsIPN7WebCore11RenderBlock14FloatingObjectEKNS_7HashMapIPNS1_12RenderObjectES4_NS_7PtrHashIS7_EENS_10HashTraitsIS7_EENSA_IS4_EEEEEEvRT0_
__ZN7WebCore11RenderBlock29markLinesDirtyInVerticalRangeEii
__ZN7WebCore11RenderBlock20layoutInlineChildrenEbRiS1_
__ZN7WebCore10RenderFlow15deleteLineBoxesEv
__ZN7WebCore11RenderBlock21checkLinesForOverflowEv
__ZNK7WebCore11RenderBlock14hasLineIfEmptyEv
__ZNK7WebCore11HTMLElement17isContentEditableEv
__ZNK7WebCore5Frame17isContentEditableEv
__ZNK7WebCore5Frame19embeddedEditingModeEv
__ZNK7WebCore6Editor16clientIsEditableEv
__ZNK7WebCore8Document12inDesignModeEv
__ZN7WebCore8Document15updateRenderingEv
__ZNK7WebCore4Node19rootEditableElementEv
__ZNK7WebCore11RenderBlock10lineHeightEbb
__ZNK7WebCore10RenderFlow10lineHeightEbb
__ZNK7WebCore12RenderObject10lineHeightEbb
__ZN7WebCore9FontCache11getFontDataERKNS_4FontERiPNS_12FontSelectorE
__ZN7WebCore15CSSFontSelector11getFontDataERKNS_15FontDescriptionERKNS_12AtomicStringE
__ZN7WebCore9FontCache25getCachedFontPlatformDataERKNS_15FontDescriptionERKNS_12AtomicStringEb
__ZN7WebCore9FontCache12platformInitEv
__ZN3WTF9HashTableIN7WebCore24FontPlatformDataCacheKeyESt4pairIS2_PNS1_16FontPlatformDataEENS_18PairFirstExtractorIS6_EENS1_28FontPlatformDataCacheKeyHashENS_14PairHashTraitsINS1_30FontPlatformDataCacheKeyTraitsENS_10HashTraitsIS5_EEEESB_E4findIS2_NS_22IdentityHashTranslatorIS2_S6_S9_EEEENS_17HashTableIteratorIS2_S6_S8_S9_SE_SB_EERKT_
__ZN3WTF9HashTableIN7WebCore24FontPlatformDataCacheKeyESt4pairIS2_PNS1_16FontPlatformDataEENS_18PairFirstExtractorIS6_EENS1_28FontPlatformDataCacheKeyHashENS_14PairHashTraitsINS1_30FontPlatformDataCacheKeyTraitsENS_10HashTraitsIS5_EEEESB_E47removeAndInvalidateWithoutEntryConsistencyCheckEPS6_
__ZN3WTF9HashTableIN7WebCore24FontPlatformDataCacheKeyESt4pairIS2_PNS1_16FontPlatformDataEENS_18PairFirstExtractorIS6_EENS1_28FontPlatformDataCacheKeyHashENS_14PairHashTraitsINS1_30FontPlatformDataCacheKeyTraitsENS_10HashTraitsIS5_EEEESB_E13allocateTableEi
__ZN3WTF9HashTableIN7WebCore24FontPlatformDataCacheKeyESt4pairIS2_PNS1_16FontPlatformDataEENS_18PairFirstExtractorIS6_EENS1_28FontPlatformDataCacheKeyHashENS_14PairHashTraitsINS1_30FontPlatformDataCacheKeyTraitsENS_10HashTraitsIS5_EEEESB_E15deallocateTableEPS6_i
__ZN3WTF9HashTableIN7WebCore24FontPlatformDataCacheKeyESt4pairIS2_PNS1_16FontPlatformDataEENS_18PairFirstExtractorIS6_EENS1_28FontPlatformDataCacheKeyHashENS_14PairHashTraitsINS1_30FontPlatformDataCacheKeyTraitsENS_10HashTraitsIS5_EEEESB_E6rehashEi
__ZN3WTF9HashTableIN7WebCore24FontPlatformDataCacheKeyESt4pairIS2_PNS1_16FontPlatformDataEENS_18PairFirstExtractorIS6_EENS1_28FontPlatformDataCacheKeyHashENS_14PairHashTraitsINS1_30FontPlatformDataCacheKeyTraitsENS_10HashTraitsIS5_EEEESB_E6removeEPS6_
__ZN3WTF9HashTableIN7WebCore24FontPlatformDataCacheKeyESt4pairIS2_PNS1_16FontPlatformDataEENS_18PairFirstExtractorIS6_EENS1_28FontPlatformDataCacheKeyHashENS_14PairHashTraitsINS1_30FontPlatformDataCacheKeyTraitsENS_10HashTraitsIS5_EEEESB_E6expandEv
__ZN7WebCore9FontCache22createFontPlatformDataERKNS_15FontDescriptionERKNS_12AtomicStringE
__ZN7WebCore17equalIgnoringCaseEPNS_10StringImplES1_
+[WebFontCache createFontWithFamily:traits:weight:size:]
__ZN7WebCore16FontPlatformData7setFontEP8__GSFont
__ZNK7WebCore14SimpleFontData9isLoadingEv
__ZN7WebCore11RenderBlock13layoutColumnsEi
__ZN7WebCore9RenderBox10calcHeightEv
__ZNK7WebCore12RenderObject7isTableEv
__ZN7WebCore9RenderBox15calcHeightUsingERKNS_6LengthE
__ZNK7WebCore9RenderBox19calcBorderBoxHeightEi
__ZN7WebCore11RenderBlock23layoutPositionedObjectsEb
__ZN7WebCore11RenderBlock18positionListMarkerEv
__ZNK7WebCore12RenderObject14hasControlClipEv
__ZN7WebCore11RenderBlock15collapseMarginsEPNS_9RenderBoxERNS0_10MarginInfoEi
__ZNK7WebCore11RenderBlock21isSelfCollapsingBlockEv
__ZNK7WebCore11RenderBlock16isTopMarginQuirkEv
__ZN7WebCore11RenderBlock16setMaxTopMarginsEii
__ZNK7WebCore11RenderBlock15maxBottomMarginEb
__ZN7WebCore11RenderBlock19clearFloatsIfNeededEPNS_9RenderBoxERNS0_10MarginInfoEii
__ZN7WebCore11RenderBlock13getClearDeltaEPNS_9RenderBoxE
__ZN7WebCore11RenderBlock14containsFloatsEv
__ZN7WebCore11RenderBlock27determineHorizontalPositionEPNS_9RenderBoxE
__ZN7WebCore11RenderBlock20addOverhangingFloatsEPS0_iib
__ZNK7WebCore12RenderObject27checkForRepaintDuringLayoutEv
__ZN7WebCore11RenderBlock19handleBottomOfBlockEiiRNS0_10MarginInfoE
__ZN7WebCore11RenderBlock24setCollapsedBottomMarginERKNS0_10MarginInfoE
__ZN7WebCore11RenderBlock19setMaxBottomMarginsEii
__ZNK7WebCore11RenderBlock9floatRectEv
__ZN7WebCore11RenderBlock17addVisualOverflowERKNS_7IntRectE
__ZN7WebCore10RenderView10calcHeightEv
__ZN7WebCore11RenderBlock16setOverflowWidthEi
__ZN7WebCore11RenderBlock17setOverflowHeightEi
__ZNK7WebCore10RenderView8docWidthEv
__ZNK7WebCore11RenderBlock17rightmostPositionEbb
__ZNK7WebCore10RenderFlow10hasColumnsEv
__ZNK7WebCore12RenderObject14isRenderInlineEv
__ZNK7WebCore10RenderView9docHeightEv
__ZNK7WebCore11RenderBlock14lowestPositionEbb
__ZNK7WebCore5Frame11visibleSizeEv
__ZN7WebCore9FrameView19endDeferredRepaintsEv
__ZNK7WebCore9FrameView28adjustedDeferredRepaintDelayEv
__ZN7WebCore9FrameView18doDeferredRepaintsEv
__ZNK7WebCore10ScrollView11isOffscreenEv
__ZNK7WebCore10ScrollView19platformIsOffscreenEv
-[WAKView window]
+[WAKWindow _wrapperForWindowRef:]
__ZN7WebCore9FrameView26updateDeferredRepaintDelayEv
__ZN7WebCore9DocLoader12requestCountEv
__ZN7WebCore5Frame19invalidateSelectionEv
__ZN7WebCore19SelectionController14setNeedsLayoutEb
__ZN7WebCore9FrameView14adjustViewSizeEv
__ZN7WebCore9FrameView15setContentsSizeERKNS_7IntSizeE
__ZN7WebCore10ScrollView15setContentsSizeERKNS_7IntSizeE
__ZNK7WebCore10ScrollView12contentsSizeEv
__ZNK7WebCore10ScrollView20platformContentsSizeEv
__ZNK7WebCore10ScrollView12documentViewEv
__ZN7WebCore10ScrollView23platformSetContentsSizeEv
-[WAKView setBoundsSize:]
_WKViewSetBoundsSize
-[WAKView frameSizeChanged]
__WKViewAdjustScrollers
__WKViewParentScrollView
_WKGetClassInfo
_WKScrollViewAdjustScrollers
_WKScrollViewTile
_WKViewSetFrameSize
__WKViewAutoresize
__ZL34_WKViewRecursivelyInvalidateGStateP6WKView
__ZL24invalidateGStateCallbackP6WKView
-[WAKView invalidateGState]
__WKScrollViewDocumentScrolledLength
_WKScrollViewGetDocumentView
__WKScrollViewSetDocumentViewOrigin
__ZNK7WebCore6Chrome19contentsSizeChangedEPNS_5FrameERKNS_7IntSizeE
__ZN7WebCore11RenderLayer20updateLayerPositionsEbb
__ZN7WebCore11RenderLayer19updateLayerPositionEv
__ZN7WebCore11RenderLayer14clearClipRectsEv
__ZNK7WebCore11RenderLayer20convertToLayerCoordsEPKS0_RiS3_
__ZN7WebCore11RenderLayer24positionOverflowControlsEii
__ZNK7WebCore9RenderBox23outlineBoundsForRepaintEPS0_
__ZNK7WebCore9RenderBox17borderBoundingBoxEv
__ZNK7WebCore12RenderObject29adjustRectForOutlineAndShadowERNS_7IntRectE
__ZNK7WebCore10RenderFlow19virtualContinuationEv
__ZN7WebCore9FloatRectC1ERKNS_7IntRectE
__ZN7WebCore9FloatRectC2ERKNS_7IntRectE
__ZN7WebCore10FloatPointC1ERKNS_8IntPointE
__ZN7WebCore10FloatPointC2ERKNS_8IntPointE
__ZN7WebCore9FloatSizeC1ERKNS_7IntSizeE
__ZN7WebCore9FloatSizeC2ERKNS_7IntSizeE
__ZNK7WebCore12RenderObject20localToContainerQuadERKNS_9FloatQuadEPNS_9RenderBoxEb
__ZNK7WebCore10RenderView19mapLocalToContainerEPNS_9RenderBoxEbbRNS_14TransformStateE
__ZN7WebCore14TransformState7flattenEv
__ZNK7WebCore9FloatQuad11boundingBoxEv
__ZN7WebCore16enclosingIntRectERKNS_9FloatRectE
__ZNK7WebCore11RenderLayer29subtractScrolledContentOffsetERiS1_
__ZN7WebCore9RenderBox21computeRectForRepaintEPS0_RNS_7IntRectEb
__ZNK7WebCore11RenderBlock11isBlockFlowEv
__ZNK7WebCore9RenderBox19mapLocalToContainerEPS0_bbRNS_14TransformStateE
__ZNK7WebCore9RenderBox19offsetFromContainerEPNS_12RenderObjectE
__ZN7WebCore14TransformState4moveEiib
__ZN7WebCore21RenderLayerCompositor23updateRootLayerPositionEv
__ZNK7WebCore11FrameLoader15firstLayoutDoneEv
__ZN7WebCore5Frame9didLayoutEbd
_WebThreadCallDelegate
__ZNK7WebCore9FrameView15useSlowRepaintsEv
__ZN7WebCore10ScrollView18setCanBlitOnScrollEb
__ZN7WebCore10ScrollView26platformSetCanBlitOnScrollEb
-[WAKScrollView contentView]
-[WAKClipView setCopiesOnScroll:]
_WKClipViewSetCopiesOnScroll
__ZN7WebCore9FrameView22performPostLayoutTasksEv
__ZN7WebCore11FrameLoader14didFirstLayoutEv
__ZN7WebCore21isBackForwardLoadTypeENS_13FrameLoadTypeE
__ZN7WebCore10RenderView21updateWidgetPositionsEv
__ZN7WebCore9FrameView21resumeScheduledEventsEv
__ZN7WebCore9FrameView23dispatchScheduledEventsEv
__ZN7WebCore15stopSharedTimerEv
__ZNK7WebCore14DocumentLoader11frameLoaderEv
-[WAKWindow isKeyWindow]
__ZN7WebCore19SelectionController10setFocusedEb
__ZN7WebCore5Frame20setSelectionFromNoneEv
__ZN7WebCore5Frame22clearCaretRectIfNeededEv
__ZN7WebCore19SelectionController19invalidateCaretRectEv
__ZN7WebCore15EventTargetNode19dispatchWindowEventERKNS_12AtomicStringEbb
__ZN7WebCore5EventC1ERKNS_12AtomicStringEbb
__ZN7WebCore5EventC2ERKNS_12AtomicStringEbb
__ZN7WebCore15EventTargetNode19dispatchWindowEventEN3WTF10PassRefPtrINS_5EventEEE
__ZThn32_N7WebCore15EventTargetNode14refEventTargetEv
__ZN7WebCore15EventTargetNode14refEventTargetEv
__ZN7WebCore5Event9setTargetEN3WTF10PassRefPtrINS_11EventTargetEEE
__ZN7WebCore5Event14receivedTargetEv
__ZN7WebCore8Document17handleWindowEventEPNS_5EventEb
__ZN7WebCore5EventD0Ev
__ZThn32_N7WebCore15EventTargetNode16derefEventTargetEv
__ZN7WebCore15EventTargetNode16derefEventTargetEv
_WebCoreObjCDeallocOnWebThread
_WebThreadEnable
__ZL14StartWebThreadv
__ZL12RunWebThreadPv
__ZL14WebRunLoopLockP19__CFRunLoopObservermPv
__ZL17_WebTryThreadLockb
__ZL16WebRunLoopUnlockP19__CFRunLoopObservermPv
__ZL16_WebThreadUnlockv
_WebThreadNotCurrent
_WebThreadCallAPI
__ZL15HandleAPISourcePv
__ZN7WebCore5Cache13setCapacitiesEjjj
__ZN7WebCore9pageCacheEv
__ZN7WebCore9PageCacheC1Ev
__ZN7WebCore9PageCacheC2Ev
__ZN7WebCore9PageCache11setCapacityEi
__ZN7WebCore9PageCache5pruneEv
__ZN7WebCore9PageGroup26setShouldTrackVisitedLinksEb
__ZN7WebCore9PageGroup21removeAllVisitedLinksEv
__ZN7WebCore4Page21removeAllVisitedLinksEv
__ZL18_WebThreadAutoLockv
__ZN7WebCore36InitializeLoggingChannelsIfNecessaryEv
__ZN7WebCore15DatabaseTracker7trackerEv
__ZN7WebCore15DatabaseTrackerC1Ev
__ZN7WebCore15DatabaseTrackerC2Ev
__ZN7WebCore14SQLiteDatabaseC1Ev
__ZN7WebCore14SQLiteDatabaseC2Ev
__ZN7WebCore15DatabaseTracker24setDatabaseDirectoryPathERKNS_6StringE
__ZN7WebCore15DatabaseTracker9setClientEPNS_21DatabaseTrackerClientE
__ZN7WebCore12cacheStorageEv
__ZN7WebCore23ApplicationCacheStorage17setCacheDirectoryERKNS_6StringE
__ZN7WebCore8Settings27setLocalStorageDatabasePathERKNS_6StringE
__ZL33WebCoreObjCDeallocOnWebThreadImplP11objc_objectP13objc_selector
__ZN7WebCore9FrameTree7setNameERKNS_12AtomicStringE
__ZN7WebCore5Frame4initEv
__ZN7WebCore8SVGNames4initEv
__ZN7WebCore10XLinkNames4initEv
__ZN7WebCore11FrameLoader4initEv
__ZN7WebCore11FrameLoader23setPolicyDocumentLoaderEPNS_14DocumentLoaderE
__ZN7WebCore11FrameLoader28setProvisionalDocumentLoaderEPNS_14DocumentLoaderE
__ZN7WebCore11FrameLoader8setStateENS_10FrameStateE
__ZN7WebCore11FrameLoader22provisionalLoadStartedEv
__ZNK7WebCore11FrameLoader10isCompleteEv
__ZN7WebCore11FrameLoader17cancelRedirectionEb
__ZN7WebCore11FrameLoader20stopRedirectionTimerEv
__ZN7WebCore14DocumentLoader15finishedLoadingEv
__ZN7WebCore14DocumentLoader13commitIfReadyEv
__ZN7WebCore11FrameLoader21commitProvisionalLoadEN3WTF10PassRefPtrINS_10CachedPageEEE
__ZN7WebCore11FrameLoader12canCachePageEv
__ZNK7WebCore11FrameLoader8loadTypeEv
__ZN7WebCore11FrameLoader31canCachePageContainingThisFrameEv
__ZN7WebCore11FrameLoader19closeOldDataSourcesEv
__ZN7WebCore11FrameLoader21transitionToCommittedEN3WTF10PassRefPtrINS_10CachedPageEEE
__ZN7WebCore11FrameLoader22updateHistoryForCommitEv
__ZN7WebCore11FrameLoader28updateHistoryForStandardLoadEv
__ZNK7WebCore14DocumentLoader13urlForHistoryEv
__ZNK7WebCore19ResourceRequestBase3urlEv
__ZNK7WebCore19ResourceRequestBase21updateResourceRequestEv
__ZNK7WebCore14DocumentLoader16responseMIMETypeEv
__ZNK7WebCore20ResourceResponseBase8mimeTypeEv
__ZNK7WebCore20ResourceResponseBase8lazyInitEv
__ZN7WebCore16ResourceResponse16platformLazyInitEv
__ZNK7WebCore14DocumentLoader3urlEv
__ZNK7WebCore14DocumentLoader7requestEv
__ZNK7WebCore14DocumentLoader11responseURLEv
__ZNK7WebCore20ResourceResponseBase3urlEv
__ZN7WebCore8blankURLEv
__ZN7WebCore11FrameLoader10didOpenURLERKNS_4KURLE
__ZN7WebCore6Editor20clearLastEditCommandEv
__ZN7WebCore11FrameLoader8closeURLEv
__ZN7WebCore11FrameLoader17saveDocumentStateEv
__ZN7WebCore11FrameLoader11stopLoadingEb
__ZN7WebCore6Editor23clearUndoRedoOperationsEv
__ZN7WebCore5Frame18setJSStatusBarTextERKNS_6StringE
__ZN7WebCore6Chrome16setStatusbarTextEPNS_5FrameERKNS_6StringE
__ZN7WebCore5Frame25setJSDefaultStatusBarTextERKNS_6StringE
__ZNK7WebCore4KURL10protocolIsEPKc
__ZN7WebCore11FrameLoader7startedEv
__ZN7WebCore11FrameLoader6openedEv
__ZN7WebCore11FrameLoader23finishedLoadingDocumentEPNS_14DocumentLoaderE
__ZN7WebCore14ArchiveFactory17isArchiveMimeTypeERKNS_6StringE
__ZNK3WTF9HashTableIN7WebCore6StringESt4pairIS2_PFNS_10PassRefPtrINS1_7ArchiveEEEPNS1_12SharedBufferEEENS_18PairFirstExtractorISB_EENS1_15CaseFoldingHashENS_14PairHashTraitsINS_10HashTraitsIS2_EENSG_ISA_EEEESH_E8containsIS2_NS_22IdentityHashTranslatorIS2_SB_SE_EEEEbRKT_
__ZN7WebCore11FrameLoader3endEv
__ZN7WebCore11FrameLoader27endIfNotLoadingMainResourceEv
__ZN7WebCore11FrameLoader14checkCompletedEv
__ZN7WebCore9FrameView33checkStopDelayingDeferredRepaintsEv
__ZN7WebCore11FrameLoader22checkCallImplicitCloseEv
__ZN7WebCore11FrameLoader9completedEv
__ZN7WebCore11FrameLoader15submitFormAgainEv
__ZN7WebCore11FrameLoader17checkLoadCompleteEv
__ZN7WebCore11FrameLoader26recursiveCheckLoadCompleteEv
__ZN7WebCore11FrameLoader29checkLoadCompleteForThisFrameEv
__ZNK7WebCore14DocumentLoader19isLoadingInAPISenseEv
__ZNK7WebCore11FrameLoader5stateEv
__ZNK7WebCore11FrameLoader17subframeIsLoadingEv
__ZN7WebCore11FrameLoader16markLoadCompleteEv
__ZN7WebCore11FrameLoader18frameLoadCompletedEv
__ZN7WebCore11FrameLoader22setPreviousHistoryItemEN3WTF10PassRefPtrINS_11HistoryItemEEE
__ZN7WebCore14DocumentLoader22stopRecordingResponsesEv
__ZN7WebCore11FrameLoader5beginERKNS_4KURLEbPNS_14SecurityOriginE
__ZN7WebCore11FrameLoader5clearEbb
__ZN7WebCore6Editor5clearEv
__ZN3WTF6VectorIN7WebCore20CompositionUnderlineELm0EE14shrinkCapacityEm
__ZN7WebCore5Frame6scriptEv
__ZN7WebCore16ScriptController27updatePlatformScriptObjectsEv
__ZN7WebCore4KURL7setUserERKNS_6StringE
__ZN7WebCore4KURL7setPassERKNS_6StringE
__ZN7WebCore4KURL6setRefERKNS_6StringE
__ZN7WebCore17DOMImplementation14createDocumentERKNS_6StringEPNS_5FrameEb
__ZN7WebCore11FrameLoader6openerEv
__ZNK7WebCore5Frame9domWindowEv
__ZN7WebCore9DOMWindowC1EPNS_5FrameE
__ZN7WebCore9DOMWindowC2EPNS_5FrameE
__ZN7WebCore11FrameLoader19updatePolicyBaseURLEv
__ZN7WebCore11FrameLoader16setPolicyBaseURLERKNS_4KURLE
__ZN7WebCore9DocLoader17setAutoLoadImagesEb
__ZNK7WebCore20ResourceResponseBase15httpHeaderFieldERKNS_12AtomicStringE
__ZNK3WTF7HashMapIN7WebCore12AtomicStringENS1_6StringENS1_15CaseFoldingHashENS_10HashTraitsIS2_EENS5_IS3_EEE3getERKS2_
__ZN7WebCore11FrameLoader20restoreDocumentStateEv
__ZN7WebCore8Document12implicitOpenEv
__ZN7WebCore8Document13cancelParsingEv
__ZN7WebCore8Document5clearEv
__ZN7WebCore13ContainerNode14removeChildrenEv
__ZN3WTF6VectorINS_6RefPtrIN7WebCore23RegisteredEventListenerEEELm0EE14shrinkCapacityEm
__ZN7WebCore8Document27setTouchEventListenersDirtyEb
__ZN3WTF9HashTableINS_6RefPtrIN7WebCore4NodeEEESt4pairIS4_jENS_18PairFirstExtractorIS6_EENS_7PtrHashIS4_EENS_14PairHashTraitsINS_10HashTraitsIS4_EENSC_IjEEEESD_E15deallocateTableEPS6_i
__ZN3WTF9HashTableINS_6RefPtrIN7WebCore4NodeEEESt4pairIS4_jENS_18PairFirstExtractorIS6_EENS_7PtrHashIS4_EENS_14PairHashTraitsINS_10HashTraitsIS4_EENSC_IjEEEESD_E5clearEv
__ZN3WTF9HashTableINS_6RefPtrIN7WebCore4NodeEEESt4pairIS4_jENS_18PairFirstExtractorIS6_EENS_7PtrHashIS4_EENS_14PairHashTraitsINS_10HashTraitsIS4_EENSC_IjEEEESD_E13allocateTableEi
__ZN3WTF9HashTableINS_6RefPtrIN7WebCore4NodeEEESt4pairIS4_jENS_18PairFirstExtractorIS6_EENS_7PtrHashIS4_EENS_14PairHashTraitsINS_10HashTraitsIS4_EENSC_IjEEEESD_E4findIS4_NS_22IdentityHashTranslatorIS4_S6_SA_EEEENS_17HashTableIteratorIS4_S6_S8_SA_SF_SD_EERKT_
__ZN3WTF9HashTableINS_6RefPtrIN7WebCore4NodeEEESt4pairIS4_jENS_18PairFirstExtractorIS6_EENS_7PtrHashIS4_EENS_14PairHashTraitsINS_10HashTraitsIS4_EENSC_IjEEEESD_E6rehashEi
__ZN3WTF9HashTableINS_6RefPtrIN7WebCore4NodeEEESt4pairIS4_jENS_18PairFirstExtractorIS6_EENS_7PtrHashIS4_EENS_14PairHashTraitsINS_10HashTraitsIS4_EENSC_IjEEEESD_E6removeEPS6_
__ZN3WTF9HashTableINS_6RefPtrIN7WebCore4NodeEEESt4pairIS4_jENS_18PairFirstExtractorIS6_EENS_7PtrHashIS4_EENS_14PairHashTraitsINS_10HashTraitsIS4_EENSC_IjEEEESD_E47removeAndInvalidateWithoutEntryConsistencyCheckEPS6_
__ZN3WTF9HashTableINS_6RefPtrIN7WebCore4NodeEEESt4pairIS4_jENS_18PairFirstExtractorIS6_EENS_7PtrHashIS4_EENS_14PairHashTraitsINS_10HashTraitsIS4_EENSC_IjEEEESD_E6expandEv
__ZN3WTF9HashTableINS_6RefPtrIN7WebCore4NodeEEESt4pairIS4_jENS_18PairFirstExtractorIS6_EENS_7PtrHashIS4_EENS_14PairHashTraitsINS_10HashTraitsIS4_EENSC_IjEEEESD_E4findIPS3_NS_29RefPtrHashMapRawKeyTranslatorISI_S6_SF_SA_EEEENS_17HashTableIteratorIS4_S6_S8_SA_SF_SD_EERKT_
__ZN7WebCore12HTMLDocument15createTokenizerEv
__ZN7WebCore13HTMLTokenizerC1EPNS_12HTMLDocumentEb
__ZN7WebCore13HTMLTokenizerC2EPNS_12HTMLDocumentEb
__ZN7WebCore10HTMLParserC1EPNS_12HTMLDocumentEb
__ZN7WebCore10HTMLParserC2EPNS_12HTMLDocumentEb
__ZN7WebCore13HTMLTokenizer5beginEv
__ZN7WebCore13HTMLTokenizer5resetEv
__ZN3WTF6VectorItLm0EE14shrinkCapacityEm
__ZN7WebCore15SegmentedString5clearEv
__ZN7WebCore8Document10setParsingEb
__ZN7WebCore11FrameLoader5writeEPKcib
__ZNK7WebCore9Tokenizer12wantsRawDataEv
__ZN7WebCore12TextEncodingC1ERKNS_6StringE
__ZN7WebCore12TextEncodingC2ERKNS_6StringE
__ZN7WebCore31atomicCanonicalTextEncodingNameEPKtm
__ZN7WebCore19TextResourceDecoderC1ERKNS_6StringERKNS_12TextEncodingE
__ZN7WebCore19TextResourceDecoderC2ERKNS_6StringERKNS_12TextEncodingE
__ZN7WebCore19TextResourceDecoder20determineContentTypeERKNS_6StringE
__ZN7WebCore19TextResourceDecoder15defaultEncodingENS0_11ContentTypeERKNS_12TextEncodingE
__ZN7WebCore14Latin1EncodingEv
__ZN7WebCore11TextDecoderC1ERKNS_12TextEncodingE
__ZN7WebCore11TextDecoderC2ERKNS_12TextEncodingE
__ZN7WebCore8Document10setDecoderEN3WTF10PassRefPtrINS_19TextResourceDecoderEEE
__ZN7WebCore19TextResourceDecoder6decodeEPKcm
__ZN7WebCore19TextResourceDecoder11checkForBOMEPKcm
__ZN7WebCore19TextResourceDecoder19checkForHeadCharsetEPKcmRb
__ZN3WTF6VectorIcLm0EE4growEm
__ZN7WebCore19TextResourceDecoder5flushEv
__ZN7WebCore11TextDecoder11checkForBOMEPKcmbbRb
__ZN7WebCore12newTextCodecERKNS_12TextEncodingE
__ZNK3WTF7HashMapIPKcN7WebCore16TextCodecFactoryENS_7PtrHashIS2_EENS_10HashTraitsIS2_EENS7_IS4_EEE3getERKS2_
__ZN7WebCoreL36newStreamingTextDecoderWindowsLatin1ERKNS_12TextEncodingEPKv
__ZN7WebCore15TextCodecLatin16decodeEPKcmbbRb
__ZN3WTF6VectorIcLm0EE14shrinkCapacityEm
__ZN7WebCore11TextDecoder5resetERKNS_12TextEncodingE
__ZN7WebCore15TextCodecLatin1D0Ev
__ZN7WebCore9TextCodecD2Ev
__ZN7WebCore6String6appendERKS0_
__ZN7WebCore8Document13finishParsingEv
__ZN7WebCore13HTMLTokenizer6finishEv
__ZN7WebCore13HTMLTokenizer3endEv
__ZN7WebCore13HTMLTokenizer12processTokenEv
__ZN7WebCore16ScriptController9isEnabledEv
__ZN7WebCore10HTMLParser8finishedEv
__ZN7WebCore10HTMLParser10insertNodeEPNS_4NodeEb
__ZNK7WebCore7Element16virtualLocalNameEv
__ZNK7WebCore15HTMLHtmlElement11tagPriorityEv
__ZN7WebCore13ContainerNode8addChildEN3WTF10PassRefPtrINS_4NodeEEE
__ZN7WebCore12HTMLDocument12childAllowedEPNS_4NodeE
__ZN7WebCore22appendChildToContainerINS_4NodeENS_13ContainerNodeEEEvPT_PT0_
__ZNK7WebCore7Element12getAttributeERKNS_13QualifiedNameE
__ZN7WebCore21ApplicationCacheGroup29selectCacheWithoutManifestURLEPNS_5FrameE
__ZN7WebCore10HTMLParser9pushBlockERKNS_12AtomicStringEi
__ZN7WebCoreL12isScopingTagERKNS_12AtomicStringE
__ZN7WebCore7Element20beginParsingChildrenEv
__ZN7WebCore10HTMLParser9freeBlockEv
__ZN7WebCore10HTMLParser11popOneBlockEv
__ZN7WebCore7Element21finishParsingChildrenEv
__ZN7WebCore10HTMLParser10setCurrentEPNS_4NodeE
__ZN7WebCore8Document15finishedParsingEv
__ZN7WebCore15EventTargetNode13dispatchEventEN3WTF10PassRefPtrINS_5EventEEERi
__ZN7WebCore15EventTargetNode20dispatchGenericEventEN3WTF10PassRefPtrINS_5EventEEE
__ZN7WebCore4Node15eventParentNodeEv
__ZN7WebCore11EventTarget23preDispatchEventHandlerEPNS_5EventE
__ZN7WebCore15EventTargetNode17handleLocalEventsEPNS_5EventEb
__ZNK7WebCore15EventTargetNode8disabledEv
__ZN3WTF6VectorINS_6RefPtrIN7WebCore23RegisteredEventListenerEEELm0EEC1ERKS5_
__ZN3WTF6VectorINS_6RefPtrIN7WebCore23RegisteredEventListenerEEELm0EEC2ERKS5_
__ZN7WebCore11EventTarget24postDispatchEventHandlerEPNS_5EventEPv
__ZN7WebCore15EventTargetNode19defaultEventHandlerEPNS_5EventE
__ZN7WebCore8Document24updateDocumentsRenderingEv
__ZN7WebCore11FrameLoader15finishedParsingEv
__ZN7WebCore13HTMLTokenizerD0Ev
__ZN7WebCore10HTMLParserD0Ev
__ZN7WebCore9TimerBaseD2Ev
__ZN7WebCore8Document5closeEv
__ZN7WebCoreL11numRequestsEPNS_8DocumentE
__ZN7WebCore8Document13implicitCloseEv
__ZN7WebCore8Settings16setZoomsTextOnlyEb
__ZN7WebCore5Frame13setZoomFactorEfb
__ZNK7WebCore5Frame20isZoomFactorTextOnlyEv
__ZN7WebCore4Page12setGroupNameERKNS_6StringE
-[WAKView nextKeyView]
__ZN7WebCore8Settings20setCursiveFontFamilyERKNS_12AtomicStringE
__ZN7WebCoreL32setNeedsReapplyStylesInAllFramesEPNS_4PageE
__ZN7WebCore5Frame21setNeedsReapplyStylesEv
__ZN7WebCore8Settings23setDefaultFixedFontSizeEi
__ZN7WebCore8Settings18setDefaultFontSizeEi
__ZN7WebCore8Settings26setDefaultTextEncodingNameERKNS_6StringE
__ZN7WebCore8Settings20setFantasyFontFamilyERKNS_12AtomicStringE
__ZN7WebCore8Settings18setFixedFontFamilyERKNS_12AtomicStringE
__ZN7WebCore8Settings28setForceFTPDirectoryListingsEb
__ZN7WebCore8Settings27setFTPDirectoryTemplatePathERKNS_6StringE
__ZN7WebCore8Settings14setJavaEnabledEb
__ZN7WebCore8Settings20setJavaScriptEnabledEb
__ZN7WebCore8Settings40setJavaScriptCanOpenWindowsAutomaticallyEb
__ZN7WebCore8Settings18setMinimumFontSizeEi
__ZN7WebCore8Settings25setMinimumLogicalFontSizeEi
__ZN7WebCore8Settings17setPluginsEnabledEb
__ZN7WebCore8Settings19setDatabasesEnabledEb
__ZN7WebCore8Settings22setLocalStorageEnabledEb
__ZN7WebCore8Settings22setSansSerifFontFamilyERKNS_12AtomicStringE
__ZN7WebCore8Settings18setSerifFontFamilyERKNS_12AtomicStringE
__ZN7WebCore8Settings21setStandardFontFamilyERKNS_12AtomicStringE
__ZN7WebCore8Settings27setLoadsImagesAutomaticallyEb
__ZN7WebCore8Settings23setEditableLinkBehaviorENS_20EditableLinkBehaviorE
__ZN7WebCore8Settings40setTextDirectionSubmenuInclusionBehaviorENS_37TextDirectionSubmenuInclusionBehaviorE
__ZN7WebCore8Settings18setDOMPasteAllowedEb
__ZN7WebCore8Settings16setUsesPageCacheEb
__ZN7WebCore8Settings25setDeveloperExtrasEnabledEb
__ZN7WebCore8Settings29setAuthorAndUserStylesEnabledEb
__ZN7WebCore8Settings24setApplicationChromeModeEb
__ZN7WebCore8Settings28setMaximumResourceDataLengthEx
__ZN7WebCore8Settings13setStandaloneEb
__ZN7WebCore8Settings26setNeedsSiteSpecificQuirksEb
__ZN7WebCore8Settings29setWebArchiveDebugModeEnabledEb
__ZN7WebCore8Settings36setOfflineWebApplicationCacheEnabledEb
__ZN7WebCore4Page15backForwardListEv
__ZN7WebCore15BackForwardList10setEnabledEb
__ZN7WebCore15BackForwardList7enabledEv
__ZN7WebCore15BackForwardList11currentItemEv
_WKWindowPrepareForDrawing
_WebThreadPrepareForDrawing
-[WAKView setScale:]
_WKViewSetScale
__ZN7WebCore5Frame16setDocumentScaleEf
__ZN7WebCore21RenderLayerCompositor16setDocumentScaleEfPNS_11RenderLayerE
__ZNK7WebCore21RenderLayerCompositor15rootRenderLayerEv
__ZN7WebCore11RenderLayer16setDocumentScaleEf
__ZN7WebCore10ScrollView16updateScrollbarsERKNS_7IntSizeE
__ZN7WebCore12RenderObject19resetTextAutosizingEv
__ZN7WebCore8Document20resetAutoSizingNodesEv
__ZNK7WebCore12RenderObject12traverseNextEPKS0_PFbS2_E
__ZN7WebCoreL21includeNonFixedHeightEPKNS_12RenderObjectE
__ZN7WebCore5Frame11forceLayoutEb
__ZN7WebCore5Frame13reapplyStylesEv
__ZN7WebCore5Frame17setUserStyleSheetERKNS_6StringEb
__ZN7WebCore8Document17setUserStyleSheetERKNS_6StringE
__ZN7WebCore8Document19updateStyleSelectorEv
__ZN7WebCore8Document19recalcStyleSelectorEv
__ZN7WebCore16CSSStyleSelectorD1Ev
__ZN7WebCore16CSSStyleSelectorD2Ev
__ZN7WebCore19MediaQueryEvaluatorD1Ev
__ZN7WebCore19MediaQueryEvaluatorD2Ev
__ZN7WebCore10CSSRuleSetD1Ev
__ZN7WebCore10CSSRuleSetD2Ev
__ZN3WTF20deleteAllPairSecondsIPN7WebCore15CSSRuleDataListEKNS_7HashMapIPNS1_16AtomicStringImplES3_NS_7PtrHashIS6_EENS_10HashTraitsIS6_EENS9_IS3_EEEEEEvRT0_
__ZN3WTF15deleteAllValuesIPN7WebCore16MediaQueryResultELm0EEEvRKNS_6VectorIT_XT0_EEE
__ZN3WTF9HashTableIPN7WebCore16AtomicStringImplESt4pairIS3_NS_6RefPtrINS1_22WebKitCSSKeyframesRuleEEEENS_18PairFirstExtractorIS8_EENS_7PtrHashIS3_EENS_14PairHashTraitsINS_10HashTraitsIS3_EENSE_IS7_EEEESF_E5clearEv
__ZN3WTF9HashTableIPN7WebCore16AtomicStringImplESt4pairIS3_NS_6RefPtrINS1_22WebKitCSSKeyframesRuleEEEENS_18PairFirstExtractorIS8_EENS_7PtrHashIS3_EENS_14PairHashTraitsINS_10HashTraitsIS3_EENSE_IS7_EEEESF_E4findIS3_NS_22IdentityHashTranslatorIS3_S8_SC_EEEENS_17HashTableIteratorIS3_S8_SA_SC_SH_SF_EERKT_
__ZN3WTF9HashTableIPN7WebCore16AtomicStringImplESt4pairIS3_NS_6RefPtrINS1_22WebKitCSSKeyframesRuleEEEENS_18PairFirstExtractorIS8_EENS_7PtrHashIS3_EENS_14PairHashTraitsINS_10HashTraitsIS3_EENSE_IS7_EEEESF_E13allocateTableEi
__ZN3WTF9HashTableIPN7WebCore16AtomicStringImplESt4pairIS3_NS_6RefPtrINS1_22WebKitCSSKeyframesRuleEEEENS_18PairFirstExtractorIS8_EENS_7PtrHashIS3_EENS_14PairHashTraitsINS_10HashTraitsIS3_EENSE_IS7_EEEESF_E15deallocateTableEPS8_i
__ZN3WTF9HashTableIPN7WebCore16AtomicStringImplESt4pairIS3_NS_6RefPtrINS1_22WebKitCSSKeyframesRuleEEEENS_18PairFirstExtractorIS8_EENS_7PtrHashIS3_EENS_14PairHashTraitsINS_10HashTraitsIS3_EENSE_IS7_EEEESF_E6rehashEi
__ZN3WTF9HashTableIPN7WebCore16AtomicStringImplESt4pairIS3_NS_6RefPtrINS1_22WebKitCSSKeyframesRuleEEEENS_18PairFirstExtractorIS8_EENS_7PtrHashIS3_EENS_14PairHashTraitsINS_10HashTraitsIS3_EENSE_IS7_EEEESF_E6expandEv
__ZN3WTF9HashTableIPN7WebCore16AtomicStringImplES3_NS_17IdentityExtractorIS3_EENS_7PtrHashIS3_EENS_10HashTraitsIS3_EES9_E15deallocateTableEPS3_i
__ZN3WTF9HashTableIyyNS_17IdentityExtractorIyEEN7WebCore12LinkHashHashENS_10HashTraitsIyEES6_E15deallocateTableEPyi
__ZN7WebCore9FillLayerD1Ev
__ZN7WebCore9FillLayerD2Ev
__ZN7WebCore19MediaQueryEvaluatorC1ERKNS_6StringEPNS_5FrameEPNS_11RenderStyleE
__ZN7WebCore19MediaQueryEvaluatorC2ERKNS_6StringEPNS_5FrameEPNS_11RenderStyleE
__ZNK7WebCore18StyleInheritedDataeqERKS0_
__ZNK7WebCore19TransformOperationseqERKS0_
__ZNK7WebCore12StyleBoxDataeqERKS0_
__ZN7WebCore12RenderObject19setChildNeedsLayoutEbb
__ZN7WebCore9FrameView23repaintContentRectangleERKNS_7IntRectEb
__ZN7WebCore7IntRect9intersectERKS0_
__ZN3WTF6VectorIN7WebCore7IntRectELm0EE14expandCapacityEmPKS2_
__ZN3WTF6VectorIN7WebCore7IntRectELm0EE14expandCapacityEm
__ZN3WTF6VectorIN7WebCore7IntRectELm0EE15reserveCapacityEm
__ZN7WebCore10ScrollView23repaintContentRectangleERKNS_7IntRectEb
__ZN7WebCore10ScrollView31platformRepaintContentRectangleERKNS_7IntRectEb
__ZNK7WebCore7IntRectcv6CGRectEv
-[WAKView setNeedsDisplayInRect:]
_WKViewSetNeedsDisplayInRect
_WKViewConvertRectToBase
_WKWindowSetNeedsDisplayInRect
__ZN7WebCore12TiledSurface21setNeedsDisplayInRectERKNS_7IntRectE
__ZNK7WebCore12TiledSurface19isPaintingSuspendedEv
__ZNK7WebCore12TiledSurface4sizeEv
__ZNK7WebCore12TiledSurface17tileIndexForPointERKNS_8IntPointERjS4_
__ZNK7WebCore12TiledSurface12tileForIndexEjj
__ZN3WTF6VectorIN7WebCore7IntRectELm0EE6shrinkEm
__ZN7WebCore5Frame15didForcedLayoutEv
-[WAKClipView documentVisibleRect]
+[WAKWindow setOrientationProvider:]
-[WAKWindow setUseOrientationDependentFontAntialiasing:]
__ZN7WebCore9PageGroup9pageGroupERKNS_6StringE
__ZN3WTF7HashMapIN7WebCore6StringEPNS1_9PageGroupENS1_10StringHashENS_10HashTraitsIS2_EENS6_IS4_EEE3addERKS2_RKS4_
__ZN3WTF9HashTableIN7WebCore6StringESt4pairIS2_PNS1_9PageGroupEENS_18PairFirstExtractorIS6_EENS1_10StringHashENS_14PairHashTraitsINS_10HashTraitsIS2_EENSB_IS5_EEEESC_E6expandEv
__ZN3WTF9HashTableIN7WebCore6StringESt4pairIS2_PNS1_9PageGroupEENS_18PairFirstExtractorIS6_EENS1_10StringHashENS_14PairHashTraitsINS_10HashTraitsIS2_EENSB_IS5_EEEESC_E13allocateTableEi
__ZN3WTF9HashTableIN7WebCore6StringESt4pairIS2_PNS1_9PageGroupEENS_18PairFirstExtractorIS6_EENS1_10StringHashENS_14PairHashTraitsINS_10HashTraitsIS2_EENSB_IS5_EEEESC_E15deallocateTableEPS6_i
__ZN3WTF9HashTableIN7WebCore6StringESt4pairIS2_PNS1_9PageGroupEENS_18PairFirstExtractorIS6_EENS1_10StringHashENS_14PairHashTraitsINS_10HashTraitsIS2_EENSB_IS5_EEEESC_E6rehashEi
__ZN3WTF9HashTableIN7WebCore6StringESt4pairIS2_PNS1_9PageGroupEENS_18PairFirstExtractorIS6_EENS1_10StringHashENS_14PairHashTraitsINS_10HashTraitsIS2_EENSB_IS5_EEEESC_E4findIS2_NS_22IdentityHashTranslatorIS2_S6_S9_EEEENS_17HashTableIteratorIS2_S6_S8_S9_SE_SC_EERKT_
__ZN7WebCore9PageGroupC1ERKNS_6StringE
__ZN7WebCore9PageGroupC2ERKNS_6StringE
__ZN7WebCoreL19getUniqueIdentifierEv
__ZN7WebCore9PageGroup7addPageEPNS_4PageE
__ZN7WebCore12LocalStorage12localStorageERKNS_6StringE
__ZN7WebCoreL15localStorageMapEv
__ZN3WTF9HashTableIN7WebCore6StringESt4pairIS2_PNS1_12LocalStorageEENS_18PairFirstExtractorIS6_EENS1_10StringHashENS_14PairHashTraitsINS_10HashTraitsIS2_EENSB_IS5_EEEESC_E4findIS2_NS_22IdentityHashTranslatorIS2_S6_S9_EEEENS_17HashTableIteratorIS2_S6_S8_S9_SE_SC_EERKT_
__ZN3WTF9HashTableIN7WebCore6StringESt4pairIS2_PNS1_12LocalStorageEENS_18PairFirstExtractorIS6_EENS1_10StringHashENS_14PairHashTraitsINS_10HashTraitsIS2_EENSB_IS5_EEEESC_E6expandEv
__ZN3WTF9HashTableIN7WebCore6StringESt4pairIS2_PNS1_12LocalStorageEENS_18PairFirstExtractorIS6_EENS1_10StringHashENS_14PairHashTraitsINS_10HashTraitsIS2_EENSB_IS5_EEEESC_E13allocateTableEi
__ZN3WTF9HashTableIN7WebCore6StringESt4pairIS2_PNS1_12LocalStorageEENS_18PairFirstExtractorIS6_EENS1_10StringHashENS_14PairHashTraitsINS_10HashTraitsIS2_EENSB_IS5_EEEESC_E15deallocateTableEPS6_i
__ZN3WTF9HashTableIN7WebCore6StringESt4pairIS2_PNS1_12LocalStorageEENS_18PairFirstExtractorIS6_EENS1_10StringHashENS_14PairHashTraitsINS_10HashTraitsIS2_EENSB_IS5_EEEESC_E6rehashEi
__ZN3WTF9HashTableIN7WebCore6StringESt4pairIS2_PNS1_12LocalStorageEENS_18PairFirstExtractorIS6_EENS1_10StringHashENS_14PairHashTraitsINS_10HashTraitsIS2_EENSB_IS5_EEEESC_E6removeEPS6_
__ZN3WTF9HashTableIN7WebCore6StringESt4pairIS2_PNS1_12LocalStorageEENS_18PairFirstExtractorIS6_EENS1_10StringHashENS_14PairHashTraitsINS_10HashTraitsIS2_EENSB_IS5_EEEESC_E47removeAndInvalidateWithoutEntryConsistencyCheckEPS6_
__ZN7WebCore12LocalStorageC1ERKNS_6StringE
__ZN7WebCore12LocalStorageC2ERKNS_6StringE
__ZNK7WebCore6String4copyEv
__ZN7WebCore10StringImpl4copyEv
__ZN3WTF7HashMapIN7WebCore6StringEPNS1_12LocalStorageENS1_10StringHashENS_10HashTraitsIS2_EENS6_IS4_EEE3setERKS2_RKS4_
__ZN7WebCore9FloatSizeC1ERK6CGSize
__ZN7WebCore9FloatSizeC2ERK6CGSize
__ZN7WebCore5Frame14setVisibleSizeERKNS_9FloatSizeE
-[WAKWindow setTilingMode:]
__ZN7WebCore12TiledSurface13setTilingModeENS0_10TilingModeE
-[WebThreadCaller updateTilingMode]
_WKWindowSetOffscreen
__ZN7WebCore11HistoryItemC1ERKNS_6StringES3_S3_d
__ZN7WebCore11HistoryItemC2ERKNS_6StringES3_S3_d
__ZN7WebCore12iconDatabaseEv
__ZN7WebCore12IconDatabase20retainIconForPageURLERKNS_6StringE
__ZN7WebCore11HistoryItem13setVisitCountEi
__ZN7WebCore11HistoryItem16adoptVisitCountsERN3WTF6VectorIiLm0EEES4_
__ZN3WTF6VectorIiLm0EE14shrinkCapacityEm
__ZNK7WebCore11HistoryItem9urlStringEv
__ZNK7WebCore11HistoryItem15lastVisitedTimeEv
-[WAKWindow layoutTiles]
__ZN7WebCore12TiledSurface11layoutTilesEv
-[WebThreadCaller doLayoutTiles]
_WebCoreObjCScheduleDeallocateOnMainThread
__ZL29HandleMainThreadReleaseSourcePv
__ZL21MainRunLoopAutoUnlockP19__CFRunLoopObservermPv
__ZN7WebCore5TimerINS_8DocumentEE5firedEv
__ZN7WebCore8Document28touchEventsChangedTimerFiredEPNS_5TimerIS0_EE
__ZL20HandleDelegateSourcePv
__ZN7WebCore12TiledSurface16updateTilingModeEv
__ZN7WebCore12TiledSurface13doLayoutTilesEv
__ZNK7WebCore12TiledSurface23isTileCreationSuspendedEv
__ZN7WebCore17systemMemoryLevelEv
__ZNK7WebCore12TiledSurface11visibleRectEv
__ZNK7WebCore12TiledSurface10tilesCoverERKNS_7IntRectE
__ZNK7WebCore12TiledSurface12tileForPointERKNS_8IntPointE
__ZN7WebCore12TiledSurface20centerTileGridOriginERKNS_7IntRectE
__ZNK7WebCore12TiledSurface16pointsOnSameTileERKNS_8IntPointES3_
__ZNK7WebCore12TiledSurface19adjustForPageBoundsERNS_7IntRectE
__ZNK7WebCore12TiledSurface5frameEv
__ZN7WebCore12TiledSurface14coverWithTilesERKNS_7IntRectES3_
__ZN7WebCore7IntRect5uniteERKS0_
__ZN3WTF6VectorINS0_INS_6RefPtrIN7WebCore12TiledSurface4TileEEELm0EEELm0EE6resizeEm
__ZN3WTF6VectorINS0_INS_6RefPtrIN7WebCore12TiledSurface4TileEEELm0EEELm0EE14expandCapacityEm
__ZN3WTF6VectorINS0_INS_6RefPtrIN7WebCore12TiledSurface4TileEEELm0EEELm0EE15reserveCapacityEm
__ZN3WTF6VectorINS_6RefPtrIN7WebCore12TiledSurface4TileEEELm0EE6resizeEm
__ZN3WTF6VectorINS_6RefPtrIN7WebCore12TiledSurface4TileEEELm0EE14expandCapacityEm
__ZN3WTF6VectorINS_6RefPtrIN7WebCore12TiledSurface4TileEEELm0EE15reserveCapacityEm
__ZNK7WebCore12TiledSurface16tileRectForIndexEjj
__ZNK7WebCore7IntRect10intersectsERKS0_
__ZN7WebCore12TiledSurface4TileC1EPS0_RKNS_7IntRectE
__ZN7WebCore12TiledSurface4TileC2EPS0_RKNS_7IntRectE
-[TileLayer initWithTiledSurface:]
-[TileLayer actionForKey:]
__ZN7WebCore12TiledSurface4Tile14invalidateRectERKNS_7IntRectE
-[TileLayer setNeedsDisplayInRect:]
__ZN7WebCore5Frame15setTimersPausedEb
__ZN7WebCore5Frame11clearTimersEv
__ZN7WebCore5Frame11clearTimersEPNS_9FrameViewEPNS_8DocumentE
__ZN7WebCore9FrameView18unscheduleRelayoutEv
__ZN7WebCore11RenderLayer15suspendMarqueesEv
__ZN7WebCore19AnimationController17suspendAnimationsEPNS_8DocumentE
__ZN7WebCore26AnimationControllerPrivate17suspendAnimationsEPNS_8DocumentE
__ZN7WebCore26AnimationControllerPrivate20updateAnimationTimerEb
__ZN7WebCore12EventHandler19stopAutoscrollTimerEb
__ZNK7WebCore12EventHandler18autoscrollRendererEv
__ZN7WebCore8Document23suspendActiveDOMObjectsEv
__ZN7WebCore22ScriptExecutionContext23suspendActiveDOMObjectsEv
__ZNK7WebCore8Document9domWindowEv
_WebThreadCountOfObservedContentModifiers
__Z36WebThreadGetObservedContentModifiersv
__ZN7WebCore20NetworkStateNotifier11setIsOnLineEb
__ZN7WebCoreL19networkStateChangedEv
__ZN3WTF6VectorINS_6RefPtrIN7WebCore5FrameEEELm0EE14expandCapacityEm
__ZN3WTF6VectorINS_6RefPtrIN7WebCore5FrameEEELm0EE15reserveCapacityEm
__ZN7WebCore15EventTargetNode20dispatchEventForTypeERKNS_12AtomicStringEbb
__ZN3WTF6VectorINS_6RefPtrIN7WebCore5FrameEEELm0EE6shrinkEm
-[TileLayer display]
__ZN7WebCore12TiledSurface13prepareToDrawEv
-[WAKWindow contentView]
_WKWindowGetContentView
-[WAKView viewWillDraw]
-[WAKView subviews]
_WKViewGetSubviews
__ZL15_WAKCopyWrapperPKvPv
-[TileLayer drawInContext:]
__ZN7WebCore12TiledSurface9drawLayerEP7CALayerP9CGContext
_WebThreadIsLockedOrDisabled
_WebThreadIsLocked
-[WAKWindow useOrientationDependentFontAntialiasing]
_WebCoreSetShouldUseFontSmoothing
+[WAKWindow hasLandscapeOrientation]
_WebCoreSetFontAntialiasingStyle
_WKWindowDrawRect
_WKViewDisplayRect
__Z11_WKViewDrawP9CGContextP6WKView6CGRect
__ZL16_WKViewLockFocusP9CGContextP6WKView
__ZL25_WKViewSetGlobalFocusViewP6WKView
__ZL12drawCallbackP6WKView6CGRectPv
-[WAKView drawRect:]
__drawCallback
__ZNK7WebCore15GraphicsContext9fillColorEv
__ZN7WebCore15GraphicsContext20setPlatformFillColorERKNS_5ColorE
__ZNK7WebCore15GraphicsContext16paintingDisabledEv
__ZNK7WebCore15GraphicsContext15platformContextEv
__ZN7WebCoreL14setCGFillColorEP9CGContextRKNS_5ColorE
__ZNK7WebCore5Color7getRGBAERfS1_S1_S1_
__ZNK7WebCore15GraphicsContext11strokeColorEv
__ZN7WebCore15GraphicsContext22setPlatformStrokeColorERKNS_5ColorE
__ZN7WebCoreL16setCGStrokeColorEP9CGContextRKNS_5ColorE
__ZN7WebCore9FrameView13paintContentsEPNS_15GraphicsContextERKNS_7IntRectE
__ZN7WebCore8Document39invalidateRenderedRectsForMarkersInRectERKNS_7IntRectE
__ZN7WebCore11RenderLayer5paintEPNS_15GraphicsContextERKNS_7IntRectENS_16PaintRestrictionEPNS_12RenderObjectE
__ZN7WebCore11RenderLayer10paintLayerEPS0_PNS_15GraphicsContextERKNS_7IntRectEbNS_16PaintRestrictionEPNS_12RenderObjectEbb
__ZNK7WebCore11RenderLayer13isTransparentEv
__ZNK7WebCore4Node19virtualNamespaceURIEv
__ZNK7WebCore11RenderLayer14calculateRectsEPKS0_RKNS_7IntRectERS3_S6_S6_S6_b
__ZN7WebCore11RenderLayer24updateLayerListsIfNeededEv
__ZN7WebCore11RenderLayer17updateZOrderListsEv
__ZN7WebCore11RenderLayer13collectLayersERPN3WTF6VectorIPS0_Lm0EEES6_
__ZN3WTF6VectorIPN7WebCore11RenderLayerELm0EE14expandCapacityEmPKS3_
__ZN3WTF6VectorIPN7WebCore11RenderLayerELm0EE14expandCapacityEm
__ZN3WTF6VectorIPN7WebCore11RenderLayerELm0EE15reserveCapacityEm
__ZNSt17_Temporary_bufferIPPN7WebCore11RenderLayerES2_EC1ES3_S3_
__ZNSt17_Temporary_bufferIPPN7WebCore11RenderLayerES2_EC2ES3_S3_
__ZSt22__get_temporary_bufferIPN7WebCore11RenderLayerEESt4pairIPT_iEiS5_
__ZSt22__stable_sort_adaptiveIPPN7WebCore11RenderLayerES3_iPFbS2_S2_EEvT_S6_T0_T1_T2_
__ZSt24__merge_sort_with_bufferIPPN7WebCore11RenderLayerES3_PFbS2_S2_EEvT_S6_T0_T1_
__ZSt22__chunk_insertion_sortIPPN7WebCore11RenderLayerEiPFbS2_S2_EEvT_S6_T0_T1_
__ZSt16__insertion_sortIPPN7WebCore11RenderLayerEPFbS2_S2_EEvT_S6_T0_
__ZSt16__merge_adaptiveIPPN7WebCore11RenderLayerEiS3_PFbS2_S2_EEvT_S6_S6_T0_S7_T1_S7_T2_
__ZSt16__merge_backwardIPPN7WebCore11RenderLayerES3_S3_PFbS2_S2_EET1_T_S7_T0_S8_S6_T2_
__ZSt23return_temporary_bufferIPN7WebCore11RenderLayerEEvPT_
__ZN7WebCore11RenderLayer20updateNormalFlowListEv
__ZNK7WebCore11RenderLayer20intersectsDamageRectERKNS_7IntRectES3_PKS0_
__ZN7WebCoreL7setClipEPNS_15GraphicsContextERKNS_7IntRectES4_
__ZN7WebCore10RenderView5paintERNS_12RenderObject9PaintInfoEii
__ZN7WebCore11RenderBlock11paintObjectERNS_12RenderObject9PaintInfoEii
__ZN7WebCore10RenderView19paintBoxDecorationsERNS_12RenderObject9PaintInfoEii
__ZN7WebCoreL11restoreClipEPNS_15GraphicsContextERKNS_7IntRectES4_
__ZN7WebCore11RenderBlock13paintContentsERNS_12RenderObject9PaintInfoEii
__ZN7WebCore11RenderBlock13paintChildrenERNS_12RenderObject9PaintInfoEii
__ZNK7WebCore9RenderBox20hasSelfPaintingLayerEv
__ZNK7WebCore11RenderLayer19isSelfPaintingLayerEv
__ZN7WebCore11RenderBlock11paintFloatsERNS_12RenderObject9PaintInfoEiib
__ZN7WebCore11RenderBlock10paintCaretERNS_12RenderObject9PaintInfoEiiNS_9CaretTypeE
__ZNK7WebCore19SelectionController13caretRendererEv
__ZNK7WebCore5Frame19dragCaretControllerEv
__ZN7WebCore11RenderBlock25paintContinuationOutlinesERNS_12RenderObject9PaintInfoEii
__ZN7WebCoreL24continuationOutlineTableEv
__ZNK7WebCore12RenderObject20hasOutlineAnnotationEv
__ZNK7WebCore7Element19virtualNamespaceURIEv
__ZNK7WebCore11RenderLayer15parentClipRectsEPKS0_RNS_9ClipRectsEb
__ZN7WebCore11RenderLayer15updateClipRectsEPKS0_
__ZNK7WebCore11RenderLayer18calculateClipRectsEPKS0_RNS_9ClipRectsEb
__ZN7WebCore9ClipRectsnwEmPNS_11RenderArenaE
__ZN7WebCore11RenderBlock5paintERNS_12RenderObject9PaintInfoEii
__ZN7WebCore9RenderBox16pushContentsClipERNS_12RenderObject9PaintInfoEii
__ZN7WebCore9RenderBox19paintBoxDecorationsERNS_12RenderObject9PaintInfoEii
__ZN7WebCore9RenderBox23paintRootBoxDecorationsERNS_12RenderObject9PaintInfoEii
__ZN7WebCore9RenderBox15paintFillLayersERKNS_12RenderObject9PaintInfoERKNS_5ColorEPKNS_9FillLayerEiiiiiiNS_17CompositeOperatorE
__ZN7WebCore9RenderBox14paintFillLayerERKNS_12RenderObject9PaintInfoERKNS_5ColorEPKNS_9FillLayerEiiiiiiNS_17CompositeOperatorE
__ZN7WebCore9RenderBox22paintFillLayerExtendedERKNS_12RenderObject9PaintInfoERKNS_5ColorEPKNS_9FillLayerEiiiiiiPNS_13InlineFlowBoxENS_17CompositeOperatorE
__ZNK7WebCore9FrameView13isTransparentEv
__ZNK7WebCore9FrameView19baseBackgroundColorEv
__ZN7WebCore15GraphicsContext4saveEv
__ZN3WTF6VectorIN7WebCore20GraphicsContextStateELm0EE14expandCapacityEmPKS2_
__ZN3WTF6VectorIN7WebCore20GraphicsContextStateELm0EE14expandCapacityEm
__ZN3WTF6VectorIN7WebCore20GraphicsContextStateELm0EE15reserveCapacityEm
__ZN7WebCore15GraphicsContext17savePlatformStateEv
__ZN7WebCore15GraphicsContext21setCompositeOperationENS_17CompositeOperatorE
__ZN7WebCore15GraphicsContext8fillRectERKNS_9FloatRectERKNS_5ColorE
__ZNK7WebCore9FloatRectcv6CGRectEv
__ZN7WebCore15GraphicsContext7restoreEv
__ZN3WTF6VectorIN7WebCore20GraphicsContextStateELm0EE6shrinkEm
__ZN7WebCore15GraphicsContext20restorePlatformStateEv
__ZN7WebCore10RenderFlow10paintLinesERNS_12RenderObject9PaintInfoEii
__ZN7WebCore18hasEnoughMemoryForEj
__ZL18_WKViewUnlockFocusP9CGContextP6WKView
_WKWindowSetNeedsDisplay
__ZN7WebCore8Document22resumeActiveDOMObjectsEv
__ZN7WebCore22ScriptExecutionContext22resumeActiveDOMObjectsEv
__ZN7WebCore12RenderObject31adjustComputedFontSizesOnBlocksEff
__ZN7WebCore11RenderBlock23adjustComputedFontSizesEff
__ZN7WebCore11RenderBlock18immediateLineCountEv
__ZN7WebCore8Document23validateAutoSizingNodesEv
__ZN7WebCore9ClipRects7destroyEPNS_11RenderArenaE
__ZN7WebCore9ClipRectsdlEPvm
__ZN7WebCore11RenderArena4freeEmPv
__ZN7WebCore12RenderObject26repaintAfterLayoutIfNeededEPNS_9RenderBoxERKNS_7IntRectES5_
__ZNK7WebCore12RenderObject29mustRepaintBackgroundOrBorderEv
__ZN7WebCoreL21mustRepaintFillLayersEPKNS_12RenderObjectEPKNS_9FillLayerE
_WKWindowMakeFirstResponder
-[DOMElement removeAttribute:]
__ZN7WebCore7Element15removeAttributeERKNS_6StringERi
__ZN7WebCore12NamedAttrMap15removeNamedItemERKNS_6StringERi
-[DOMElement(WebCoreInternal) _element]
__ZN7WebCore6Editor23setTextAsChildOfElementERKNS_6StringEPNS_7ElementEb
__ZN7WebCore19SelectionController5clearEv
__ZN7WebCore6Editor14setCompositionERKNS_6StringERKN3WTF6VectorINS_20CompositionUnderlineELm0EEEjj
__ZN7WebCore6Editor35setIgnoreCompositionSelectionChangeEb
__ZN7WebCore6Editor17selectCompositionEv
__ZNK7WebCore6Editor16compositionRangeEv
__ZN7WebCore6Editor36revealSelectionAfterEditingOperationEv
__ZN7WebCore5Frame15revealSelectionERKNS_11RenderLayer15ScrollAlignmentEb
__ZNK7WebCore13ContainerNode14childNodeCountEv
__ZN7WebCore15VisiblePositionC1ERKNS_8PositionENS_9EAffinityE
__ZN7WebCore15VisiblePositionC2ERKNS_8PositionENS_9EAffinityE
__ZN7WebCore15VisiblePosition4initERKNS_8PositionENS_9EAffinityE
__ZN7WebCore15VisiblePosition17canonicalPositionERKNS_8PositionE
__ZN7WebCore8Document36updateLayoutIgnorePendingStylesheetsEv
__ZN7WebCore8Document12updateLayoutEv
__ZNK7WebCore8Position8upstreamEv
__ZN7WebCoreL23enclosingVisualBoundaryEPNS_4NodeE
__ZN7WebCoreL38endsOfNodeAreVisuallyDistinctPositionsEPNS_4NodeE
__ZNK7WebCore13ContainerNode9childNodeEj
__ZNK7WebCore16PositionIterator7atStartEv
__ZN7WebCoreL10isStreamerERKNS_16PositionIteratorE
__ZN7WebCore12isAtomicNodeEPKNS_4NodeE
__ZNK7WebCore16PositionIterator13atStartOfNodeEv
__ZNK7WebCore16PositionIteratorcvNS_8PositionEEv
__ZNK7WebCore8Position11isCandidateEv
__ZNK7WebCore12RenderObject4isBREv
__ZN7WebCore14isTableElementEPNS_4NodeE
__ZN7WebCore21editingIgnoresContentEPKNS_4NodeE
__ZN7WebCore25canHaveChildrenForEditingEPKNS_4NodeE
__ZN7WebCore8Position44hasRenderedNonAnonymousDescendantsWithHeightEPNS_12RenderObjectE
__ZNK7WebCore12RenderObject27nextInPreOrderAfterChildrenEv
__ZN7WebCore8Position20nodeIsUserSelectNoneEPNS_4NodeE
__ZN7WebCore9Selection7setBaseERKNS_15VisiblePositionE
__ZN7WebCore9Selection8validateEv
__ZN7WebCore9Selection24adjustForEditableContentEv
__ZN7WebCore9Selection9setExtentERKNS_15VisiblePositionE
__ZN7WebCore16comparePositionsERKNS_8PositionES2_
__ZN7WebCore5Range21compareBoundaryPointsEPNS_4NodeEiS2_i
__ZN7WebCore5Frame22setFocusedNodeIfNeededEv
__ZNK7WebCore9Selection19rootEditableElementEv
__ZN7WebCore23editableRootForPositionERKNS_8PositionE
__ZNK7WebCore4Node16isMouseFocusableEv
__ZNK7WebCore11HTMLElement11isFocusableEv
__ZNK7WebCore4Node11isFocusableEv
__ZNK7WebCore12RenderObject8isWidgetEv
__ZN7WebCore15FocusController14setFocusedNodeEPNS_4NodeEN3WTF10PassRefPtrINS_5FrameEEE
__ZN7WebCore15FocusController15setFocusedFrameEN3WTF10PassRefPtrINS_5FrameEEE
__ZN7WebCore8Document14setFocusedNodeEN3WTF10PassRefPtrINS_4NodeEEE
__ZN7WebCore15rangeOfContentsEPNS_4NodeE
__ZN7WebCore5Range6createEN3WTF10PassRefPtrINS_8DocumentEEE
__ZN7WebCore8Document11attachRangeEPNS_5RangeE
__ZN3WTF7HashSetIPN7WebCore5RangeENS_7PtrHashIS3_EENS_10HashTraitsIS3_EEE3addERKS3_
__ZN3WTF9HashTableIPN7WebCore5RangeES3_NS_17IdentityExtractorIS3_EENS_7PtrHashIS3_EENS_10HashTraitsIS3_EES9_E6expandEv
__ZN3WTF9HashTableIPN7WebCore5RangeES3_NS_17IdentityExtractorIS3_EENS_7PtrHashIS3_EENS_10HashTraitsIS3_EES9_E6rehashEi
__ZN3WTF9HashTableIPN7WebCore5RangeES3_NS_17IdentityExtractorIS3_EENS_7PtrHashIS3_EENS_10HashTraitsIS3_EES9_E13allocateTableEi
__ZN3WTF9HashTableIPN7WebCore5RangeES3_NS_17IdentityExtractorIS3_EENS_7PtrHashIS3_EENS_10HashTraitsIS3_EES9_E15deallocateTableEPS3_i
__ZN7WebCore5Range18selectNodeContentsEPNS_4NodeERi
__ZNK7WebCore4Node18offsetInCharactersEv
__ZN7WebCore6Editor18shouldBeginEditingEPNS_5RangeE
+[DOMRange(WebCoreInternal) _wrapRange:]
-[DOMRange(WebCoreInternal) _initWithRange:]
__ZN7WebCore15EventTargetNode18dispatchFocusEventEv
__ZN3WTF6VectorINS_6RefPtrIN7WebCore13ContainerNodeEEELm0EE14expandCapacityEm
__ZN3WTF6VectorINS_6RefPtrIN7WebCore13ContainerNodeEEELm0EE15reserveCapacityEm
__ZN3WTF6VectorINS_6RefPtrIN7WebCore13ContainerNodeEEELm0EE6shrinkEm
__ZN7WebCore15EventTargetNode15dispatchUIEventERKNS_12AtomicStringEiN3WTF10PassRefPtrINS_5EventEEE
__ZN7WebCore7UIEventC1ERKNS_12AtomicStringEbbN3WTF10PassRefPtrINS_9DOMWindowEEEi
__ZN7WebCore7UIEventC2ERKNS_12AtomicStringEbbN3WTF10PassRefPtrINS_9DOMWindowEEEi
__ZN7WebCore5Event18setUnderlyingEventEN3WTF10PassRefPtrIS0_EE
__ZN7WebCore7UIEventD0Ev
__ZN7WebCore5EventD2Ev
__ZN7WebCore13ContainerNode8setFocusEb
__ZN7WebCore4Node8setFocusEb
__ZN7WebCore4Node14ensureRareDataEv
__ZN7WebCore7Element14createRareDataEv
__ZN3WTF7HashMapIPKN7WebCore4NodeEPNS1_12NodeRareDataENS_7PtrHashIS4_EENS_10HashTraitsIS4_EENS9_IS6_EEE3setERKS4_RKS6_
__ZN7WebCore19AnimationController20beginAnimationUpdateEv
__ZNK3WTF7HashMapIPKN7WebCore4NodeEPNS1_12NodeRareDataENS_7PtrHashIS4_EENS_10HashTraitsIS4_EENS9_IS6_EEE3getERKS4_
__ZNK7WebCore4Node15rareDataFocusedEv
__ZNK7WebCore4Node8rareDataEv
__ZN7WebCore7DataRefINS_19StyleBackgroundDataEE6accessEv
__ZN7WebCore19StyleBackgroundDataC1ERKS0_
__ZN7WebCore19StyleBackgroundDataC2ERKS0_
__ZN7WebCore9FillLayerC1ERKS0_
__ZN7WebCore9FillLayerC2ERKS0_
__ZN7WebCore17CSSPrimitiveValue18computeLengthShortEPNS_11RenderStyleEd
__ZN7WebCore16CSSStyleSelector26getColorFromPrimitiveValueEPNS_17CSSPrimitiveValueE
__ZN7WebCore14focusRingColorEv
__ZNK7WebCore19StyleBackgroundDataeqERKS0_
__ZNK7WebCore9FillLayereqERKS0_
__ZNK7WebCore14SVGRenderStyle17inheritedNotEqualEPKS0_
__ZNK7WebCore22StyleRareInheritedDataeqERKS0_
__ZNK7WebCore14NinePieceImageeqERKS0_
__ZNK7WebCore12RenderObject18maximalOutlineSizeENS_10PaintPhaseE
__ZN7WebCore10RenderView21setMaximalOutlineSizeEi
__ZN7WebCore19AnimationController18endAnimationUpdateEv
__ZN7WebCore26AnimationControllerPrivate14styleAvailableEv
__ZN7WebCore26AnimationControllerPrivate24beginAnimationUpdateTimeEv
__ZN7WebCore26AnimationControllerPrivate17startTimeResponseEd
__ZN7WebCore6Editor15didBeginEditingEv
__ZN7WebCoreL13widgetForNodeEPNS_4NodeE
__ZN7WebCore6Widget8setFocusEv
__ZNK7WebCore4Node20shouldUseInputMethodEv
__ZN7WebCore5Frame22selectionLayoutChangedEv
__ZN7WebCore19SelectionController41selectFrameElementInParentIfFullySelectedEv
__ZN7WebCore5Frame31notifyRendererOfSelectionChangeEb
__ZN7WebCore5Frame25respondToChangedSelectionERKNS_9SelectionEb
__ZN7WebCore6Editor32isContinuousSpellCheckingEnabledEv
__ZN7WebCore8Document13removeMarkersENS_14DocumentMarker10MarkerTypeE
__ZN3WTF9HashTableINS_6RefPtrIN7WebCore4NodeEEESt4pairIS4_PS5_INS_6VectorINS2_14DocumentMarkerELm0EEENS6_INS2_7IntRectELm0EEEEENS_18PairFirstExtractorISD_EENS_7PtrHashIS4_EENS_14PairHashTraitsINS_10HashTraitsIS4_EENSJ_ISC_EEEESK_EC1ERKSN_
__ZN3WTF9HashTableINS_6RefPtrIN7WebCore4NodeEEESt4pairIS4_PS5_INS_6VectorINS2_14DocumentMarkerELm0EEENS6_INS2_7IntRectELm0EEEEENS_18PairFirstExtractorISD_EENS_7PtrHashIS4_EENS_14PairHashTraitsINS_10HashTraitsIS4_EENSJ_ISC_EEEESK_E4findIPS3_NS_29RefPtrHashMapRawKeyTranslatorISP_SD_SM_SH_EEEENS_17HashTableIteratorIS4_SD_SF_SH_SM_SK_EERKT_
__ZN3WTF9HashTableINS_6RefPtrIN7WebCore4NodeEEESt4pairIS4_PS5_INS_6VectorINS2_14DocumentMarkerELm0EEENS6_INS2_7IntRectELm0EEEEENS_18PairFirstExtractorISD_EENS_7PtrHashIS4_EENS_14PairHashTraitsINS_10HashTraitsIS4_EENSJ_ISC_EEEESK_E13allocateTableEi
__ZN3WTF9HashTableINS_6RefPtrIN7WebCore4NodeEEESt4pairIS4_PS5_INS_6VectorINS2_14DocumentMarkerELm0EEENS6_INS2_7IntRectELm0EEEEENS_18PairFirstExtractorISD_EENS_7PtrHashIS4_EENS_14PairHashTraitsINS_10HashTraitsIS4_EENSJ_ISC_EEEESK_E15deallocateTableEPSD_i
__ZN3WTF9HashTableINS_6RefPtrIN7WebCore4NodeEEESt4pairIS4_PS5_INS_6VectorINS2_14DocumentMarkerELm0EEENS6_INS2_7IntRectELm0EEEEENS_18PairFirstExtractorISD_EENS_7PtrHashIS4_EENS_14PairHashTraitsINS_10HashTraitsIS4_EENSJ_ISC_EEEESK_E5clearEv
__ZN3WTF9HashTableINS_6RefPtrIN7WebCore4NodeEEESt4pairIS4_PS5_INS_6VectorINS2_14DocumentMarkerELm0EEENS6_INS2_7IntRectELm0EEEEENS_18PairFirstExtractorISD_EENS_7PtrHashIS4_EENS_14PairHashTraitsINS_10HashTraitsIS4_EENSJ_ISC_EEEESK_E4findIS4_NS_22IdentityHashTranslatorIS4_SD_SH_EEEENS_17HashTableIteratorIS4_SD_SF_SH_SM_SK_EERKT_
__ZN3WTF9HashTableINS_6RefPtrIN7WebCore4NodeEEESt4pairIS4_PS5_INS_6VectorINS2_14DocumentMarkerELm0EEENS6_INS2_7IntRectELm0EEEEENS_18PairFirstExtractorISD_EENS_7PtrHashIS4_EENS_14PairHashTraitsINS_10HashTraitsIS4_EENSJ_ISC_EEEESK_E6rehashEi
__ZN3WTF9HashTableINS_6RefPtrIN7WebCore4NodeEEESt4pairIS4_PS5_INS_6VectorINS2_14DocumentMarkerELm0EEENS6_INS2_7IntRectELm0EEEEENS_18PairFirstExtractorISD_EENS_7PtrHashIS4_EENS_14PairHashTraitsINS_10HashTraitsIS4_EENSJ_ISC_EEEESK_E6removeEPSD_
__ZN3WTF9HashTableINS_6RefPtrIN7WebCore4NodeEEESt4pairIS4_PS5_INS_6VectorINS2_14DocumentMarkerELm0EEENS6_INS2_7IntRectELm0EEEEENS_18PairFirstExtractorISD_EENS_7PtrHashIS4_EENS_14PairHashTraitsINS_10HashTraitsIS4_EENSJ_ISC_EEEESK_E47removeAndInvalidateWithoutEntryConsistencyCheckEPSD_
__ZN3WTF9HashTableINS_6RefPtrIN7WebCore4NodeEEESt4pairIS4_PS5_INS_6VectorINS2_14DocumentMarkerELm0EEENS6_INS2_7IntRectELm0EEEEENS_18PairFirstExtractorISD_EENS_7PtrHashIS4_EENS_14PairHashTraitsINS_10HashTraitsIS4_EENSJ_ISC_EEEESK_E6expandEv
__ZN3WTF9HashTableINS_6RefPtrIN7WebCore4NodeEEESt4pairIS4_PS5_INS_6VectorINS2_14DocumentMarkerELm0EEENS6_INS2_7IntRectELm0EEEEENS_18PairFirstExtractorISD_EENS_7PtrHashIS4_EENS_14PairHashTraitsINS_10HashTraitsIS4_EENSJ_ISC_EEEESK_EC2ERKSN_
__ZN7WebCore6Editor25respondToChangedSelectionERKNS_9SelectionE
-[WAKWindow firstResponder]
_WKWindowFirstResponder
__ZN7WebCore19SelectionController37notifyAccessibilityForSelectionChangeEv
-[DOMDocument createCSSStyleDeclaration]
__ZN7WebCore8Document25createCSSStyleDeclarationEv
+[DOMCSSStyleDeclaration(WebCoreInternal) _wrapCSSStyleDeclaration:]
-[DOMCSSStyleDeclaration(WebCoreInternal) _initWithCSSStyleDeclaration:]
-[DOMCSSStyleDeclaration(DOMCSS2Properties) setFontFamily:]
-[DOMCSSStyleDeclaration setProperty:value:priority:]
__ZN7WebCore19CSSStyleDeclaration11setPropertyERKNS_6StringES3_S3_Ri
__ZN7WebCore13cssPropertyIDERKNS_6StringE
__ZN7WebCore10StringImpl4findEPKcib
__ZN7WebCore26CSSMutableStyleDeclaration11setPropertyEiRKNS_6StringEbRi
__ZN7WebCore26CSSMutableStyleDeclaration11setPropertyEiRKNS_6StringEbb
__ZN7WebCore9CSSParser10parseValueEPNS_26CSSMutableStyleDeclarationEiRKNS_6StringEb
__ZNK7WebCore9StyleBase15isCSSStyleSheetEv
-[DOMCSSStyleDeclaration(DOMCSS2Properties) setFontSize:]
-[DOMCSSStyleDeclaration(DOMCSS2Properties) setColor:]
__ZN7WebCore9CSSParser22createFloatingFunctionEv
__ZN3WTF7HashSetIPN7WebCore17CSSParserFunctionENS_7PtrHashIS3_EENS_10HashTraitsIS3_EEE3addERKS3_
__ZN3WTF9HashTableIPN7WebCore17CSSParserFunctionES3_NS_17IdentityExtractorIS3_EENS_7PtrHashIS3_EENS_10HashTraitsIS3_EES9_E6expandEv
__ZN3WTF9HashTableIPN7WebCore17CSSParserFunctionES3_NS_17IdentityExtractorIS3_EENS_7PtrHashIS3_EENS_10HashTraitsIS3_EES9_E6rehashEi
__ZN3WTF9HashTableIPN7WebCore17CSSParserFunctionES3_NS_17IdentityExtractorIS3_EENS_7PtrHashIS3_EENS_10HashTraitsIS3_EES9_E13allocateTableEi
__ZN3WTF9HashTableIPN7WebCore17CSSParserFunctionES3_NS_17IdentityExtractorIS3_EENS_7PtrHashIS3_EENS_10HashTraitsIS3_EES9_E4findIS3_NS_22IdentityHashTranslatorIS3_S3_S7_EEEENS_17HashTableIteratorIS3_S3_S5_S7_S9_S9_EERKT_
__ZN3WTF9HashTableIPN7WebCore17CSSParserFunctionES3_NS_17IdentityExtractorIS3_EENS_7PtrHashIS3_EENS_10HashTraitsIS3_EES9_E47removeAndInvalidateWithoutEntryConsistencyCheckEPS3_
__ZN3WTF9HashTableIPN7WebCore17CSSParserFunctionES3_NS_17IdentityExtractorIS3_EENS_7PtrHashIS3_EENS_10HashTraitsIS3_EES9_E6removeEPS3_
__ZN7WebCore9CSSParser10parseColorEPNS_14CSSParserValueE
__ZN7WebCore9CSSParser19parseColorFromValueEPNS_14CSSParserValueERjb
__ZN7WebCoreL17equalIgnoringCaseERKNS_15CSSParserStringEPKc
__ZN7WebCore9CSSParser20parseColorParametersEPNS_14CSSParserValueEPib
__ZN7WebCore17CSSPrimitiveValue11createColorEj
__ZNK3WTF7HashMapIjNS_6RefPtrIN7WebCore17CSSPrimitiveValueEEENS_7IntHashIjEENS_10HashTraitsIjEENS7_IS4_EEE3getERKj
__ZN7WebCore17CSSPrimitiveValueC1Ej
__ZN7WebCore17CSSPrimitiveValueC2Ej
__ZN3WTF7HashMapIjNS_6RefPtrIN7WebCore17CSSPrimitiveValueEEENS_7IntHashIjEENS_10HashTraitsIjEENS7_IS4_EEE3addERKjRKS4_
__ZN3WTF9HashTableIjSt4pairIjNS_6RefPtrIN7WebCore17CSSPrimitiveValueEEEENS_18PairFirstExtractorIS6_EENS_7IntHashIjEENS_14PairHashTraitsINS_10HashTraitsIjEENSC_IS5_EEEESD_E13allocateTableEi
__ZN3WTF9HashTableIjSt4pairIjNS_6RefPtrIN7WebCore17CSSPrimitiveValueEEEENS_18PairFirstExtractorIS6_EENS_7IntHashIjEENS_14PairHashTraitsINS_10HashTraitsIjEENSC_IS5_EEEESD_E4findIjNS_22IdentityHashTranslatorIjS6_SA_EEEENS_17HashTableIteratorIjS6_S8_SA_SF_SD_EERKT_
__ZN3WTF9HashTableIjSt4pairIjNS_6RefPtrIN7WebCore17CSSPrimitiveValueEEEENS_18PairFirstExtractorIS6_EENS_7IntHashIjEENS_14PairHashTraitsINS_10HashTraitsIjEENSC_IS5_EEEESD_E15deallocateTableEPS6_i
__ZN3WTF9HashTableIjSt4pairIjNS_6RefPtrIN7WebCore17CSSPrimitiveValueEEEENS_18PairFirstExtractorIS6_EENS_7IntHashIjEENS_14PairHashTraitsINS_10HashTraitsIjEENSC_IS5_EEEESD_E6rehashEi
__ZN3WTF9HashTableIjSt4pairIjNS_6RefPtrIN7WebCore17CSSPrimitiveValueEEEENS_18PairFirstExtractorIS6_EENS_7IntHashIjEENS_14PairHashTraitsINS_10HashTraitsIjEENSC_IS5_EEEESD_E6expandEv
__ZN3WTF9HashTableIjSt4pairIjNS_6RefPtrIN7WebCore17CSSPrimitiveValueEEEENS_18PairFirstExtractorIS6_EENS_7IntHashIjEENS_14PairHashTraitsINS_10HashTraitsIjEENSC_IS5_EEEESD_E5clearEv
-[DOMCSSStyleDeclaration(DOMCSS2Properties) setWhiteSpace:]
-[DOMCSSStyleDeclaration(DOMCSS2Properties) setOverflow:]
-[DOMCSSStyleDeclaration(DOMCSS2Properties) setPadding:]
-[DOMNode hasChildNodes]
-[DOMCSSStyleDeclaration(DOMCSS2Properties) setMargin:]
-[DOMCSSStyleDeclaration(DOMCSS2Properties) setTextAlign:]
-[DOMCSSStyleDeclaration cssText]
__ZNK7WebCore26CSSMutableStyleDeclaration7cssTextEv
__ZNK7WebCore11CSSProperty7cssTextEv
__Z15getPropertyName13CSSPropertyID
__ZN7WebCoreplERKNS_6StringEPKc
__ZN7WebCoreplERKNS_6StringES2_
__ZNK7WebCore12CSSValueList7cssTextEv
__ZNK7WebCore15FontFamilyValue7cssTextEv
__ZNK7WebCore17CSSPrimitiveValue7cssTextEv
__ZN7WebCore6String6formatEPKcz
__ZN3WTF6VectorIcLm256EE4growEm
__ZN3WTF6VectorItLm0EE4growEm
__ZN7WebCoreL19valueOrPropertyNameEi
__Z12getValueNamet
-[DOMCSSStyleDeclaration setCssText:]
__ZN7WebCore26CSSMutableStyleDeclaration10setCssTextERKNS_6StringERi
-[DOMCSSStyleDeclaration removeProperty:]
__ZN7WebCore19CSSStyleDeclaration14removePropertyERKNS_6StringERi
__ZN7WebCore26CSSMutableStyleDeclaration14removePropertyEiRi
-[DOMElement setAttribute:value:]
__ZNK7WebCore5Frame12updateLayoutEv
__ZN7WebCore17CSSPrimitiveValue18computeLengthFloatEPNS_11RenderStyleEb
__ZNK7WebCore11RenderLayer15reflectionLayerEv
__ZN7WebCore11RenderLayer19dirtyNormalFlowListEv
__ZNK7WebCore12RenderObject22getUncachedPseudoStyleENS_11RenderStyle8PseudoIdEPS1_
__ZN7WebCore16CSSStyleSelector21pseudoStyleForElementENS_11RenderStyle8PseudoIdEPNS_7ElementEPS1_
__ZNK7WebCore11RenderBlock9lineWidthEi
__ZNK7WebCore11RenderBlock11rightOffsetEv
__ZNK7WebCore11RenderBlock14rightRelOffsetEiibPi
__ZNK7WebCore11RenderBlock10leftOffsetEv
__ZNK7WebCore11RenderBlock13leftRelOffsetEiibPi
__ZN7WebCore11RenderLayer27updateScrollInfoAfterLayoutEv
__ZN7WebCore11RenderLayer23computeScrollDimensionsEPbS1_
__ZNK7WebCore9RenderBox12clientHeightEv
__ZN7WebCore11RenderLayer11scrollWidthEv
__ZN7WebCore11RenderLayer12scrollHeightEv
-[DOMHTMLElement(DOMHTMLElementExtensions) setScrollXOffset:scrollYOffset:adjustForPurpleCaret:]
__ZN7WebCore11RenderLayer14scrollToOffsetEiibb
__ZN7WebCore5Frame13setCaretColorERKNS_5ColorE
__ZNK7WebCore4Page9selectionEv
__ZN7WebCore19SelectionController18recomputeCaretRectEv
__ZNK7WebCore19SelectionController14localCaretRectEv
__ZN7WebCore19SelectionController6layoutEv
__ZNK7WebCore15VisiblePosition14localCaretRectERPNS_12RenderObjectE
__ZNK7WebCore8Position21getInlineBoxAndOffsetENS_9EAffinityERPNS_9InlineBoxERi
__ZNK7WebCore8Position21getInlineBoxAndOffsetENS_9EAffinityENS_13TextDirectionERPNS_9InlineBoxERi
__ZNK7WebCore9RenderBox16inlineBoxWrapperEv
__ZN7WebCore10RenderFlow14localCaretRectEPNS_9InlineBoxEiPi
__ZNK7WebCore12RenderObject14firstLineStyleEv
__ZNK7WebCore19SelectionController22caretRendersInsideNodeEPNS_4NodeE
__ZNK7WebCore19SelectionController16caretRepaintRectEv
__ZN7WebCore10RenderView41repaintRectangleInViewAndCompositedLayersERKNS_7IntRectEb
__ZN7WebCore11LayoutStatenwEmPNS_11RenderArenaE
__ZN7WebCore11LayoutStateC1EPS0_PNS_9RenderBoxERKNS_7IntSizeE
__ZN7WebCore11LayoutStateC2EPS0_PNS_9RenderBoxERKNS_7IntSizeE
__ZN7WebCore9RenderBox21calcHorizontalMarginsERKNS_6LengthES3_i
__ZN7WebCore11LayoutState7destroyEPNS_11RenderArenaE
__ZN7WebCore11LayoutStatedlEPvm
_WKWindowSetContentRect
__ZL22_WKViewAutoresizeCoordbjPK6CGRectS1_PS_
_WKViewSetFrameOrigin
__ZN3WTF6VectorIN7WebCore11CSSPropertyELm0EE6shrinkEm
__ZN7WebCore17CSSPrimitiveValueD0Ev
__ZN7WebCore17CSSPrimitiveValue7cleanupEv
_WKViewAcceptsFirstResponder
__ZL17responderCallbackP6WKView27WKViewResponderCallbackTypePv
-[WAKView _handleResponderCall:]
_WKViewBecomeFirstResponder
_WKViewResignFirstResponder
-[WAKResponder resignFirstResponder]
-[WAKWindow keyViewSelectionDirection]
-[WAKView isDescendantOf:]
__ZNK7WebCore5Frame9caretRectEv
__ZN7WebCore19SelectionController19absoluteCaretBoundsEv
-[WAKView convertRect:toView:]
__ZN7WebCore19SelectionController33wordRangeContainingCaretSelectionEv
__ZN7WebCore19SelectionController34_wordRangeContainingCaretSelectionEv
__ZN7WebCore19SelectionController38_wordSelectionContainingCaretSelectionEv
__ZN7WebCore16isEndOfParagraphERKNS_15VisiblePositionE
__ZN7WebCore14endOfParagraphERKNS_15VisiblePositionE
__ZN7WebCore14enclosingBlockEPNS_4NodeE
__ZN7WebCore19enclosingNodeOfTypeERKNS_8PositionEPFbPKNS_4NodeEEb
__ZN7WebCore19highestEditableRootERKNS_8PositionE
__ZN7WebCore17isContentEditableEPKNS_4NodeE
__ZN7WebCore7isBlockEPKNS_4NodeE
__ZN7WebCore15VisiblePositionC1EPNS_4NodeEiNS_9EAffinityE
__ZN7WebCore15VisiblePositionC2EPNS_4NodeEiNS_9EAffinityE
__ZNK7WebCore15VisiblePosition8previousEb
__ZN7WebCore33previousVisuallyDistinctCandidateERKNS_8PositionE
__ZNK7WebCore8Position10downstreamEv
__ZNK7WebCore16PositionIterator5atEndEv
__ZN7WebCore16PositionIterator9incrementEv
__ZN7WebCore13maxDeepOffsetEPKNS_4NodeE
__ZNK7WebCore8Position7atStartEv
__ZNK7WebCore8Position8previousENS_24EUsingComposedCharactersE
__ZNK7WebCore4Node9nodeIndexEv
__ZNK7WebCore15VisiblePosition14characterAfterEv
__ZN7WebCore18isStartOfParagraphERKNS_15VisiblePositionE
__ZN7WebCore16startOfParagraphERKNS_15VisiblePositionE
__ZN7WebCore19SelectionController22expandUsingGranularityENS_15TextGranularityE
__ZN7WebCore9Selection22expandUsingGranularityENS_15TextGranularityE
__ZN7WebCore15isEndOfDocumentERKNS_15VisiblePositionE
__ZNK7WebCore15VisiblePosition4nextEb
__ZN7WebCore29nextVisuallyDistinctCandidateERKNS_8PositionE
__ZNK7WebCore8Position5atEndEv
__ZNK7WebCore8Position4nextENS_24EUsingComposedCharactersE
__ZN7WebCore11startOfWordERKNS_15VisiblePositionENS_9EWordSideE
__ZN7WebCoreL16previousBoundaryERKNS_15VisiblePositionEPFjPKtjE
__ZNK7WebCore4Node25enclosingBlockFlowElementEv
__ZNK7WebCore4Node11isBlockFlowEv
__ZN7WebCore24rangeCompliantEquivalentERKNS_8PositionE
__ZN7WebCore5Range8setStartEN3WTF10PassRefPtrINS_4NodeEEEiRi
__ZNK7WebCore5Range16checkNodeWOffsetEPNS_4NodeEiRi
__ZN7WebCore5Range8collapseEbRi
__ZN7WebCore5Range6setEndEN3WTF10PassRefPtrINS_4NodeEEEiRi
__ZN7WebCore31SimplifiedBackwardsTextIteratorC1EPKNS_5RangeE
__ZN7WebCore31SimplifiedBackwardsTextIteratorC2EPKNS_5RangeE
__ZN7WebCore31SimplifiedBackwardsTextIterator7advanceEv
__ZN7WebCore31SimplifiedBackwardsTextIterator8exitNodeEv
__ZN7WebCoreL24shouldEmitNewlineForNodeEPNS_4NodeE
__ZN7WebCoreL27shouldEmitNewlineBeforeNodeEPNS_4NodeE
__ZN7WebCoreL36shouldEmitNewlinesBeforeAndAfterNodeEPNS_4NodeE
__ZN7WebCore11isTableCellEPKNS_4NodeE
__ZN7WebCore31SimplifiedBackwardsTextIterator13emitCharacterEtPNS_4NodeEii
__ZN3WTF6VectorItLm1024EE7prependItEEvPKT_m
__ZN3WTF6VectorItLm1024EE6insertItEEvmPKT_m
__ZN7WebCoreL17startWordBoundaryEPKtj
__ZN7WebCore16findWordBoundaryEPKtiiPiS2_
__ZN7WebCoreL25isWordDelimitingCharacterEt
__ZNK7WebCore31SimplifiedBackwardsTextIterator5rangeEv
__ZN7WebCore5Range6createEN3WTF10PassRefPtrINS_8DocumentEEENS2_INS_4NodeEEEiS6_i
__ZNK7WebCore5Range14startContainerERi
__ZN7WebCore5RangeD1Ev
__ZN7WebCore5RangeD2Ev
__ZN7WebCore8Document11detachRangeEPNS_5RangeE
__ZN3WTF9HashTableIPN7WebCore5RangeES3_NS_17IdentityExtractorIS3_EENS_7PtrHashIS3_EENS_10HashTraitsIS3_EES9_E4findIS3_NS_22IdentityHashTranslatorIS3_S3_S7_EEEENS_17HashTableIteratorIS3_S3_S5_S7_S9_S9_EERKT_
__ZN3WTF9HashTableIPN7WebCore5RangeES3_NS_17IdentityExtractorIS3_EENS_7PtrHashIS3_EENS_10HashTraitsIS3_EES9_E47removeAndInvalidateWithoutEntryConsistencyCheckEPS3_
__ZN3WTF9HashTableIPN7WebCore5RangeES3_NS_17IdentityExtractorIS3_EENS_7PtrHashIS3_EENS_10HashTraitsIS3_EES9_E6removeEPS3_
__ZN7WebCore13nextCandidateERKNS_8PositionE
__ZNK7WebCore16PositionIterator11isCandidateEv
__ZN7WebCoreL21canonicalizeCandidateERKNS_8PositionE
__ZN7WebCore17previousCandidateERKNS_8PositionE
__ZN7WebCore16PositionIterator9decrementEv
__ZN7WebCore9endOfWordERKNS_15VisiblePositionENS_9EWordSideE
__ZN7WebCore25isFirstPositionAfterTableERKNS_15VisiblePositionE
__ZN7WebCore11isEndOfLineERKNS_15VisiblePositionE
__ZN7WebCore9endOfLineERKNS_15VisiblePositionE
__ZN7WebCoreL18endPositionForLineERKNS_15VisiblePositionE
__ZN7WebCoreL14rootBoxForLineERKNS_15VisiblePositionE
__ZN7WebCore10inSameLineERKNS_15VisiblePositionES2_
__ZN7WebCore11startOfLineERKNS_15VisiblePositionE
__ZN7WebCoreL20startPositionForLineERKNS_15VisiblePositionE
__ZN7WebCoreL36positionAvoidingFirstPositionInTableERKNS_15VisiblePositionE
__ZN7WebCore25isLastPositionBeforeTableERKNS_15VisiblePositionE
__ZNK7WebCore15VisiblePosition30honorEditableBoundaryAtOrAfterERKS0_
__ZNK7WebCore15VisiblePosition31honorEditableBoundaryAtOrBeforeERKS0_
__ZN7WebCore9SelectionC1ERKNS_15VisiblePositionES3_
__ZN7WebCore9SelectionC2ERKNS_15VisiblePositionES3_
__ZNK7WebCore9Selection7toRangeEv
-[DOMRange(WebCoreInternal) _range]
__ZNK7WebCore19SelectionController20rangeAtSentenceStartEPKNS_5RangeE
__ZN7WebCore9SelectionC1EPKNS_5RangeENS_9EAffinityE
__ZN7WebCore9SelectionC2EPKNS_5RangeENS_9EAffinityE
__ZNK7WebCore19SelectionController25_selectionAtSentenceStartERKNS_9SelectionE
__ZN7WebCore32plainTextToMallocAllocatedBufferEPKNS_5RangeERjb
__ZN7WebCore12TextIteratorC1EPKNS_5RangeEbb
__ZN7WebCore12TextIteratorC2EPKNS_5RangeEbb
__ZNK7WebCore5Range9firstNodeEv
__ZNK7WebCore5Range12pastLastNodeEv
__ZNK7WebCore4Node19traverseNextSiblingEPKS0_
__ZN7WebCore12TextIterator7advanceEv
__ZN7WebCore12TextIterator23representNodeOffsetZeroEv
__ZN7WebCoreL23shouldEmitTabBeforeNodeEPNS_4NodeE
__ZN7WebCore12TextIterator29shouldRepresentNodeOffsetZeroEv
__ZNK7WebCore19SelectionController24selectionAtDocumentStartEv
__ZN7WebCore17isStartOfDocumentERKNS_15VisiblePositionE
__ZNK7WebCore19SelectionController28characterAfterCaretSelectionEv
__ZNK7WebCore5Frame37baseWritingDirectionForSelectionStartEv
__ZNK7WebCore6Editor37baseWritingDirectionForSelectionStartEv
__ZN7WebCore6Editor23setBaseWritingDirectionENS_16WritingDirectionE
__ZN7WebCore15inSameParagraphERKNS_15VisiblePositionES2_
__ZNK7WebCore9Selection17isContentEditableEv
__ZN7WebCore18isEditablePositionERKNS_8PositionE
-[DOMNode firstChild]
-[DOMNode lastChild]
-[DOMNode(WebCoreInternal) _node]
__ZN7WebCore19SelectionController20selectRangeOnElementEjjPNS_4NodeE
__ZN7WebCore8Document11createRangeEv
__ZN7WebCore11RenderLayer19scrollRectToVisibleERKNS_7IntRectEbRKNS0_15ScrollAlignmentES6_
__ZNK7WebCore12RenderObject15localToAbsoluteENS_10FloatPointEbb
__ZN7WebCore11RenderLayer15getRectToExposeERKNS_7IntRectES3_RKNS0_15ScrollAlignmentES6_
__ZNK7WebCore9RenderBox28canBeProgramaticallyScrolledEb
__ZNK7WebCore10ScrollView23actualVisualContentRectEv
-[WAKScrollView contentsPoint]
-[WAKView convertPoint:fromView:]
_WKViewConvertPointFromBase
__ZL36_WKViewGetAncestorViewsIncludingViewP6WKViewPS0_jPj
_WKViewConvertPointFromSuperview
-[WAKScrollView actualDocumentVisibleRect]
-[WAKWindow visibleRect]
-[WAKView convertRect:fromView:]
_WKViewConvertRectFromBase
__ZN7WebCore9FrameView29scrollRectIntoViewRecursivelyERKNS_7IntRectE
__ZN7WebCore10ScrollView29scrollRectIntoViewRecursivelyERKNS_7IntRectE
__ZN7WebCore10ScrollView17setScrollPositionERKNS_8IntPointE
__ZN7WebCore10ScrollView25platformSetScrollPositionERKNS_8IntPointE
-[WAKView scrollPoint:]
_WKViewScrollToPoint
_WKViewConvertPointToBase
_WKViewConvertPointToSuperview
_WKScrollViewScrollToPoint
__ZL13_shouldScrollP12WKScrollView7CGPointPv
-[WAKScrollView delegate]
__ZNK7WebCore9FrameView10hostWindowEv
__ZNK7WebCore6Chrome18scrollRectIntoViewERKNS_7IntRectEPKNS_10ScrollViewE
-[WAKClipView documentView]
-[WAKView scrollRectToVisible:]
_WKViewScrollToRect
_WKViewGetVisibleRect
_WebThreadAdoptAndRelease
__ZN7WebCore12CSSValueListD0Ev
__ZN3WTF6VectorINS_6RefPtrIN7WebCore8CSSValueEEELm0EE6shrinkEm
__ZN7WebCore15FontFamilyValueD0Ev
__ZN7WebCore17CSSPrimitiveValueD2Ev
__ZL28HandleWebThreadReleaseSourcePv
-[DOMRange dealloc]
-[DOMObject dealloc]
__ZN7WebCore16removeDOMWrapperEP17DOMObjectInternal
-[WebScriptObject dealloc]
-[DOMCSSStyleDeclaration dealloc]
__ZN7WebCore26CSSMutableStyleDeclarationD0Ev
__ZN7WebCore18canTileAggresivelyEv
__ZN7WebCore17systemTotalMemoryEv
__ZN7WebCoreL16initCapabilitiesEv
__ZNK7WebCore17StyleSurroundDataeqERKS0_
__ZN7WebCore18StyleInheritedDataD1Ev
__ZN7WebCore18StyleInheritedDataD2Ev
__ZN7WebCore5Frame15sendResizeEventEv
__ZN7WebCore9FrameView18setUseSlowRepaintsEv
__ZN7WebCore9RenderBox19getOverflowClipRectEii
__ZNK7WebCore11RenderLayer22verticalScrollbarWidthEv
__ZNK7WebCore11RenderLayer25horizontalScrollbarHeightEv
__ZN7WebCore15GraphicsContext4clipERKNS_9FloatRectE
__ZN7WebCore9RenderBox15popContentsClipERNS_12RenderObject9PaintInfoENS_10PaintPhaseEii
__ZN7WebCore11RenderLayer21paintOverflowControlsEPNS_15GraphicsContextEiiRKNS_7IntRectE
__ZN7WebCore11RenderLayer17paintScrollCornerEPNS_15GraphicsContextEiiRKNS_7IntRectE
__ZN7WebCoreL16scrollCornerRectEPKNS_11RenderLayerERKNS_7IntRectE
__ZN7WebCore11RenderLayer12paintResizerEPNS_15GraphicsContextEiiRKNS_7IntRectE
__ZNK7WebCore11RenderBlock17offsetForContentsERiS1_
__ZNK7WebCore11RenderLayer24addScrolledContentOffsetERiS1_
__ZNK7WebCore5Frame10paintCaretEPNS_15GraphicsContextEiiRKNS_7IntRectE
__ZN7WebCore12RenderObject12paintOutlineEPNS_15GraphicsContextEiiiiPKNS_11RenderStyleE
__ZN7WebCore5themeEv
__ZN7WebCore11RenderThemeC2Ev
__ZNK7WebCore11RenderTheme17supportsFocusRingEPKNS_11RenderStyleE
__ZN7WebCore15GraphicsContext13initFocusRingEii
__ZN7WebCore15GraphicsContext14clearFocusRingEv
__ZN7WebCore10RenderFlow17addFocusRingRectsEPNS_15GraphicsContextEii
__ZN7WebCore15GraphicsContext16addFocusRingRectERKNS_7IntRectE
__ZN7WebCore15GraphicsContext13drawFocusRingERKNS_5ColorE
__ZN7WebCore12TextIterator11rangeLengthEPKNS_5RangeEb
-[WAKResponder tryToPerform:with:]
__ZN7WebCore10StringImpl7replaceEtt
__ZNK7WebCore6Editor7canEditEv
__ZN7WebCore6Editor10insertTextERKNS_6StringEPNS_5EventE
__ZN7WebCore12EventHandler20handleTextInputEventERKNS_6StringEPNS_5EventEbb
__ZN7WebCoreL26eventTargetNodeForDocumentEPNS_8DocumentE
__ZN7WebCore9FrameView25resetDeferredRepaintDelayEv
__ZN7WebCore9TextEventC1EN3WTF10PassRefPtrINS_9DOMWindowEEERKNS_6StringE
__ZN7WebCore9TextEventC2EN3WTF10PassRefPtrINS_9DOMWindowEEERKNS_6StringE
__ZThn32_N7WebCore15EventTargetNode13dispatchEventEN3WTF10PassRefPtrINS_5EventEEERi
__ZNK7WebCore9TextEvent11isTextEventEv
__ZN7WebCore12EventHandler28defaultTextInputEventHandlerEPNS_9TextEventE
__ZN7WebCore6Editor33insertTextWithoutSendingTextEventERKNS_6StringEbPNS_5EventE
__ZN7WebCore6Editor19selectionForCommandEPNS_5EventE
__ZThn32_N7WebCore15EventTargetNode6toNodeEv
__ZN7WebCore15EventTargetNode6toNodeEv
__ZNK7WebCore6Editor16shouldInsertTextERKNS_6StringEPNS_5RangeENS_18EditorInsertActionE
__ZN7WebCore13TypingCommand10insertTextEPNS_8DocumentERKNS_6StringERKNS_9SelectionEbb
__ZN7WebCore23BeforeTextInsertedEventC1ERKNS_6StringE
__ZN7WebCore23BeforeTextInsertedEventC2ERKNS_6StringE
__ZN7WebCore23BeforeTextInsertedEventD0Ev
__ZN7WebCore13TypingCommandC1EPNS_8DocumentENS0_14ETypingCommandERKNS_6StringEbNS_15TextGranularityEb
__ZN7WebCore13TypingCommandC2EPNS_8DocumentENS0_14ETypingCommandERKNS_6StringEbNS_15TextGranularityEb
__ZN7WebCore20CompositeEditCommandC2EPNS_8DocumentE
__ZN7WebCore11EditCommandC2EPNS_8DocumentE
__ZN7WebCore25avoidIntersectionWithNodeERKNS_9SelectionEPNS_4NodeE
__ZN7WebCore11EditCommand20setStartingSelectionERKNS_9SelectionE
__ZN7WebCore11EditCommand18setEndingSelectionERKNS_9SelectionE
__ZN7WebCore12applyCommandEN3WTF10PassRefPtrINS_11EditCommandEEE
__ZN7WebCore11EditCommand5applyEv
__ZNK7WebCore9Selection23isContentRichlyEditableEv
__ZN7WebCore24isRichlyEditablePositionERKNS_8PositionE
__ZNK7WebCore11HTMLElement23isContentRichlyEditableEv
__ZNK7WebCore11EditCommand12updateLayoutEv
__ZN7WebCore13TypingCommand7doApplyEv
__ZN7WebCore13TypingCommand10insertTextERKNS_6StringEb
__ZN7WebCore13TypingCommand28insertTextRunWithoutNewlinesERKNS_6StringEb
__ZNK7WebCore5Frame11typingStyleEv
__ZN7WebCore17InsertTextCommandC1EPNS_8DocumentE
__ZN7WebCore17InsertTextCommandC2EPNS_8DocumentE
__ZN7WebCore20CompositeEditCommand23applyCommandToCompositeEN3WTF10PassRefPtrINS_11EditCommandEEE
__ZN7WebCore11EditCommand9setParentEPNS_20CompositeEditCommandE
__ZN7WebCore17InsertTextCommand7doApplyEv
__ZN3WTF6VectorINS_6RefPtrIN7WebCore11EditCommandEEELm0EE14expandCapacityEm
__ZN3WTF6VectorINS_6RefPtrIN7WebCore11EditCommandEEELm0EE15reserveCapacityEm
__ZN7WebCore17InsertTextCommand5inputERKNS_6StringEb
__ZN7WebCore18positionBeforeNodeEPKNS_4NodeE
__ZN7WebCore20CompositeEditCommand23deleteInsignificantTextERKNS_8PositionES3_
__ZN7WebCore5Range21compareBoundaryPointsERKNS_8PositionES3_
__ZN7WebCore20CompositeEditCommand38positionAvoidingSpecialElementBoundaryERKNS_8PositionE
__ZN7WebCore22enclosingAnchorElementERKNS_8PositionE
__ZN7WebCore17InsertTextCommand23prepareForTextInsertionERKNS_8PositionE
__ZN7WebCore8Document21createEditingTextNodeERKNS_6StringE
__ZN7WebCore11EditingTextC1EPNS_8DocumentERKNS_6StringE
__ZN7WebCore11EditingTextC2EPNS_8DocumentERKNS_6StringE
__ZN7WebCore4TextC2EPNS_8DocumentERKNS_6StringE
__ZN7WebCore13CharacterDataC2EPNS_8DocumentERKNS_6StringEb
__ZN7WebCore20CompositeEditCommand12insertNodeAtEN3WTF10PassRefPtrINS_4NodeEEERKNS_8PositionE
__ZN7WebCore20CompositeEditCommand10appendNodeEN3WTF10PassRefPtrINS_4NodeEEENS2_INS_7ElementEEE
__ZN7WebCore17AppendNodeCommandC1EN3WTF10PassRefPtrINS_7ElementEEENS2_INS_4NodeEEE
__ZN7WebCore17AppendNodeCommandC2EN3WTF10PassRefPtrINS_7ElementEEENS2_INS_4NodeEEE
__ZN7WebCore17AppendNodeCommand7doApplyEv
__ZNK7WebCore4Text8nodeTypeEv
__ZN7WebCore4Node16insertedIntoTreeEb
__ZN7WebCore4Text6attachEv
__ZN7WebCore11EditingText16rendererIsNeededEPNS_11RenderStyleE
__ZN7WebCore4Text14createRendererEPNS_11RenderArenaEPNS_11RenderStyleE
__ZN7WebCore10RenderTextC1EPNS_4NodeEN3WTF10PassRefPtrINS_10StringImplEEE
__ZN7WebCore10RenderTextC2EPNS_4NodeEN3WTF10PassRefPtrINS_10StringImplEEE
__ZN7WebCore10RenderText15styleWillChangeENS_15StyleDifferenceEPKNS_11RenderStyleE
__ZN7WebCore10RenderText14styleDidChangeENS_15StyleDifferenceEPKNS_11RenderStyleE
__ZNK7WebCore12RenderObject13isRenderBlockEv
__ZNK7WebCore12RenderObject10firstChildEv
__ZN7WebCore10RenderFlow26dirtyLinesFromChangedChildEPNS_12RenderObjectE
__ZN7WebCore5Range19nodeChildrenChangedEPNS_13ContainerNodeE
__ZN7WebCoreL9bidiFirstEPNS_11RenderBlockEPNS_12BidiResolverINS_14InlineIteratorENS_7BidiRunEEEb
__ZN7WebCore10RenderText14dirtyLineBoxesEbb
__ZN7WebCore10RenderText15deleteTextBoxesEv
__ZN7WebCore11RenderBlock22determineStartPositionERbRNS_12BidiResolverINS_14InlineIteratorENS_7BidiRunEEERN3WTF6VectorINS0_13FloatWithRectELm0EEERj
__ZN7WebCore12BidiResolverINS_14InlineIteratorENS_7BidiRunEE23commitExplicitEmbeddingEv
__ZN3WTF6VectorINS_7Unicode9DirectionELm8EE14shrinkCapacityEm
__ZN7WebCore11RenderBlock17findNextLineBreakERNS_12BidiResolverINS_14InlineIteratorENS_7BidiRunEEEPNS_6EClearE
__ZN7WebCore11RenderBlock21skipLeadingWhitespaceERNS_12BidiResolverINS_14InlineIteratorENS_7BidiRunEEE
__ZNK7WebCore12RenderObject9isSVGTextEv
__ZN7WebCoreL11inlineWidthEPNS_12RenderObjectEbb
__ZNK7WebCore10RenderText11isWordBreakEv
__ZNK7WebCore10RenderText5widthEjjRKNS_4FontEi
__ZN7WebCoreL14checkMidpointsERNS_14InlineIteratorE
__ZN7WebCore11FrameLoader30didFirstVisuallyNonEmptyLayoutEv
__ZNK7WebCore4Node17isContentEditableEv
__ZNK7WebCore10RenderText16linesBoundingBoxEv
__ZNK7WebCore12RenderObject14nextInPreOrderEv
__ZN7WebCore20CompositeEditCommand19removePlaceholderAtERKNS_15VisiblePositionE
__ZNK7WebCore13CharacterData18offsetInCharactersEv
__ZNK7WebCore13CharacterData18maxCharacterOffsetEv
__ZN7WebCore12isEndOfBlockERKNS_15VisiblePositionE
__ZN7WebCore10endOfBlockERKNS_15VisiblePositionE
__ZN7WebCore8Position23uncheckedPreviousOffsetEPKNS_4NodeEi
__ZNK7WebCore12RenderObject14previousOffsetEi
__ZN7WebCore25lineBreakExistsAtPositionERKNS_15VisiblePositionE
__ZN7WebCore20CompositeEditCommand18insertTextIntoNodeEN3WTF10PassRefPtrINS_4TextEEEjRKNS_6StringE
__ZN7WebCore25InsertIntoTextNodeCommandC1EN3WTF10PassRefPtrINS_4TextEEEjRKNS_6StringE
__ZN7WebCore25InsertIntoTextNodeCommandC2EN3WTF10PassRefPtrINS_4TextEEEjRKNS_6StringE
__ZN7WebCore25InsertIntoTextNodeCommand7doApplyEv
__ZN7WebCore13CharacterData10insertDataEjRKNS_6StringERi
__ZN7WebCore13CharacterData22checkCharDataOperationEjRi
__ZN7WebCore6String6insertERKS0_j
__ZN7WebCore6String6insertEPKtjj
__ZN7WebCore6String6appendEPKtj
__ZN7WebCore10RenderText17setTextWithOffsetEN3WTF10PassRefPtrINS_10StringImplEEEjjb
__ZN7WebCore10RenderText7setTextEN3WTF10PassRefPtrINS_10StringImplEEEb
__ZN7WebCore10RenderText15setTextInternalEN3WTF10PassRefPtrINS_10StringImplEEE
__ZN7WebCore13CharacterData21dispatchModifiedEventEPNS_10StringImplE
__ZN7WebCore8Document12textInsertedEPNS_4NodeEjj
__ZN7WebCore5Range12textInsertedEPNS_4NodeEjj
__ZN7WebCore8Document12shiftMarkersEPNS_4NodeEjiNS_14DocumentMarker10MarkerTypeE
__ZNK3WTF7HashMapINS_6RefPtrIN7WebCore4NodeEEEPSt4pairINS_6VectorINS2_14DocumentMarkerELm0EEENS6_INS2_7IntRectELm0EEEENS_7PtrHashIS4_EENS_10HashTraitsIS4_EENSF_ISC_EEE3getEPS3_
__ZN7WebCore20CompositeEditCommand21rebalanceWhitespaceAtERKNS_8PositionE
__ZN7WebCore9Selection20setWithoutValidationERKNS_8PositionES3_
__ZNK7WebCore8Position13computedStyleEv
__ZNK7WebCore8Position7elementEv
__ZN7WebCore27CSSComputedStyleDeclarationC1EN3WTF10PassRefPtrINS_4NodeEEE
__ZN7WebCore27CSSComputedStyleDeclarationC2EN3WTF10PassRefPtrINS_4NodeEEE
__ZNK7WebCore19CSSStyleDeclaration4diffEPNS_26CSSMutableStyleDeclarationE
__ZN7WebCore9SelectionC1ERKNS_8PositionENS_9EAffinityE
__ZN7WebCore9SelectionC2ERKNS_8PositionENS_9EAffinityE
__ZNK7WebCore10RenderText12maxPrefWidthEv
__ZN7WebCore10RenderText14calcPrefWidthsEi
__ZNK7WebCore4Font12isFixedPitchEv
__ZNK7WebCore16FontFallbackList14determinePitchEPKNS_4FontE
__ZN7WebCore11RenderBlock15bidiReorderLineERNS_12BidiResolverINS_14InlineIteratorENS_7BidiRunEEERKS2_
__ZN7WebCore12BidiResolverINS_14InlineIteratorENS_7BidiRunEE21createBidiRunsForLineERKS1_bb
__ZN7WebCore12BidiResolverINS_14InlineIteratorENS_7BidiRunEE9appendRunEv
__ZNK7WebCore10RenderText6lengthEv
__ZN7WebCoreL19appendRunsForObjectEiiPNS_12RenderObjectERNS_12BidiResolverINS_14InlineIteratorENS_7BidiRunEEE
__ZN7WebCore7BidiRunnwEmPNS_11RenderArenaE
__ZN7WebCore11RenderBlock13constructLineEjPNS_7BidiRunES2_bPNS_12RenderObjectE
__ZN7WebCore10RenderText15createInlineBoxEbbb
__ZN7WebCore10RenderText19createInlineTextBoxEv
__ZN7WebCore9InlineBoxnwEmPNS_11RenderArenaE
__ZN7WebCore11RenderBlock15createLineBoxesEPNS_12RenderObjectE
__ZN7WebCore10RenderFlow15createInlineBoxEbbb
__ZN7WebCore13InlineFlowBox9addToLineEPNS_9InlineBoxE
__ZNK7WebCore13InlineTextBox6isTextEv
__ZNK7WebCore10RenderText14selectionStateEv
__ZN7WebCore13InlineTextBox15isInlineTextBoxEv
__ZN7WebCore13InlineFlowBox28determineSpacingForFlowBoxesEbPNS_12RenderObjectE
__ZN7WebCore9InlineBox15isInlineFlowBoxEv
__ZN7WebCore13InlineFlowBox14setConstructedEv
__ZN7WebCore9InlineBox14setConstructedEv
__ZN7WebCore11RenderBlock33computeHorizontalPositionsForLineEPNS_13RootInlineBoxEPNS_7BidiRunES4_b
__ZN7WebCore13InlineFlowBox19getFlowSpacingWidthEv
__ZN7WebCore13InlineFlowBox23marginBorderPaddingLeftEv
__ZN7WebCore13InlineFlowBox10marginLeftEv
__ZN7WebCore13InlineFlowBox24marginBorderPaddingRightEv
__ZN7WebCore13InlineFlowBox11marginRightEv
__ZNK7WebCore13InlineTextBox11isLineBreakEv
__ZNK7WebCore10RenderText5widthEjjib
__ZN7WebCore13InlineFlowBox22placeBoxesHorizontallyEiRiS1_Rb
__ZN7WebCore11RenderBlock31computeVerticalPositionsForLineEPNS_13RootInlineBoxEPNS_7BidiRunE
__ZN7WebCore13InlineFlowBox20verticallyAlignBoxesEi
__ZN7WebCore13InlineFlowBox24computeLogicalBoxHeightsERiS1_S1_S1_b
__ZN7WebCore13RootInlineBox15isRootInlineBoxEv
__ZNK7WebCore11RenderBlock16baselinePositionEbb
__ZNK7WebCore12RenderObject16baselinePositionEbb
__ZNK7WebCore10RenderText10lineHeightEbb
__ZNK7WebCore10RenderText20verticalPositionHintEb
__ZNK7WebCore12RenderObject20verticalPositionHintEb
__ZNK7WebCore12RenderObject19getVerticalPositionEb
__ZN7WebCore13InlineFlowBox20placeBoxesVerticallyEiiibRiS1_S1_S1_
__ZN7WebCore13RootInlineBox28setVerticalOverflowPositionsEii
__ZN7WebCore13RootInlineBox29setVerticalSelectionPositionsEii
__ZN7WebCore13InlineFlowBox29shrinkBoxesWithNoTextChildrenEii
__ZN7WebCore13RootInlineBox14bottomOverflowEv
__ZN7WebCore10RenderText8positionEPNS_9InlineBoxE
__ZN7WebCore13RootInlineBox36computePerCharacterLayoutInformationEv
__ZN7WebCore12BidiResolverINS_14InlineIteratorENS_7BidiRunEE10deleteRunsEv
__ZN7WebCore7BidiRun7destroyEv
__ZN7WebCore7BidiRundlEPvm
__ZN7WebCore13RootInlineBox16setLineBreakInfoEPNS_12RenderObjectEjRKNS_10BidiStatusE
__ZN7WebCore11RenderBlock7newLineENS_6EClearE
__ZN7WebCore11RenderBlock17positionNewFloatsEv
__ZN7WebCore13RootInlineBox12leftOverflowEv
__ZN7WebCore13RootInlineBox11topOverflowEv
__ZN7WebCore13RootInlineBox13rightOverflowEv
__ZNK7WebCore8Position14inRenderedTextEv
__ZNK7WebCore13InlineTextBox19containsCaretOffsetEi
__ZNK7WebCore10RenderText14previousOffsetEi
__ZN7WebCore22characterBreakIteratorEPKti
__ZN7WebCoreL13setUpIteratorERbRPNS_17TextBreakIteratorE18UBreakIteratorTypePKti
__ZN7WebCore24currentTextBreakLocaleIDEv
__ZN7WebCore18textBreakPrecedingEPNS_17TextBreakIteratorEi
__ZNK7WebCore10RenderText10nextOffsetEi
__ZN7WebCore18textBreakFollowingEPNS_17TextBreakIteratorEi
__ZN7WebCore27CSSComputedStyleDeclarationD0Ev
__ZN7WebCore13TypingCommand24typingAddedToOpenCommandEv
__ZN7WebCore6Editor14appliedEditingEN3WTF10PassRefPtrINS_11EditCommandEEE
__ZN7WebCoreL36dispatchEditableContentChangedEventsERKNS_11EditCommandE
__ZN7WebCore6Editor27changeSelectionAfterCommandERKNS_9SelectionEbbPNS_11EditCommandE
__ZNK7WebCore5Frame21shouldChangeSelectionERKNS_9SelectionE
__ZNK7WebCore5Frame21shouldChangeSelectionERKNS_9SelectionES3_NS_9EAffinityEb
__ZN7WebCore12TextIterator14handleTextNodeEv
__ZN7WebCore12TextIterator13handleTextBoxEv
__ZN7WebCore12TextIterator8emitTextEPNS_4NodeEii
__ZNK7WebCore4Node16traverseNextNodeEPKS0_
__ZNK7WebCore12RenderObject11isBlockFlowEv
__ZNK7WebCore13InlineTextBox14caretMinOffsetEv
__ZNK7WebCore13InlineTextBox14caretMaxOffsetEv
__ZNK7WebCore12RenderObject14nextInPreOrderEPS0_
__ZNK7WebCore12RenderObject27nextInPreOrderAfterChildrenEPS0_
__ZN7WebCore9InlineBox13nextLeafChildEv
__ZN7WebCore13InlineFlowBox22firstLeafChildAfterBoxEPNS_9InlineBoxE
__ZN7WebCore10RenderText14localCaretRectEPNS_9InlineBoxEiPi
__ZN7WebCore9InlineBox4rootEv
__ZNK7WebCore13InlineTextBox17positionForOffsetEi
__ZNK7WebCore13InlineTextBox7textPosEv
__ZNK7WebCore4Font20selectionRectForTextERKNS_7TextRunERKNS_8IntPointEiii
__ZNK7WebCore4Font26selectionRectForSimpleTextERKNS_7TextRunERKNS_8IntPointEiii
__ZNK7WebCore12RenderObject19offsetFromContainerEPS0_
__ZNK7WebCore13TypingCommand20preservesTypingStyleEv
__ZN7WebCore5Frame14setTypingStyleEPNS_26CSSMutableStyleDeclarationE
__ZNK7WebCore13TypingCommand13editingActionEv
__ZN7WebCore6Editor24respondToChangedContentsERKNS_9SelectionE
-[DOMNode nodeType]
-[DOMCharacterData data]
-[DOMNode nextSibling]
_stringIsCaseInsensitiveEqualToString
__ZNK7WebCore13TypingCommand15isTypingCommandEv
__ZN7WebCore9TextEventD0Ev
__ZN7WebCore7UIEventD2Ev
__ZNK7WebCore10RenderText14caretMinOffsetEv
__ZNK7WebCore10RenderText14caretMaxOffsetEv
__ZN7WebCore4Text11recalcStyleENS_4Node11StyleChangeE
__ZN7WebCore13RootInlineBox12selectionTopEv
__ZN7WebCore13RootInlineBox5paintERNS_12RenderObject9PaintInfoEii
__ZN7WebCore13InlineFlowBox5paintERNS_12RenderObject9PaintInfoEii
__ZN7WebCore13InlineFlowBox19paintBoxDecorationsERNS_12RenderObject9PaintInfoEii
__ZN7WebCore13InlineFlowBox20paintTextDecorationsERNS_12RenderObject9PaintInfoEiib
__ZN7WebCore13InlineTextBox5paintERNS_12RenderObject9PaintInfoEii
__ZN7WebCore13InlineTextBox14selectionStateEv
__ZN7WebCore21updateGraphicsContextEPNS_15GraphicsContextERKNS_5ColorES4_f
__ZN7WebCoreL20paintTextWithShadowsEPNS_15GraphicsContextERKNS_4FontERKNS_7TextRunEiiRKNS_8IntPointEiiiiPNS_10ShadowDataEb
__ZN7WebCore15GraphicsContext14setStrokeColorERKNS_5ColorE
__ZN7WebCore15GraphicsContext8drawTextERKNS_4FontERKNS_7TextRunERKNS_8IntPointEii
__ZN7WebCore13InlineTextBox20paintDocumentMarkersEPNS_15GraphicsContextEiiPNS_11RenderStyleERKNS_4FontEb
__ZN7WebCore8Document14markersForNodeEPNS_4NodeE
__ZNK7WebCore13RootInlineBox16paintEllipsisBoxERNS_12RenderObject9PaintInfoEii
__ZN3WTF11ListHashSetIPN7WebCore10RenderFlowENS_7PtrHashIS3_EEE14deleteAllNodesEv
__ZN3WTF9HashTableIPNS_15ListHashSetNodeIPN7WebCore10RenderFlowEEES6_NS_17IdentityExtractorIS6_EENS_28ListHashSetNodeHashFunctionsIS4_NS_7PtrHashIS4_EEEENS_10HashTraitsIS6_EESE_E5clearEv
__ZN3WTF9HashTableIPNS_15ListHashSetNodeIPN7WebCore10RenderFlowEEES6_NS_17IdentityExtractorIS6_EENS_28ListHashSetNodeHashFunctionsIS4_NS_7PtrHashIS4_EEEENS_10HashTraitsIS6_EESE_E4findIS6_NS_22IdentityHashTranslatorIS6_S6_SC_EEEENS_17HashTableIteratorIS6_S6_S8_SC_SE_SE_EERKT_
__ZN3WTF9HashTableIPNS_15ListHashSetNodeIPN7WebCore10RenderFlowEEES6_NS_17IdentityExtractorIS6_EENS_28ListHashSetNodeHashFunctionsIS4_NS_7PtrHashIS4_EEEENS_10HashTraitsIS6_EESE_E13allocateTableEi
__ZN3WTF9HashTableIPNS_15ListHashSetNodeIPN7WebCore10RenderFlowEEES6_NS_17IdentityExtractorIS6_EENS_28ListHashSetNodeHashFunctionsIS4_NS_7PtrHashIS4_EEEENS_10HashTraitsIS6_EESE_E15deallocateTableEPS6_i
__ZN3WTF9HashTableIPNS_15ListHashSetNodeIPN7WebCore10RenderFlowEEES6_NS_17IdentityExtractorIS6_EENS_28ListHashSetNodeHashFunctionsIS4_NS_7PtrHashIS4_EEEENS_10HashTraitsIS6_EESE_E6rehashEi
__ZN3WTF9HashTableIPNS_15ListHashSetNodeIPN7WebCore10RenderFlowEEES6_NS_17IdentityExtractorIS6_EENS_28ListHashSetNodeHashFunctionsIS4_NS_7PtrHashIS4_EEEENS_10HashTraitsIS6_EESE_E6expandEv
__ZNK7WebCore10RenderText22caretMaxRenderedOffsetEv
__ZNK7WebCore4Node29traversePreviousNodePostOrderEPKS0_
__ZN7WebCore19SelectionController6modifyENS0_11EAlterationENS0_10EDirectionENS_15TextGranularityEb
__ZN7WebCore5Frame23setSelectionGranularityENS_15TextGranularityE
__ZN7WebCore19SelectionController14willBeModifiedENS0_11EAlterationENS0_10EDirectionE
__ZN7WebCore19SelectionController20modifyMovingBackwardENS_15TextGranularityE
__ZN7WebCore19SelectionController30xPosForVerticalArrowNavigationENS0_13EPositionTypeE
__ZNK7WebCore15VisiblePosition28xOffsetForVerticalNavigationEv
__ZNK7WebCore12RenderObject19mapLocalToContainerEPNS_9RenderBoxEbbRNS_14TransformStateE
__ZN7WebCore19SelectionController6moveToERKNS_15VisiblePositionEb
__ZN7WebCore9SelectionC1ERKNS_8PositionES3_NS_9EAffinityE
__ZN7WebCore9SelectionC2ERKNS_8PositionES3_NS_9EAffinityE
__ZN7WebCore8Position19uncheckedNextOffsetEPKNS_4NodeEi
__ZN7WebCore9InlineBox13prevLeafChildEv
__ZN7WebCore13InlineFlowBox22lastLeafChildBeforeBoxEPNS_9InlineBoxE
__ZN7WebCore13InlineFlowBox13lastLeafChildEv
__ZN7WebCore9InlineBox13lastLeafChildEv
__ZN7WebCore13InlineFlowBox14firstLeafChildEv
__ZN7WebCore9InlineBox14firstLeafChildEv
__ZN7WebCore31SimplifiedBackwardsTextIterator14handleTextNodeEv
__ZN7WebCoreL12nextBoundaryERKNS_15VisiblePositionEPFjPKtjE
__ZN3WTF6VectorItLm1024EE6appendItEEvPKT_m
__ZN7WebCoreL15endWordBoundaryEPKtj
__ZNK7WebCore12TextIterator5rangeEv
__ZN7WebCore22lowestEditableAncestorEPNS_4NodeE
-[DOMNode dealloc]
__ZNK7WebCore17InsertTextCommand19isInsertTextCommandEv
__ZN7WebCore17isTabSpanTextNodeEPKNS_4NodeE
__ZN7WebCore13isTabSpanNodeEPKNS_4NodeE
__ZN7WebCore9InlineBox14dirtyLineBoxesEv
__ZN7WebCore11RenderBlock20determineEndPositionEPNS_13RootInlineBoxERNS_14InlineIteratorERNS_10BidiStatusERi
__ZN7WebCore13InlineFlowBox10deleteLineEPNS_11RenderArenaE
__ZN7WebCore13InlineTextBox10deleteLineEPNS_11RenderArenaE
__ZN7WebCore10RenderText13removeTextBoxEPNS_13InlineTextBoxE
__ZN7WebCore9InlineBox7destroyEPNS_11RenderArenaE
__ZN7WebCore13InlineTextBoxD0Ev
__ZN7WebCore9InlineBoxdlEPvm
__ZN7WebCore10RenderFlow13removeLineBoxEPNS_13InlineFlowBoxE
__ZN7WebCore13RootInlineBox7destroyEPNS_11RenderArenaE
__ZN7WebCore13RootInlineBox17detachEllipsisBoxEPNS_11RenderArenaE
__ZN7WebCore13RootInlineBoxD0Ev
__ZN7WebCore12RenderObject16repaintRectangleERKNS_7IntRectEb
__ZN7WebCore6Editor24insertParagraphSeparatorEv
__ZNK7WebCore6Editor13canEditRichlyEv
__ZNK7WebCore4Node23isContentRichlyEditableEv
__ZN7WebCore6Editor17confirmMarkedTextEv
__ZN7WebCore6Editor18confirmCompositionEv
__ZN7WebCore15EventTargetNode17dispatchBlurEventEv
__ZN7WebCore6Editor13didEndEditingEv
-[DOMHTMLElement(DOMHTMLElementExtensions) scrollXOffset]
-[DOMHTMLElement(DOMHTMLElementExtensions) scrollYOffset]
__ZN7WebCore11FrameLoader4loadERKNS_15ResourceRequestEb
__ZN7WebCore11FrameLoader4loadERKNS_15ResourceRequestERKNS_14SubstituteDataEb
__ZN7WebCore11FrameLoader4loadEPNS_14DocumentLoaderE
__ZN7WebCore14DocumentLoader7requestEv
__ZN7WebCore11FrameLoader35addExtraFieldsToMainResourceRequestERNS_15ResourceRequestE
__ZN7WebCore11FrameLoader23addExtraFieldsToRequestERNS_15ResourceRequestENS_13FrameLoadTypeEbb
__ZN7WebCore11FrameLoader14applyUserAgentERNS_15ResourceRequestE
__ZN7WebCore15ResourceRequest23doUpdateResourceRequestEv
__ZN7WebCore19ResourceRequestBase18setHTTPHeaderFieldERKNS_12AtomicStringERKNS_6StringE
__ZN3WTF7HashMapIN7WebCore12AtomicStringENS1_6StringENS1_15CaseFoldingHashENS_10HashTraitsIS2_EENS5_IS3_EEE3setERKS2_RKS3_
__ZNK7WebCore19ResourceRequestBase15mainDocumentURLEv
__ZNK7WebCore11FrameLoader18isLoadingMainFrameEv
__ZN7WebCore19ResourceRequestBase18setMainDocumentURLERKNS_4KURLE
__ZN7WebCore11FrameLoader21addHTTPOriginIfNeededERNS_15ResourceRequestENS_6StringE
__ZNK7WebCore19ResourceRequestBase15httpHeaderFieldERKNS_12AtomicStringE
__ZNK7WebCore19ResourceRequestBase10httpMethodEv
__ZN7WebCore19ResourceRequestBase50setResponseContentDispositionEncodingFallbackArrayERKNS_6StringES3_S3_
__ZN3WTF6VectorIN7WebCore6StringELm0EE14expandCapacityEmPKS2_
__ZN3WTF6VectorIN7WebCore6StringELm0EE14expandCapacityEm
__ZN3WTF6VectorIN7WebCore6StringELm0EE15reserveCapacityEm
__ZNK7WebCore14DocumentLoader15originalRequestEv
__ZNK7WebCore11FrameLoader29shouldTreatURLAsSameAsCurrentERKNS_4KURLE
__ZN7WebCore11FrameLoader34shouldReloadToHandleUnreachableURLEPNS_14DocumentLoaderE
__ZNK7WebCore14DocumentLoader14unreachableURLEv
__ZN7WebCore11FrameLoader22loadWithDocumentLoaderEPNS_14DocumentLoaderENS_13FrameLoadTypeEN3WTF10PassRefPtrINS_9FormStateEEE
__ZN7WebCore11FrameLoader20shouldScrollToAnchorEbNS_13FrameLoadTypeERKNS_4KURLE
__ZN7WebCore11FrameLoader12shouldReloadERKNS_4KURLES3_
__ZNK7WebCore4KURL6hasRefEv
__ZN7WebCore11FrameLoader15stopPolicyCheckEv
__ZN7WebCore11PolicyCheck5clearEv
__ZN7WebCore11PolicyCheck12clearRequestEv
__ZN3WTF6VectorIN7WebCore6StringELm0EEaSERKS3_
__ZN7WebCore11PolicyCheck6cancelEv
__ZN7WebCore11FrameLoader21checkNavigationPolicyERKNS_15ResourceRequestEPNS_14DocumentLoaderEN3WTF10PassRefPtrINS_9FormStateEEEPFvPvS3_S9_bESA_
__ZN7WebCore16NavigationActionC1ERKNS_4KURLENS_14NavigationTypeE
__ZN7WebCore16NavigationActionC2ERKNS_4KURLENS_14NavigationTypeE
__ZN7WebCore25equalIgnoringHeaderFieldsERKNS_19ResourceRequestBaseES2_
__ZNK7WebCore19ResourceRequestBase6isNullEv
__ZN7WebCore11PolicyCheck3setERKNS_15ResourceRequestEN3WTF10PassRefPtrINS_9FormStateEEEPFvPvS3_S7_bES8_
__ZNK7WebCore4KURL11createCFURLEv
__ZNK7WebCore4KURL12copyToBufferERN3WTF6VectorIcLm512EEE
__ZNK7WebCore15ResourceRequest12nsURLRequestEv
__ZNK7WebCore19ResourceRequestBase21updatePlatformRequestEv
__ZN7WebCore15ResourceRequest23doUpdatePlatformRequestEv
__ZNK7WebCore19ResourceRequestBase11cachePolicyEv
__ZNK7WebCore19ResourceRequestBase15timeoutIntervalEv
__ZNK7WebCore19ResourceRequestBase16allowHTTPCookiesEv
__ZNK7WebCore19ResourceRequestBase16httpHeaderFieldsEv
__ZNK7WebCore19ResourceRequestBase8httpBodyEv
__ZNK7WebCore11FrameLoader14frameHasLoadedEv
__ZN7WebCore11FrameLoader29continueAfterNavigationPolicyENS_12PolicyActionE
__ZN3WTF6VectorIN7WebCore6StringELm0EE6shrinkEm
__ZN7WebCore11PolicyCheck4callEb
__ZN7WebCore11FrameLoader37callContinueLoadAfterNavigationPolicyEPvRKNS_15ResourceRequestEN3WTF10PassRefPtrINS_9FormStateEEEb
__ZN7WebCore11FrameLoader33continueLoadAfterNavigationPolicyERKNS_15ResourceRequestEN3WTF10PassRefPtrINS_9FormStateEEEb
__ZN7WebCore5Frame11shouldCloseEv
__ZN7WebCore6Chrome30canRunBeforeUnloadConfirmPanelEv
__ZN7WebCore11FrameLoader14stopAllLoadersEv
__ZN7WebCore11FrameLoader20stopLoadingSubframesEv
__ZN7WebCore14DocumentLoader11stopLoadingEv
__ZN7WebCoreL9cancelAllERKN3WTF7HashSetINS0_6RefPtrINS_14ResourceLoaderEEENS0_7PtrHashIS4_EENS0_10HashTraitsIS4_EEEE
__ZN3WTF9HashTableINS_6RefPtrIN7WebCore14ResourceLoaderEEES4_NS_17IdentityExtractorIS4_EENS_7PtrHashIS4_EENS_10HashTraitsIS4_EESA_EC1ERKSB_
__ZN3WTF9HashTableINS_6RefPtrIN7WebCore14ResourceLoaderEEES4_NS_17IdentityExtractorIS4_EENS_7PtrHashIS4_EENS_10HashTraitsIS4_EESA_E4findIS4_NS_22IdentityHashTranslatorIS4_S4_S8_EEEENS_17HashTableIteratorIS4_S4_S6_S8_SA_SA_EERKT_
__ZN3WTF9HashTableINS_6RefPtrIN7WebCore14ResourceLoaderEEES4_NS_17IdentityExtractorIS4_EENS_7PtrHashIS4_EENS_10HashTraitsIS4_EESA_E13allocateTableEi
__ZN3WTF9HashTableINS_6RefPtrIN7WebCore14ResourceLoaderEEES4_NS_17IdentityExtractorIS4_EENS_7PtrHashIS4_EENS_10HashTraitsIS4_EESA_E15deallocateTableEPS4_i
__ZN3WTF9HashTableINS_6RefPtrIN7WebCore14ResourceLoaderEEES4_NS_17IdentityExtractorIS4_EENS_7PtrHashIS4_EENS_10HashTraitsIS4_EESA_E6rehashEi
__ZN3WTF9HashTableINS_6RefPtrIN7WebCore14ResourceLoaderEEES4_NS_17IdentityExtractorIS4_EENS_7PtrHashIS4_EENS_10HashTraitsIS4_EESA_E6removeEPS4_
__ZN3WTF9HashTableINS_6RefPtrIN7WebCore14ResourceLoaderEEES4_NS_17IdentityExtractorIS4_EENS_7PtrHashIS4_EENS_10HashTraitsIS4_EESA_E47removeAndInvalidateWithoutEntryConsistencyCheckEPS4_
__ZN3WTF9HashTableINS_6RefPtrIN7WebCore14ResourceLoaderEEES4_NS_17IdentityExtractorIS4_EENS_7PtrHashIS4_EENS_10HashTraitsIS4_EESA_E6expandEv
__ZN3WTF9HashTableINS_6RefPtrIN7WebCore14ResourceLoaderEEES4_NS_17IdentityExtractorIS4_EENS_7PtrHashIS4_EENS_10HashTraitsIS4_EESA_EC2ERKSB_
__ZN7WebCore14DocumentLoader21clearArchiveResourcesEv
__ZN7WebCore11FrameLoader31continueLoadAfterWillSubmitFormENS_12PolicyActionE
__ZN7WebCore14DocumentLoader19prepareForLoadStartEv
__ZN7WebCore14DocumentLoader22setPrimaryLoadCompleteEb
__ZN7WebCore14DocumentLoader11clearErrorsEv
__ZN7WebCore11FrameLoader19prepareForLoadStartEv
__ZN7WebCore15ProgressTracker15progressStartedEPNS_5FrameE
__ZN7WebCore15ProgressTracker5resetEv
__ZN3WTF20deleteAllPairSecondsIPN7WebCore12ProgressItemEKNS_7HashMapImS3_NS_7IntHashImEENS_10HashTraitsImEENS7_IS3_EEEEEEvRT0_
__ZNK7WebCore11FrameLoader25provisionalDocumentLoaderEv
__ZN7WebCore4Page16setDefersLoadingEb
__ZN7WebCore11FrameLoader16setDefersLoadingEb
__ZN7WebCore14DocumentLoader16setDefersLoadingEb
__ZN7WebCoreL19setAllDefersLoadingERKN3WTF7HashSetINS0_6RefPtrINS_14ResourceLoaderEEENS0_7PtrHashIS4_EENS0_10HashTraitsIS4_EEEEb
__ZNK7WebCore11FrameLoader20activeDocumentLoaderEv
__ZNK7WebCore14DocumentLoader21isLoadingMainResourceEv
__ZN7WebCore15ProgressTracker22createUniqueIdentifierEv
__ZN7WebCore11FrameLoader40dispatchAssignIdentifierToInitialRequestEmPNS_14DocumentLoaderERKNS_15ResourceRequestE
__ZN7WebCore14DocumentLoader24startLoadingMainResourceEm
__ZN7WebCore18MainResourceLoader6createEPNS_5FrameE
__ZN7WebCore18MainResourceLoaderC1EPNS_5FrameE
__ZN7WebCore18MainResourceLoaderC2EPNS_5FrameE
__ZN7WebCore14ResourceLoaderC2EPNS_5FrameEbb
__ZN7WebCore18MainResourceLoader4loadERKNS_15ResourceRequestERKNS_14SubstituteDataE
__ZNK7WebCore14ResourceLoader11frameLoaderEv
__ZN7WebCore21ApplicationCacheGroup19cacheForMainRequestERKNS_15ResourceRequestEPNS_14DocumentLoaderE
__ZN7WebCore16ApplicationCache23requestIsHTTPOrHTTPSGetERKNS_15ResourceRequestE
__ZN7WebCore23ApplicationCacheStorage16cacheGroupForURLERKNS_4KURLE
__ZN7WebCore23ApplicationCacheStorage22loadManifestHostHashesEv
__ZN7WebCore23ApplicationCacheStorage12openDatabaseEb
__ZN7WebCore24pathByAppendingComponentERKNS_6StringES2_
__ZN7WebCore10StringImpl8endsWithEPS0_b
__ZN7WebCore10StringImpl4findEPS0_ib
__ZN7WebCore10fileExistsERKNS_6StringE
__ZN7WebCore24fileSystemRepresentationERKNS_6StringE
__ZNK7WebCore6String14createCFStringEv
__ZN7WebCore10StringImpl14createCFStringEv
__ZN7WebCore7CString16newUninitializedEmRPc
__ZNK7WebCore7CString4dataEv
__ZN3WTF6VectorIcLm0EE6shrinkEm
__ZN7WebCoreL11urlHostHashERKNS_4KURLE
__ZNK3WTF9HashTableIjSt4pairIjjENS_18PairFirstExtractorIS2_EEN7WebCore13AlreadyHashedENS_14PairHashTraitsINS_10HashTraitsIjEES9_EES9_E8containsIjNS_22IdentityHashTranslatorIjS2_S6_EEEEbRKT_
__ZN7WebCoreL25shouldLoadAsEmptyDocumentERKNS_4KURLE
__ZN7WebCore14DocumentLoader36deliverSubstituteResourcesAfterDelayEv
__ZN7WebCore18MainResourceLoader16setDefersLoadingEb
__ZN7WebCore14ResourceLoader16setDefersLoadingEb
__ZN7WebCore18MainResourceLoader7loadNowERNS_15ResourceRequestE
__ZN7WebCore18MainResourceLoader15willSendRequestERNS_15ResourceRequestERKNS_16ResourceResponseE
__ZN7WebCore18MainResourceLoader25isPostOrRedirectAfterPostERKNS_15ResourceRequestERKNS_16ResourceResponseE
__ZNK7WebCore20ResourceResponseBase14httpStatusCodeEv
__ZN7WebCore14ResourceLoader15willSendRequestERNS_15ResourceRequestERKNS_16ResourceResponseE
__ZN7WebCore11FrameLoader15willSendRequestEPNS_14ResourceLoaderERNS_15ResourceRequestERKNS_16ResourceResponseE
__ZN7WebCore11FrameLoader23dispatchWillSendRequestEPNS_14DocumentLoaderEmRNS_15ResourceRequestERKNS_16ResourceResponseE
__ZN7WebCore14DocumentLoader10setRequestERKNS_15ResourceRequestE
__ZN7WebCore11FrameLoader21checkNavigationPolicyERKNS_15ResourceRequestEPFvPvS3_N3WTF10PassRefPtrINS_9FormStateEEEbES4_
__ZN7WebCore18MainResourceLoader33callContinueAfterNavigationPolicyEPvRKNS_15ResourceRequestEN3WTF10PassRefPtrINS_9FormStateEEEb
__ZN7WebCore18MainResourceLoader29continueAfterNavigationPolicyERKNS_15ResourceRequestEb
__ZN7WebCore11FrameLoader32representationExistsForURLSchemeERKNS_6StringE
__ZN7WebCore14ResourceHandle6createERKNS_15ResourceRequestEPNS_20ResourceHandleClientEPNS_5FrameEbbb
__ZN7WebCore14ResourceHandleC1ERKNS_15ResourceRequestEPNS_20ResourceHandleClientEbbb
__ZN7WebCore14ResourceHandleC2ERKNS_15ResourceRequestEPNS_20ResourceHandleClientEbbb
__ZN7WebCore27AuthenticationChallengeBaseC2Ev
__ZN7WebCore15ProtectionSpaceC1Ev
__ZN7WebCore15ProtectionSpaceC2Ev
__ZN7WebCore10CredentialC1Ev
__ZN7WebCore10CredentialC2Ev
__ZN7WebCoreL11portAllowedERKNS_15ResourceRequestE
__ZN7WebCore14ResourceHandle5startEPNS_5FrameE
__ZN7WebCore14ResourceHandle8delegateEv
-[WebCoreResourceHandleAsDelegate initWithHandle:]
__ZN7WebCore14ResourceHandle29didSendBodyDataDelegateExistsEv
__ZN7WebCore8Settings25maximumResourceDataLengthEv
-[NSURLConnectionIPhone _initWithRequest:delegate:usesCache:maxContentLength:]
-[NSURLConnectionIPhone start]
-[NSURLConnectionIPhone _clearIVars]
-[WebCoreResourceHandleAsDelegate connection:willSendRequest:redirectResponse:]
__ZNK7WebCore14ResourceHandle6clientEv
-[WebCoreResourceHandleAsDelegate connection:didFailWithError:]
__ZN7WebCore14ResourceLoader7didFailEPNS_14ResourceHandleERKNS_13ResourceErrorE
__ZN7WebCore14DocumentLoader48scheduleLoadFallbackResourceFromApplicationCacheEPNS_14ResourceLoaderERKNS_15ResourceRequestEPNS_16ApplicationCacheE
__ZN7WebCore14DocumentLoader35getApplicationCacheFallbackResourceERKNS_15ResourceRequestERPNS_24ApplicationCacheResourceEPNS_16ApplicationCacheE
__ZN7WebCore18MainResourceLoader7didFailERKNS_13ResourceErrorE
__ZN7WebCore21ApplicationCacheGroup27fallbackCacheForMainRequestERKNS_15ResourceRequestEPNS_14DocumentLoaderE
__ZN7WebCore23ApplicationCacheStorage24fallbackCacheGroupForURLERKNS_4KURLE
__ZN7WebCore14ResourceLoader48scheduleLoadFallbackResourceFromApplicationCacheEPNS_16ApplicationCacheE
__ZN7WebCore18MainResourceLoader13receivedErrorERKNS_13ResourceErrorE
__ZN7WebCore11FrameLoader25receivedMainResourceErrorERKNS_13ResourceErrorEb
__ZN7WebCore11FrameLoader4stopEv
__ZNK7WebCore17ResourceErrorBase8lazyInitEv
__ZN7WebCore13ResourceError16platformLazyInitEv
__ZN7WebCore11FrameLoader21handleFallbackContentEv
__ZNK7WebCore14DocumentLoader19originalRequestCopyEv
__ZN7WebCore11FrameLoader13didNotOpenURLERKNS_4KURLE
__ZN7WebCore11FrameLoader31invalidateCurrentItemCachedPageEv
__ZN7WebCore14DocumentLoader17mainReceivedErrorERKNS_13ResourceErrorEb
__ZN7WebCore14DocumentLoader20setMainDocumentErrorERKNS_13ResourceErrorE
__ZN7WebCore11FrameLoader20setMainDocumentErrorEPNS_14DocumentLoaderERKNS_13ResourceErrorE
__ZNK7WebCore13ResourceErrorcvP7NSErrorEv
__ZN7WebCore11FrameLoader25mainReceivedCompleteErrorEPNS_14DocumentLoaderERKNS_13ResourceErrorE
__ZN7WebCore14ResourceLoader12resourceDataEv
__ZN7WebCore14ResourceHandle20supportsBufferedDataEv
__ZN7WebCore14DocumentLoader13updateLoadingEv
__ZNK7WebCore11FrameLoader9isLoadingEv
__ZNK7WebCore14DocumentLoader21isLoadingSubresourcesEv
__ZNK7WebCore14DocumentLoader16isLoadingPlugInsEv
__ZN7WebCore11FrameLoader20clearProvisionalLoadEv
__ZN7WebCore14DocumentLoader15detachFromFrameEv
__ZN7WebCore15ProgressTracker17progressCompletedEPNS_5FrameE
__ZN7WebCore15ProgressTracker21finalProgressCompleteEv
__ZN7WebCore11FrameLoader13didFailToLoadEPNS_14ResourceLoaderERKNS_13ResourceErrorE
__ZN7WebCore15ProgressTracker16completeProgressEm
__ZNK3WTF7HashMapImPN7WebCore12ProgressItemENS_7IntHashImEENS_10HashTraitsImEENS6_IS3_EEE3getERKm
__ZN7WebCore14ResourceLoader16releaseResourcesEv
__ZN7WebCore14DocumentLoaderD2Ev
__ZN7WebCore14ResourceHandle9setClientEPNS_20ResourceHandleClientE
__ZN7WebCore14ResourceHandleD1Ev
__ZN7WebCore14ResourceHandleD2Ev
__ZN7WebCore14ResourceHandle15releaseDelegateEv
-[WebCoreResourceHandleAsDelegate detachHandle]
-[WebCoreResourceHandleAsDelegate dealloc]
__ZN7WebCore22ResourceHandleInternalD1Ev
__ZN7WebCore22ResourceHandleInternalD2Ev
__ZN7WebCore27AuthenticationChallengeBaseD2Ev
__ZN7WebCore20ResourceResponseBaseD2Ev
-[NSURLConnectionIPhone dealloc]
__ZN7WebCore19ResourceRequestBaseD2Ev
__ZN7WebCore18MainResourceLoaderD0Ev
__ZN7WebCore14ResourceLoaderD2Ev
__ZNK7WebCore11HistoryItem5titleEv
__ZNK7WebCore11HistoryItem14alternateTitleEv
__ZNK7WebCore11HistoryItem10visitCountEv
__ZNK7WebCore11HistoryItem12redirectURLsEv
__ZNK7WebCore11HistoryItem8childrenEv
-[WAKWindow removeAllTiles]
__ZN7WebCore12TiledSurface14removeAllTilesEv
__ZN7WebCore12TiledSurface4TileD1Ev
__ZN7WebCore12TiledSurface4TileD2Ev
-[TileLayer removeFromSuperlayer]
_WKWindowClose
__ZN7WebCore11FrameLoader16detachFromParentEv
__ZN7WebCore12EventHandler28pendingFrameUnloadEventCountEv
__ZN7WebCore12EventHandler34pendingFrameBeforeUnloadEventCountEv
__ZN7WebCore8Document35removeAllEventListenersFromAllNodesEv
__ZN7WebCore8Document39removeAllDisconnectedNodeEventListenersEv
__ZN3WTF9HashTableIPN7WebCore4NodeES3_NS_17IdentityExtractorIS3_EENS_7PtrHashIS3_EENS_10HashTraitsIS3_EES9_E5clearEv
__ZN3WTF9HashTableIPN7WebCore4NodeES3_NS_17IdentityExtractorIS3_EENS_7PtrHashIS3_EENS_10HashTraitsIS3_EES9_E15deallocateTableEPS3_i
__ZNK7WebCore15EventTargetNode17isEventTargetNodeEv
__ZN7WebCore15EventTargetNode23removeAllEventListenersEv
__ZN7WebCore8Document24removeTouchEventListenerEPNS_4NodeEb
__ZNK3WTF7HashMapINS_6RefPtrIN7WebCore4NodeEEEjNS_7PtrHashIS4_EENS_10HashTraitsIS4_EENS7_IjEEE3getEPS3_
__ZN7WebCore6Loader14cancelRequestsEPNS_9DocLoaderE
__ZNK7WebCore6Loader4Host11hasRequestsEv
__ZN3WTF6VectorIPN7WebCore6Loader4HostELm0EE6resizeEm
__ZN7WebCore6Loader28scheduleServePendingRequestsEv
__ZN7WebCore8Document13stopDatabasesEv
__ZN7WebCore11FrameLoader18currentHistoryItemEv
__ZN7WebCore11FrameLoader36saveScrollPositionAndViewStateToItemEPNS_11HistoryItemE
__ZN7WebCore8Document6detachEv
__ZN7WebCore8Document18clearAXObjectCacheEv
__ZN7WebCore13AXObjectCacheD1Ev
__ZN7WebCore13AXObjectCacheD2Ev
__ZN3WTF9HashTableIjjNS_17IdentityExtractorIjEENS_7IntHashIjEENS_10HashTraitsIjEES6_E15deallocateTableEPji
__ZN3WTF9HashTableIPN7WebCore12RenderObjectESt4pairIS3_jENS_18PairFirstExtractorIS5_EENS_7PtrHashIS3_EENS_14PairHashTraitsINS_10HashTraitsIS3_EENSB_IjEEEESC_E15deallocateTableEPS5_i
__ZN3WTF9HashTableIPN7WebCore12RenderObjectESt4pairIS3_jENS_18PairFirstExtractorIS5_EENS_7PtrHashIS3_EENS_14PairHashTraitsINS_10HashTraitsIS3_EENSB_IjEEEESC_E13allocateTableEi
__ZN3WTF9HashTableIPN7WebCore12RenderObjectESt4pairIS3_jENS_18PairFirstExtractorIS5_EENS_7PtrHashIS3_EENS_14PairHashTraitsINS_10HashTraitsIS3_EENSB_IjEEEESC_E6rehashEi
__ZN3WTF9HashTableIPN7WebCore12RenderObjectESt4pairIS3_jENS_18PairFirstExtractorIS5_EENS_7PtrHashIS3_EENS_14PairHashTraitsINS_10HashTraitsIS3_EENSB_IjEEEESC_E6removeEPS5_
__ZN3WTF9HashTableIPN7WebCore12RenderObjectESt4pairIS3_jENS_18PairFirstExtractorIS5_EENS_7PtrHashIS3_EENS_14PairHashTraitsINS_10HashTraitsIS3_EENSB_IjEEEESC_E47removeAndInvalidateWithoutEntryConsistencyCheckEPS5_
__ZN3WTF9HashTableIPN7WebCore12RenderObjectESt4pairIS3_jENS_18PairFirstExtractorIS5_EENS_7PtrHashIS3_EENS_14PairHashTraitsINS_10HashTraitsIS3_EENSB_IjEEEESC_E6expandEv
__ZN3WTF9HashTableIPN7WebCore12RenderObjectESt4pairIS3_jENS_18PairFirstExtractorIS5_EENS_7PtrHashIS3_EENS_14PairHashTraitsINS_10HashTraitsIS3_EENSB_IjEEEESC_E4findIS3_NS_22IdentityHashTranslatorIS3_S5_S9_EEEENS_17HashTableIteratorIS3_S5_S7_S9_SE_SC_EERKT_
__ZN7WebCore8Document20stopActiveDOMObjectsEv
__ZN7WebCore22ScriptExecutionContext20stopActiveDOMObjectsEv
__ZN7WebCore8Document26documentWillBecomeInactiveEv
__ZN7WebCore10RenderView17willMoveOffscreenEv
__ZN7WebCore21RenderLayerCompositor17willMoveOffscreenEv
__ZN3WTF6VectorIPN7WebCore11ImageLoaderELm0EE14shrinkCapacityEm
__ZN7WebCore13ContainerNode6detachEv
__ZN7WebCore7Element6detachEv
__ZN7WebCore7Element27cancelFocusAppearanceUpdateEv
__ZN7WebCore4Node6detachEv
__ZN7WebCore10RenderText7destroyEv
__ZN7WebCore12RenderObject7destroyEv
__ZN7WebCore19AnimationController16cancelAnimationsEPNS_12RenderObjectE
__ZN7WebCore11RenderBlock11removeChildEPNS_12RenderObjectE
__ZN7WebCore15RenderContainer11removeChildEPNS_12RenderObjectE
__ZN7WebCore12RenderObject21removeFromObjectListsEv
__ZN7WebCore15RenderContainer15removeChildNodeEPNS_12RenderObjectEb
__ZN7WebCore12RenderObject20deleteLineBoxWrapperEv
__ZN7WebCore12RenderObject11arenaDeleteEPNS_11RenderArenaEPv
__ZN7WebCore10RenderTextD0Ev
__ZN7WebCore12RenderObjectD2Ev
__ZN7WebCore12RenderObjectdlEPvm
__ZN7WebCore10RenderFlow7destroyEv
__ZN7WebCore15RenderContainer23destroyLeftoverChildrenEv
__ZN7WebCore15RenderContainer7destroyEv
__ZN7WebCore9RenderBox7destroyEv
__ZN7WebCore9RenderBox20deleteLineBoxWrapperEv
__ZN7WebCore11RenderLayer7destroyEPNS_11RenderArenaE
__ZN7WebCore11RenderLayerD0Ev
__ZN7WebCore11RenderLayer16destroyScrollbarENS_20ScrollbarOrientationE
__ZN7WebCore11RenderLayer12clearBackingEv
__ZN7WebCore11RenderLayerdlEPvm
__ZN7WebCore11RenderBlockD0Ev
__ZN7WebCore15RenderContainerD2Ev
__ZN7WebCore9RenderBoxD2Ev
__ZN3WTF6VectorIPN7WebCore11RenderLayerELm0EE6shrinkEm
__ZN7WebCore10RenderViewD0Ev
__ZN7WebCore21RenderLayerCompositorD1Ev
__ZN7WebCore21RenderLayerCompositorD2Ev
__ZN3WTF9HashTableIPN7WebCore12RenderObjectES3_NS_17IdentityExtractorIS3_EENS_7PtrHashIS3_EENS_10HashTraitsIS3_EES9_E15deallocateTableEPS3_i
__ZN7WebCore11RenderBlockD2Ev
__ZN7WebCore8Document17clearFramePointerEv
__ZN7WebCore11RenderArenaD1Ev
__ZN7WebCore11RenderArenaD2Ev
__ZN7WebCore15FinishArenaPoolEPNS_9ArenaPoolE
__ZN7WebCoreL13FreeArenaListEPNS_9ArenaPoolEPNS_5ArenaEb
__ZN7WebCore9FrameViewD0Ev
__ZN7WebCore9FrameView15resetScrollbarsEv
__ZN7WebCore10ScrollView25setHasHorizontalScrollbarEb
__ZN7WebCore10ScrollView23setHasVerticalScrollbarEb
__ZN7WebCore10ScrollViewD2Ev
__ZN3WTF9HashTableIPN7WebCore6WidgetES3_NS_17IdentityExtractorIS3_EENS_7PtrHashIS3_EENS_10HashTraitsIS3_EES9_E15deallocateTableEPS3_i
__ZN7WebCore6WidgetD2Ev
__ZN7WebCore5Frame13pageDestroyedEv
__ZN7WebCore16ScriptController16clearWindowShellEv
__ZN7WebCore16ScriptController18clearScriptObjectsEv
__ZN7WebCore4PageD1Ev
__ZN7WebCore4PageD2Ev
__ZN3WTF9HashTableIPN7WebCore4PageES3_NS_17IdentityExtractorIS3_EENS_7PtrHashIS3_EENS_10HashTraitsIS3_EES9_E4findIS3_NS_22IdentityHashTranslatorIS3_S3_S7_EEEENS_17HashTableIteratorIS3_S3_S5_S7_S9_S9_EERKT_
__ZN3WTF9HashTableIPN7WebCore4PageES3_NS_17IdentityExtractorIS3_EENS_7PtrHashIS3_EENS_10HashTraitsIS3_EES9_E47removeAndInvalidateWithoutEntryConsistencyCheckEPS3_
__ZN3WTF9HashTableIPN7WebCore4PageES3_NS_17IdentityExtractorIS3_EENS_7PtrHashIS3_EENS_10HashTraitsIS3_EES9_E6removeEPS3_
__ZN7WebCore15BackForwardList5closeEv
__ZN3WTF6VectorINS_6RefPtrIN7WebCore11HistoryItemEEELm0EE14shrinkCapacityEm
__ZN7WebCore5FrameD1Ev
__ZN7WebCore5FrameD2Ev
__ZN7WebCore11FrameLoader23clearRecordedFormValuesEv
__ZN3WTF9HashTableIN7WebCore6StringESt4pairIS2_S2_ENS_18PairFirstExtractorIS4_EENS1_10StringHashENS_14PairHashTraitsINS_10HashTraitsIS2_EESA_EESA_E15deallocateTableEPS4_i
__ZN3WTF9HashTableIN7WebCore6StringESt4pairIS2_S2_ENS_18PairFirstExtractorIS4_EENS1_10StringHashENS_14PairHashTraitsINS_10HashTraitsIS2_EESA_EESA_E13allocateTableEi
__ZN3WTF9HashTableIN7WebCore6StringESt4pairIS2_S2_ENS_18PairFirstExtractorIS4_EENS1_10StringHashENS_14PairHashTraitsINS_10HashTraitsIS2_EESA_EESA_E6rehashEi
__ZN3WTF9HashTableIN7WebCore6StringESt4pairIS2_S2_ENS_18PairFirstExtractorIS4_EENS1_10StringHashENS_14PairHashTraitsINS_10HashTraitsIS2_EESA_EESA_E6expandEv
__ZN3WTF9HashTableIN7WebCore6StringESt4pairIS2_S2_ENS_18PairFirstExtractorIS4_EENS1_10StringHashENS_14PairHashTraitsINS_10HashTraitsIS2_EESA_EESA_E4findIS2_NS_22IdentityHashTranslatorIS2_S4_S7_EEEENS_17HashTableIteratorIS2_S4_S6_S7_SB_SA_EERKT_
__ZN3WTF9HashTableIN7WebCore6StringESt4pairIS2_S2_ENS_18PairFirstExtractorIS4_EENS1_10StringHashENS_14PairHashTraitsINS_10HashTraitsIS2_EESA_EESA_EC2ERKSC_
__ZN3WTF9HashTableIN7WebCore6StringESt4pairIS2_S2_ENS_18PairFirstExtractorIS4_EENS1_10StringHashENS_14PairHashTraitsINS_10HashTraitsIS2_EESA_EESA_EC1ERKSC_
__ZN3WTF9HashTableIN7WebCore6StringESt4pairIS2_S2_ENS_18PairFirstExtractorIS4_EENS1_10StringHashENS_14PairHashTraitsINS_10HashTraitsIS2_EESA_EESA_E5clearEv
__ZN3WTF9HashTableIN7WebCore6StringESt4pairIS2_S2_ENS_18PairFirstExtractorIS4_EENS1_10StringHashENS_14PairHashTraitsINS_10HashTraitsIS2_EESA_EESA_E4swapERSC_
__ZN3WTF9HashTableIN7WebCore6StringESt4pairIS2_S2_ENS_18PairFirstExtractorIS4_EENS1_10StringHashENS_14PairHashTraitsINS_10HashTraitsIS2_EESA_EESA_EaSERKSC_
__ZN3WTF9HashTableIN7WebCore6StringESt4pairIS2_S2_ENS_18PairFirstExtractorIS4_EENS1_10StringHashENS_14PairHashTraitsINS_10HashTraitsIS2_EESA_EESA_E6removeEPS4_
__ZN3WTF9HashTableIN7WebCore6StringESt4pairIS2_S2_ENS_18PairFirstExtractorIS4_EENS1_10StringHashENS_14PairHashTraitsINS_10HashTraitsIS2_EESA_EESA_E47removeAndInvalidateWithoutEntryConsistencyCheckEPS4_
__ZN7WebCore11FrameLoader14cancelAndClearEv
__ZN7WebCore5Frame22disconnectOwnerElementEv
__ZN7WebCore9DOMWindow15disconnectFrameEv
__ZN7WebCore9DOMWindow5clearEv
__ZN7WebCore19AnimationControllerD1Ev
__ZN7WebCore19AnimationControllerD2Ev
__ZN7WebCore26AnimationControllerPrivateD1Ev
__ZN7WebCore26AnimationControllerPrivateD2Ev
__ZN7WebCore12EventHandlerD1Ev
__ZN7WebCore12EventHandlerD2Ev
__ZN7WebCore6EditorD1Ev
__ZN7WebCore6EditorD2Ev
__ZN7WebCore13TypingCommandD0Ev
__ZN3WTF6VectorINS_6RefPtrIN7WebCore11EditCommandEEELm0EE6shrinkEm
__ZN7WebCore17InsertTextCommandD0Ev
__ZN7WebCore17AppendNodeCommandD0Ev
__ZN7WebCore11EditCommandD2Ev
__ZN7WebCore25InsertIntoTextNodeCommandD0Ev
__ZN7WebCore8Document14removedLastRefEv
__ZN7WebCore13ContainerNode17removeAllChildrenEv
__ZN7WebCore28removeAllChildrenInContainerINS_4NodeENS_13ContainerNodeEEEvPT0_
__ZN7WebCore7Private28addChildNodesToDeletionQueueINS_4NodeENS_13ContainerNodeEEEvRPT_S6_PT0_
__ZN7WebCore15HTMLHtmlElementD0Ev
__ZN7WebCore11HTMLElementD2Ev
__ZN7WebCore13StyledElementD2Ev
__ZN7WebCore13StyledElement22destroyInlineStyleDeclEv
__ZN7WebCore7ElementD2Ev
__ZN7WebCore13ContainerNodeD2Ev
__ZN7WebCore15EventTargetNodeD2Ev
__ZN7WebCore11EventTargetD2Ev
__ZN7WebCore4NodeD2Ev
__ZN7WebCore15HTMLBodyElementD0Ev
__ZN7WebCore12NamedAttrMap17detachFromElementEv
__ZN7WebCore18NamedMappedAttrMap15clearAttributesEv
__ZN7WebCore12NamedAttrMap15clearAttributesEv
__ZN3WTF6VectorINS_6RefPtrIN7WebCore9AttributeEEELm0EE14shrinkCapacityEm
__ZN3WTF6VectorINS_6RefPtrIN7WebCore9AttributeEEELm0EE6shrinkEm
__ZN7WebCore15MappedAttributeD0Ev
__ZN7WebCore18NamedMappedAttrMapD0Ev
__ZN7WebCore12NamedAttrMapD2Ev
__ZN7WebCore14HTMLDivElementD0Ev
__ZN7WebCore29CSSMappedAttributeDeclarationD0Ev
__ZN7WebCore13StyledElement25removeMappedAttributeDeclENS_20MappedAttributeEntryERKNS_13QualifiedNameERKNS_12AtomicStringE
__ZN3WTF9HashTableIPKN7WebCore4NodeESt4pairIS4_PNS1_12NodeRareDataEENS_18PairFirstExtractorIS8_EENS_7PtrHashIS4_EENS_14PairHashTraitsINS_10HashTraitsIS4_EENSE_IS7_EEEESF_E4findIS4_NS_22IdentityHashTranslatorIS4_S8_SC_EEEENS_17HashTableIteratorIS4_S8_SA_SC_SH_SF_EERKT_
__ZN3WTF9HashTableIPKN7WebCore4NodeESt4pairIS4_PNS1_12NodeRareDataEENS_18PairFirstExtractorIS8_EENS_7PtrHashIS4_EENS_14PairHashTraitsINS_10HashTraitsIS4_EENSE_IS7_EEEESF_E6expandEv
__ZN3WTF9HashTableIPKN7WebCore4NodeESt4pairIS4_PNS1_12NodeRareDataEENS_18PairFirstExtractorIS8_EENS_7PtrHashIS4_EENS_14PairHashTraitsINS_10HashTraitsIS4_EENSE_IS7_EEEESF_E15deallocateTableEPS8_i
__ZN3WTF9HashTableIPKN7WebCore4NodeESt4pairIS4_PNS1_12NodeRareDataEENS_18PairFirstExtractorIS8_EENS_7PtrHashIS4_EENS_14PairHashTraitsINS_10HashTraitsIS4_EENSE_IS7_EEEESF_E13allocateTableEi
__ZN3WTF9HashTableIPKN7WebCore4NodeESt4pairIS4_PNS1_12NodeRareDataEENS_18PairFirstExtractorIS8_EENS_7PtrHashIS4_EENS_14PairHashTraitsINS_10HashTraitsIS4_EENSE_IS7_EEEESF_E6rehashEi
__ZN3WTF9HashTableIPKN7WebCore4NodeESt4pairIS4_PNS1_12NodeRareDataEENS_18PairFirstExtractorIS8_EENS_7PtrHashIS4_EENS_14PairHashTraitsINS_10HashTraitsIS4_EENSE_IS7_EEEESF_E6removeEPS8_
__ZN3WTF9HashTableIPKN7WebCore4NodeESt4pairIS4_PNS1_12NodeRareDataEENS_18PairFirstExtractorIS8_EENS_7PtrHashIS4_EENS_14PairHashTraitsINS_10HashTraitsIS4_EENSE_IS7_EEEESF_E47removeAndInvalidateWithoutEntryConsistencyCheckEPS8_
__ZN7WebCore11EditingTextD0Ev
__ZN7WebCore4TextD2Ev
__ZN7WebCore13CharacterDataD2Ev
__ZN3WTF20deleteAllPairSecondsIPSt4pairINS_6VectorIN7WebCore14DocumentMarkerELm0EEENS2_INS3_7IntRectELm0EEEEKNS_7HashMapINS_6RefPtrINS3_4NodeEEES9_NS_7PtrHashISD_EENS_10HashTraitsISD_EENSG_IS9_EEEEEEvRT0_
__ZN3WTF9HashTableIN7WebCore6StringESt4pairIS2_NS_6RefPtrINS1_17HTMLCanvasElementEEEENS_18PairFirstExtractorIS7_EENS1_10StringHashENS_14PairHashTraitsINS_10HashTraitsIS2_EENSC_IS6_EEEESD_E5clearEv
__ZN3WTF9HashTableIN7WebCore6StringESt4pairIS2_NS_6RefPtrINS1_17HTMLCanvasElementEEEENS_18PairFirstExtractorIS7_EENS1_10StringHashENS_14PairHashTraitsINS_10HashTraitsIS2_EENSC_IS6_EEEESD_E13allocateTableEi
__ZN3WTF9HashTableIN7WebCore6StringESt4pairIS2_NS_6RefPtrINS1_17HTMLCanvasElementEEEENS_18PairFirstExtractorIS7_EENS1_10StringHashENS_14PairHashTraitsINS_10HashTraitsIS2_EENSC_IS6_EEEESD_E4findIS2_NS_22IdentityHashTranslatorIS2_S7_SA_EEEENS_17HashTableIteratorIS2_S7_S9_SA_SF_SD_EERKT_
__ZN3WTF9HashTableIN7WebCore6StringESt4pairIS2_NS_6RefPtrINS1_17HTMLCanvasElementEEEENS_18PairFirstExtractorIS7_EENS1_10StringHashENS_14PairHashTraitsINS_10HashTraitsIS2_EENSC_IS6_EEEESD_E15deallocateTableEPS7_i
__ZN3WTF9HashTableIN7WebCore6StringESt4pairIS2_NS_6RefPtrINS1_17HTMLCanvasElementEEEENS_18PairFirstExtractorIS7_EENS1_10StringHashENS_14PairHashTraitsINS_10HashTraitsIS2_EENSC_IS6_EEEESD_E6rehashEi
__ZN3WTF9HashTableIN7WebCore6StringESt4pairIS2_NS_6RefPtrINS1_17HTMLCanvasElementEEEENS_18PairFirstExtractorIS7_EENS1_10StringHashENS_14PairHashTraitsINS_10HashTraitsIS2_EENSC_IS6_EEEESD_E6expandEv
__ZN7WebCore12HTMLDocumentD0Ev
__ZN7WebCore8DocumentD2Ev
__ZN7WebCore28forgetAllDOMNodesForDocumentEPNS_8DocumentE
__ZN7WebCore15CSSFontSelectorD0Ev
__ZN7WebCore9FontCache12removeClientEPNS_12FontSelectorE
__ZN3WTF9HashTableIPN7WebCore12FontSelectorES3_NS_17IdentityExtractorIS3_EENS_7PtrHashIS3_EENS_10HashTraitsIS3_EES9_E4findIS3_NS_22IdentityHashTranslatorIS3_S3_S7_EEEENS_17HashTableIteratorIS3_S3_S5_S7_S9_S9_EERKT_
__ZN3WTF9HashTableIPN7WebCore12FontSelectorES3_NS_17IdentityExtractorIS3_EENS_7PtrHashIS3_EENS_10HashTraitsIS3_EES9_E47removeAndInvalidateWithoutEntryConsistencyCheckEPS3_
__ZN3WTF9HashTableIPN7WebCore12FontSelectorES3_NS_17IdentityExtractorIS3_EENS_7PtrHashIS3_EENS_10HashTraitsIS3_EES9_E6removeEPS3_
__ZN3WTF20deleteAllPairSecondsIPNS_6VectorINS_6RefPtrIN7WebCore11CSSFontFaceEEELm0EEEKNS_7HashMapINS3_6StringES7_NS3_15CaseFoldingHashENS_10HashTraitsIS9_EENSB_IS7_EEEEEEvRT0_
__ZN3WTF20deleteAllPairSecondsIPNS_7HashMapIjNS_6RefPtrIN7WebCore20CSSSegmentedFontFaceEEENS_7IntHashIjEENS_10HashTraitsIjEENS8_IS5_EEEEKNS1_INS3_6StringESC_NS3_15CaseFoldingHashENS8_ISD_EENS8_ISC_EEEEEEvRT0_
__ZN7WebCore9DocLoaderD1Ev
__ZN7WebCore9DocLoaderD2Ev
__ZN7WebCore9DocLoader13clearPreloadsEv
__ZN3WTF11ListHashSetIPN7WebCore14CachedResourceENS_7PtrHashIS3_EEE14deleteAllNodesEv
__ZN7WebCore5Cache15removeDocLoaderEPNS_9DocLoaderE
__ZN3WTF9HashTableIPN7WebCore9DocLoaderES3_NS_17IdentityExtractorIS3_EENS_7PtrHashIS3_EENS_10HashTraitsIS3_EES9_E4findIS3_NS_22IdentityHashTranslatorIS3_S3_S7_EEEENS_17HashTableIteratorIS3_S3_S5_S7_S9_S9_EERKT_
__ZN3WTF9HashTableIPN7WebCore9DocLoaderES3_NS_17IdentityExtractorIS3_EENS_7PtrHashIS3_EENS_10HashTraitsIS3_EES9_E47removeAndInvalidateWithoutEntryConsistencyCheckEPS3_
__ZN3WTF9HashTableIPN7WebCore9DocLoaderES3_NS_17IdentityExtractorIS3_EENS_7PtrHashIS3_EENS_10HashTraitsIS3_EES9_E6removeEPS3_
__ZN3WTF20deleteAllPairSecondsIPN7WebCore14HTMLCollection14CollectionInfoEKNS_7HashMapIPNS1_16AtomicStringImplES4_NS_7PtrHashIS7_EENS_10HashTraitsIS7_EENSA_IS4_EEEEEEvRT0_
__ZN7WebCore14StyleSheetList17documentDestroyedEv
__ZN3WTF9HashTableIiSt4pairIiPN7WebCore8DOMTimerEENS_18PairFirstExtractorIS5_EENS_7IntHashIjEENS_14PairHashTraitsINS_10HashTraitsIiEENSB_IS4_EEEESC_E15deallocateTableEPS5_i
__ZN3WTF9HashTableIiSt4pairIiPN7WebCore8DOMTimerEENS_18PairFirstExtractorIS5_EENS_7IntHashIjEENS_14PairHashTraitsINS_10HashTraitsIiEENSB_IS4_EEEESC_E13allocateTableEi
__ZN3WTF9HashTableIiSt4pairIiPN7WebCore8DOMTimerEENS_18PairFirstExtractorIS5_EENS_7IntHashIjEENS_14PairHashTraitsINS_10HashTraitsIiEENSB_IS4_EEEESC_E6rehashEi
__ZN3WTF9HashTableIiSt4pairIiPN7WebCore8DOMTimerEENS_18PairFirstExtractorIS5_EENS_7IntHashIjEENS_14PairHashTraitsINS_10HashTraitsIiEENSB_IS4_EEEESC_E6removeEPS5_
__ZN3WTF9HashTableIiSt4pairIiPN7WebCore8DOMTimerEENS_18PairFirstExtractorIS5_EENS_7IntHashIjEENS_14PairHashTraitsINS_10HashTraitsIiEENSB_IS4_EEEESC_E47removeAndInvalidateWithoutEntryConsistencyCheckEPS5_
__ZN3WTF9HashTableIiSt4pairIiPN7WebCore8DOMTimerEENS_18PairFirstExtractorIS5_EENS_7IntHashIjEENS_14PairHashTraitsINS_10HashTraitsIiEENSB_IS4_EEEESC_E6expandEv
__ZN3WTF9HashTableIiSt4pairIiPN7WebCore8DOMTimerEENS_18PairFirstExtractorIS5_EENS_7IntHashIjEENS_14PairHashTraitsINS_10HashTraitsIiEENSB_IS4_EEEESC_E4findIiNS_22IdentityHashTranslatorIiS5_S9_EEEENS_17HashTableIteratorIiS5_S7_S9_SE_SC_EERKT_
__ZN3WTF9HashTableIPN7WebCore4NodeESt4pairIS3_PNS1_6JSNodeEENS_18PairFirstExtractorIS7_EENS_7PtrHashIS3_EENS_14PairHashTraitsINS_10HashTraitsIS3_EENSD_IS6_EEEESE_E15deallocateTableEPS7_i
__ZN3WTF9HashTableIPN7WebCore4NodeESt4pairIS3_PNS1_6JSNodeEENS_18PairFirstExtractorIS7_EENS_7PtrHashIS3_EENS_14PairHashTraitsINS_10HashTraitsIS3_EENSD_IS6_EEEESE_E13allocateTableEi
__ZN3WTF9HashTableIPN7WebCore4NodeESt4pairIS3_PNS1_6JSNodeEENS_18PairFirstExtractorIS7_EENS_7PtrHashIS3_EENS_14PairHashTraitsINS_10HashTraitsIS3_EENSD_IS6_EEEESE_E6rehashEi
__ZN3WTF9HashTableIPN7WebCore4NodeESt4pairIS3_PNS1_6JSNodeEENS_18PairFirstExtractorIS7_EENS_7PtrHashIS3_EENS_14PairHashTraitsINS_10HashTraitsIS3_EENSD_IS6_EEEESE_E6removeEPS7_
__ZN3WTF9HashTableIPN7WebCore4NodeESt4pairIS3_PNS1_6JSNodeEENS_18PairFirstExtractorIS7_EENS_7PtrHashIS3_EENS_14PairHashTraitsINS_10HashTraitsIS3_EENSD_IS6_EEEESE_E47removeAndInvalidateWithoutEntryConsistencyCheckEPS7_
__ZN3WTF9HashTableIPN7WebCore4NodeESt4pairIS3_PNS1_6JSNodeEENS_18PairFirstExtractorIS7_EENS_7PtrHashIS3_EENS_14PairHashTraitsINS_10HashTraitsIS3_EENSD_IS6_EEEESE_E6expandEv
__ZN3WTF9HashTableIPN7WebCore4NodeESt4pairIS3_PNS1_6JSNodeEENS_18PairFirstExtractorIS7_EENS_7PtrHashIS3_EENS_14PairHashTraitsINS_10HashTraitsIS3_EENSD_IS6_EEEESE_E4findIS3_NS_22IdentityHashTranslatorIS3_S7_SB_EEEENS_17HashTableIteratorIS3_S7_S9_SB_SG_SE_EERKT_
__ZN3WTF9HashTableIPN7WebCore7ElementES3_NS_17IdentityExtractorIS3_EENS_7PtrHashIS3_EENS_10HashTraitsIS3_EES9_E15deallocateTableEPS3_i
__ZN7WebCore14HTMLCollection14CollectionInfoD1Ev
__ZN7WebCore14HTMLCollection14CollectionInfoD2Ev
__ZN3WTF9HashTableIPN7WebCore10StringImplESt4pairIS3_PNS1_7ElementEENS_18PairFirstExtractorIS7_EENS1_15CaseFoldingHashENS_14PairHashTraitsINS_10HashTraitsIS3_EENSC_IS6_EEEESD_E15deallocateTableEPS7_i
__ZN3WTF9HashTableIPN7WebCore10StringImplESt4pairIS3_PNS1_7ElementEENS_18PairFirstExtractorIS7_EENS1_15CaseFoldingHashENS_14PairHashTraitsINS_10HashTraitsIS3_EENSC_IS6_EEEESD_E5clearEv
__ZN3WTF9HashTableIPN7WebCore10StringImplESt4pairIS3_PNS1_7ElementEENS_18PairFirstExtractorIS7_EENS1_15CaseFoldingHashENS_14PairHashTraitsINS_10HashTraitsIS3_EENSC_IS6_EEEESD_E13allocateTableEi
__ZN3WTF9HashTableIPN7WebCore10StringImplESt4pairIS3_PNS1_7ElementEENS_18PairFirstExtractorIS7_EENS1_15CaseFoldingHashENS_14PairHashTraitsINS_10HashTraitsIS3_EENSC_IS6_EEEESD_E6rehashEi
__ZN3WTF9HashTableIPN7WebCore10StringImplESt4pairIS3_PNS1_7ElementEENS_18PairFirstExtractorIS7_EENS1_15CaseFoldingHashENS_14PairHashTraitsINS_10HashTraitsIS3_EENSC_IS6_EEEESD_E6expandEv
__ZN3WTF9HashTableIPN7WebCore10StringImplESt4pairIS3_PNS1_7ElementEENS_18PairFirstExtractorIS7_EENS1_15CaseFoldingHashENS_14PairHashTraitsINS_10HashTraitsIS3_EENSC_IS6_EEEESD_E4findIS3_NS_22IdentityHashTranslatorIS3_S7_SA_EEEENS_17HashTableIteratorIS3_S7_S9_SA_SF_SD_EERKT_
__ZN3WTF9HashTableIPN7WebCore16AtomicStringImplESt4pairIS3_jENS_18PairFirstExtractorIS5_EENS_7PtrHashIS3_EENS_14PairHashTraitsINS_10HashTraitsIS3_EENSB_IjEEEESC_E15deallocateTableEPS5_i
__ZN3WTF9HashTableIPN7WebCore16AtomicStringImplESt4pairIS3_jENS_18PairFirstExtractorIS5_EENS_7PtrHashIS3_EENS_14PairHashTraitsINS_10HashTraitsIS3_EENSB_IjEEEESC_E13allocateTableEi
__ZN3WTF9HashTableIPN7WebCore16AtomicStringImplESt4pairIS3_jENS_18PairFirstExtractorIS5_EENS_7PtrHashIS3_EENS_14PairHashTraitsINS_10HashTraitsIS3_EENSB_IjEEEESC_E6rehashEi
__ZN3WTF9HashTableIPN7WebCore16AtomicStringImplESt4pairIS3_jENS_18PairFirstExtractorIS5_EENS_7PtrHashIS3_EENS_14PairHashTraitsINS_10HashTraitsIS3_EENSB_IjEEEESC_E6removeEPS5_
__ZN3WTF9HashTableIPN7WebCore16AtomicStringImplESt4pairIS3_jENS_18PairFirstExtractorIS5_EENS_7PtrHashIS3_EENS_14PairHashTraitsINS_10HashTraitsIS3_EENSB_IjEEEESC_E47removeAndInvalidateWithoutEntryConsistencyCheckEPS5_
__ZN3WTF9HashTableIPN7WebCore16AtomicStringImplESt4pairIS3_jENS_18PairFirstExtractorIS5_EENS_7PtrHashIS3_EENS_14PairHashTraitsINS_10HashTraitsIS3_EENSB_IjEEEESC_E6expandEv
__ZN3WTF9HashTableIPN7WebCore16AtomicStringImplESt4pairIS3_jENS_18PairFirstExtractorIS5_EENS_7PtrHashIS3_EENS_14PairHashTraitsINS_10HashTraitsIS3_EENSB_IjEEEESC_E4findIS3_NS_22IdentityHashTranslatorIS3_S5_S9_EEEENS_17HashTableIteratorIS3_S5_S7_S9_SE_SC_EERKT_
__ZN3WTF9HashTableIPN7WebCore16AtomicStringImplESt4pairIS3_PNS1_14HTMLMapElementEENS_18PairFirstExtractorIS7_EENS_7PtrHashIS3_EENS_14PairHashTraitsINS_10HashTraitsIS3_EENSD_IS6_EEEESE_E15deallocateTableEPS7_i
__ZN3WTF9HashTableIPN7WebCore16AtomicStringImplESt4pairIS3_PNS1_14HTMLMapElementEENS_18PairFirstExtractorIS7_EENS_7PtrHashIS3_EENS_14PairHashTraitsINS_10HashTraitsIS3_EENSD_IS6_EEEESE_E13allocateTableEi
__ZN3WTF9HashTableIPN7WebCore16AtomicStringImplESt4pairIS3_PNS1_14HTMLMapElementEENS_18PairFirstExtractorIS7_EENS_7PtrHashIS3_EENS_14PairHashTraitsINS_10HashTraitsIS3_EENSD_IS6_EEEESE_E6rehashEi
__ZN3WTF9HashTableIPN7WebCore16AtomicStringImplESt4pairIS3_PNS1_14HTMLMapElementEENS_18PairFirstExtractorIS7_EENS_7PtrHashIS3_EENS_14PairHashTraitsINS_10HashTraitsIS3_EENSD_IS6_EEEESE_E6removeEPS7_
__ZN3WTF9HashTableIPN7WebCore16AtomicStringImplESt4pairIS3_PNS1_14HTMLMapElementEENS_18PairFirstExtractorIS7_EENS_7PtrHashIS3_EENS_14PairHashTraitsINS_10HashTraitsIS3_EENSD_IS6_EEEESE_E47removeAndInvalidateWithoutEntryConsistencyCheckEPS7_
__ZN3WTF9HashTableIPN7WebCore16AtomicStringImplESt4pairIS3_PNS1_14HTMLMapElementEENS_18PairFirstExtractorIS7_EENS_7PtrHashIS3_EENS_14PairHashTraitsINS_10HashTraitsIS3_EENSD_IS6_EEEESE_E6expandEv
__ZN3WTF9HashTableIPN7WebCore16AtomicStringImplESt4pairIS3_PNS1_14HTMLMapElementEENS_18PairFirstExtractorIS7_EENS_7PtrHashIS3_EENS_14PairHashTraitsINS_10HashTraitsIS3_EENSD_IS6_EEEESE_E4findIS3_NS_22IdentityHashTranslatorIS3_S7_SB_EEEENS_17HashTableIteratorIS3_S7_S9_SB_SG_SE_EERKT_
__ZN3WTF11ListHashSetIPN7WebCore27FormControlElementWithStateENS_7PtrHashIS3_EEE14deleteAllNodesEv
__ZN3WTF9HashTableIPNS_15ListHashSetNodeIPN7WebCore27FormControlElementWithStateEEES6_NS_17IdentityExtractorIS6_EENS_28ListHashSetNodeHashFunctionsIS4_NS_7PtrHashIS4_EEEENS_10HashTraitsIS6_EESE_E15deallocateTableEPS6_i
__ZN3WTF9HashTableIPNS_15ListHashSetNodeIPN7WebCore27FormControlElementWithStateEEES6_NS_17IdentityExtractorIS6_EENS_28ListHashSetNodeHashFunctionsIS4_NS_7PtrHashIS4_EEEENS_10HashTraitsIS6_EESE_E5clearEv
__ZN3WTF9HashTableIPNS_15ListHashSetNodeIPN7WebCore27FormControlElementWithStateEEES6_NS_17IdentityExtractorIS6_EENS_28ListHashSetNodeHashFunctionsIS4_NS_7PtrHashIS4_EEEENS_10HashTraitsIS6_EESE_E4findIS4_NS_21ListHashSetTranslatorIS4_SB_EEEENS_17HashTableIteratorIS6_S6_S8_SC_SE_SE_EERKT_
__ZN3WTF9HashTableIPNS_15ListHashSetNodeIPN7WebCore27FormControlElementWithStateEEES6_NS_17IdentityExtractorIS6_EENS_28ListHashSetNodeHashFunctionsIS4_NS_7PtrHashIS4_EEEENS_10HashTraitsIS6_EESE_E4findIS6_NS_22IdentityHashTranslatorIS6_S6_SC_EEEENS_17HashTableIteratorIS6_S6_S8_SC_SE_SE_EERKT_
__ZN3WTF9HashTableIPNS_15ListHashSetNodeIPN7WebCore27FormControlElementWithStateEEES6_NS_17IdentityExtractorIS6_EENS_28ListHashSetNodeHashFunctionsIS4_NS_7PtrHashIS4_EEEENS_10HashTraitsIS6_EESE_E13allocateTableEi
__ZN3WTF9HashTableIPNS_15ListHashSetNodeIPN7WebCore27FormControlElementWithStateEEES6_NS_17IdentityExtractorIS6_EENS_28ListHashSetNodeHashFunctionsIS4_NS_7PtrHashIS4_EEEENS_10HashTraitsIS6_EESE_E6rehashEi
__ZN3WTF9HashTableIPNS_15ListHashSetNodeIPN7WebCore27FormControlElementWithStateEEES6_NS_17IdentityExtractorIS6_EENS_28ListHashSetNodeHashFunctionsIS4_NS_7PtrHashIS4_EEEENS_10HashTraitsIS6_EESE_E6removeEPS6_
__ZN3WTF9HashTableIPNS_15ListHashSetNodeIPN7WebCore27FormControlElementWithStateEEES6_NS_17IdentityExtractorIS6_EENS_28ListHashSetNodeHashFunctionsIS4_NS_7PtrHashIS4_EEEENS_10HashTraitsIS6_EESE_E19removeAndInvalidateEPS6_
__ZN3WTF9HashTableIPNS_15ListHashSetNodeIPN7WebCore27FormControlElementWithStateEEES6_NS_17IdentityExtractorIS6_EENS_28ListHashSetNodeHashFunctionsIS4_NS_7PtrHashIS4_EEEENS_10HashTraitsIS6_EESE_E6expandEv
__ZN3WTF11ListHashSetIPN7WebCore4NodeENS_7PtrHashIS3_EEE14deleteAllNodesEv
__ZN7WebCore14StyleSheetListD1Ev
__ZN7WebCore14StyleSheetListD2Ev
__ZN3WTF9HashTableIPN7WebCore12NodeIteratorES3_NS_17IdentityExtractorIS3_EENS_7PtrHashIS3_EENS_10HashTraitsIS3_EES9_E15deallocateTableEPS3_i
__ZN7WebCore13CSSStyleSheetD0Ev
__ZN7WebCore10StyleSheetD2Ev
__ZN7WebCore22ScriptExecutionContextD2Ev
__ZN3WTF9HashTableIPN7WebCore11MessagePortES3_NS_17IdentityExtractorIS3_EENS_7PtrHashIS3_EENS_10HashTraitsIS3_EES9_E15deallocateTableEPS3_i
__ZN7WebCore16ScriptControllerD1Ev
__ZN7WebCore16ScriptControllerD2Ev
__ZN7WebCore16ScriptController31disconnectPlatformScriptObjectsEv
__ZN3WTF9HashTableIPN7WebCore11JSDOMWindowES3_NS_17IdentityExtractorIS3_EENS_7PtrHashIS3_EENS_10HashTraitsIS3_EES9_E15deallocateTableEPS3_i
__ZN3WTF9HashTableIPN7WebCore9DOMWindowES3_NS_17IdentityExtractorIS3_EENS_7PtrHashIS3_EENS_10HashTraitsIS3_EES9_E15deallocateTableEPS3_i
__ZN7WebCore9DOMWindowD0Ev
__ZN7WebCore11FrameLoaderD1Ev
__ZN7WebCore11FrameLoaderD2Ev
__ZN7WebCore11FrameLoader9setOpenerEPNS_5FrameE
__ZN7WebCore17FrameLoaderClientD2Ev
__ZN3WTF9HashTableIPN7WebCore5FrameES3_NS_17IdentityExtractorIS3_EENS_7PtrHashIS3_EENS_10HashTraitsIS3_EES9_E15deallocateTableEPS3_i
__ZN7WebCore9FrameTreeD1Ev
__ZN7WebCore9FrameTreeD2Ev
__ZN7WebCore15BackForwardListD1Ev
__ZN7WebCore15BackForwardListD2Ev
__ZN7WebCore15ProgressTrackerD1Ev
__ZN7WebCore15ProgressTrackerD2Ev
__ZN7WebCore6ChromeD0Ev
-[WAKView removeFromSuperview]
_WKViewRemoveFromSuperview
__WKViewWillRemoveSubview
__ZL25willRemoveSubviewCallbackP6WKViewS0_
-[WAKView willRemoveSubview:]
_WKCollectionRelease
__ZL14_WKViewDeallocP9_WKObject
__WKObjectDealloc
-[WAKWindow dealloc]
__ZL16_WKWindowDeallocP9_WKObject
__ZN7WebCore12TiledSurfaceD1Ev
__ZN7WebCore12TiledSurfaceD2Ev
-[WebThreadCaller resetTiledSurface]
__ZN3WTF6VectorINS0_INS_6RefPtrIN7WebCore12TiledSurface4TileEEELm0EEELm0EE6shrinkEm
__ZN3WTF6VectorINS_6RefPtrIN7WebCore12TiledSurface4TileEEELm0EE6shrinkEm
-[WAKScrollView dealloc]
__WKScrollViewDealloc
__ZL21_WKViewClearSuperviewPKvPv
__WKClipViewDealloc
__ZN7WebCore5TimerINS_6LoaderEE5firedEv
__ZN7WebCore6Loader17requestTimerFiredEPNS_5TimerIS0_EE
__ZN7WebCore6Loader20servePendingRequestsENS0_8PriorityE
__ZN7WebCore6Loader4Host20servePendingRequestsENS0_8PriorityE
__ZN7WebCore6Loader4Host20servePendingRequestsERN3WTF5DequeIPNS_7RequestEEERb
-[NSURLConnectionIPhone methodSignatureForSelector:]
__ZN7WebCore15FontFamilyValue20appendSpaceSeparatedEPKtj
__ZN7WebCore6String6appendEc
__ZN7WebCore9CSSParser15parseFontWeightEb
__ZN7WebCore9CSSParser14parseFontStyleEb
__ZN7WebCore5Frame22setEmbeddedEditingModeEb
-[DOMDocument body]
+[DOMHTMLElement(WebCoreInternal) _wrapHTMLElement:]
-[DOMHTMLElement setContentEditable:]
__ZN7WebCore11HTMLElement18setContentEditableERKNS_6StringE
__ZN7WebCore9CSSParser17parseFillPropertyEiRiS1_RN3WTF6RefPtrINS_8CSSValueEEES6_
__ZN7WebCore9CSSParser14parseFillImageERN3WTF6RefPtrINS_8CSSValueEEE
__ZN7WebCore8parseURLERKNS_6StringE
__ZNK7WebCore13CSSStyleSheet11completeURLERKNS_6StringE
__ZNK7WebCore10StyleSheet11completeURLERKNS_6StringE
__ZNK7WebCore9StyleBase7baseURLEv
__ZN7WebCore13CSSImageValueC1ERKNS_6StringE
__ZN7WebCore13CSSImageValueC2ERKNS_6StringE
__ZN7WebCore7DataRefINS_18StyleInheritedDataEE6accessEv
__ZN7WebCore7DataRefINS_12StyleBoxDataEE6accessEv
__ZNK7WebCore8CSSValue11isValueListEv
__ZN7WebCore16CSSStyleSelector12mapFillImageEPNS_9FillLayerEPNS_8CSSValueE
__ZN7WebCore16CSSStyleSelector10styleImageEPNS_8CSSValueE
__ZNK7WebCore13CSSImageValue12isImageValueEv
__ZN7WebCore13CSSImageValue11cachedImageEPNS_9DocLoaderE
__ZNK7WebCore17CSSPrimitiveValue14getStringValueEv
__ZN7WebCore13CSSImageValue11cachedImageEPNS_9DocLoaderERKNS_6StringE
__ZN7WebCore9DocLoader12requestImageERKNS_6StringE
__ZN7WebCore9DocLoader15requestResourceENS_14CachedResource4TypeERKNS_6StringES5_b
__ZNK7WebCore8Document11completeURLERKNS_6StringE
__ZN7WebCore9DocLoader10canRequestENS_14CachedResource4TypeERKNS_4KURLE
__ZN7WebCore9DocLoader14checkForReloadERKNS_4KURLE
__ZN7WebCore5Cache14resourceForURLERKNS_6StringE
__ZNK3WTF7HashMapIN7WebCore6StringEPNS1_14CachedResourceENS1_10StringHashENS_10HashTraitsIS2_EENS6_IS4_EEE3getERKS2_
__ZN7WebCore5Cache15requestResourceEPNS_9DocLoaderENS_14CachedResource4TypeERKNS_4KURLERKNS_6StringEb
__ZN7WebCore11FrameLoader21restrictAccessToLocalEv
__ZN7WebCore11FrameLoader7canLoadERKNS_4KURLERKNS_6StringEPKNS_8DocumentE
__ZN7WebCore11FrameLoader21shouldTreatURLAsLocalERKNS_6StringE
__ZN7WebCoreL14createResourceENS_14CachedResource4TypeERKNS_4KURLERKNS_6StringE
__ZN7WebCore11CachedImageC1ERKNS_6StringE
__ZN7WebCore11CachedImageC2ERKNS_6StringE
__ZN7WebCore14CachedResourceC2ERKNS_6StringENS0_4TypeE
__ZN7WebCore11CachedImage4loadEPNS_9DocLoaderE
__ZN7WebCore14CachedResource4loadEPNS_9DocLoaderEbbb
__ZN7WebCore6Loader4loadEPNS_9DocLoaderEPNS_14CachedResourceEbbb
__ZN7WebCore7RequestC1EPNS_9DocLoaderEPNS_14CachedResourceEbbb
__ZN7WebCore7RequestC2EPNS_9DocLoaderEPNS_14CachedResourceEbbb
__ZN7WebCore14CachedResource10setRequestEPNS_7RequestE
__ZN7WebCore4KURLC1ERKNS_6StringE
__ZN7WebCore4KURLC2ERKNS_6StringE
__ZN7WebCore4KURL5parseERKNS_6StringE
__ZNK7WebCore6Loader17determinePriorityEPKNS_14CachedResourceE
__ZN7WebCore6Loader4Host10addRequestEPNS_7RequestENS0_8PriorityE
__ZN3WTF5DequeIPN7WebCore7RequestEE14expandCapacityEv
__ZN7WebCore9DocLoader21incrementRequestCountEv
__ZNK7WebCore14SecurityOrigin8toStringEv
__ZN7WebCore17SubresourceLoader6createEPNS_5FrameEPNS_23SubresourceLoaderClientERKNS_15ResourceRequestEbbb
__ZNK7WebCore11FrameLoader16outgoingReferrerEv
__ZN7WebCore11FrameLoader18shouldHideReferrerERKNS_4KURLERKNS_6StringE
__ZN7WebCore10protocolIsERKNS_6StringEPKc
__ZN3WTF9HashTableIN7WebCore12AtomicStringESt4pairIS2_NS1_6StringEENS_18PairFirstExtractorIS5_EENS1_15CaseFoldingHashENS_14PairHashTraitsINS_10HashTraitsIS2_EENSA_IS4_EEEESB_E47removeAndInvalidateWithoutEntryConsistencyCheckEPS5_
__ZN3WTF9HashTableIN7WebCore12AtomicStringESt4pairIS2_NS1_6StringEENS_18PairFirstExtractorIS5_EENS1_15CaseFoldingHashENS_14PairHashTraitsINS_10HashTraitsIS2_EENSA_IS4_EEEESB_E4findIS2_NS_22IdentityHashTranslatorIS2_S5_S8_EEEENS_17HashTableIteratorIS2_S5_S7_S8_SD_SB_EERKT_
__ZN3WTF9HashTableIN7WebCore12AtomicStringESt4pairIS2_NS1_6StringEENS_18PairFirstExtractorIS5_EENS1_15CaseFoldingHashENS_14PairHashTraitsINS_10HashTraitsIS2_EENSA_IS4_EEEESB_E15deallocateTableEPS5_i
__ZN3WTF9HashTableIN7WebCore12AtomicStringESt4pairIS2_NS1_6StringEENS_18PairFirstExtractorIS5_EENS1_15CaseFoldingHashENS_14PairHashTraitsINS_10HashTraitsIS2_EENSA_IS4_EEEESB_E13allocateTableEi
__ZN3WTF9HashTableIN7WebCore12AtomicStringESt4pairIS2_NS1_6StringEENS_18PairFirstExtractorIS5_EENS1_15CaseFoldingHashENS_14PairHashTraitsINS_10HashTraitsIS2_EENSA_IS4_EEEESB_E6rehashEi
__ZN3WTF9HashTableIN7WebCore12AtomicStringESt4pairIS2_NS1_6StringEENS_18PairFirstExtractorIS5_EENS1_15CaseFoldingHashENS_14PairHashTraitsINS_10HashTraitsIS2_EENSA_IS4_EEEESB_E6expandEv
__ZN3WTF9HashTableIN7WebCore12AtomicStringESt4pairIS2_NS1_6StringEENS_18PairFirstExtractorIS5_EENS1_15CaseFoldingHashENS_14PairHashTraitsINS_10HashTraitsIS2_EENSA_IS4_EEEESB_EC2ERKSE_
__ZN3WTF9HashTableIN7WebCore12AtomicStringESt4pairIS2_NS1_6StringEENS_18PairFirstExtractorIS5_EENS1_15CaseFoldingHashENS_14PairHashTraitsINS_10HashTraitsIS2_EENSA_IS4_EEEESB_EC1ERKSE_
__ZN3WTF9HashTableIN7WebCore12AtomicStringESt4pairIS2_NS1_6StringEENS_18PairFirstExtractorIS5_EENS1_15CaseFoldingHashENS_14PairHashTraitsINS_10HashTraitsIS2_EENSA_IS4_EEEESB_E4swapERSE_
__ZN3WTF9HashTableIN7WebCore12AtomicStringESt4pairIS2_NS1_6StringEENS_18PairFirstExtractorIS5_EENS1_15CaseFoldingHashENS_14PairHashTraitsINS_10HashTraitsIS2_EENSA_IS4_EEEESB_EaSERKSE_
__ZN3WTF9HashTableIN7WebCore12AtomicStringESt4pairIS2_NS1_6StringEENS_18PairFirstExtractorIS5_EENS1_15CaseFoldingHashENS_14PairHashTraitsINS_10HashTraitsIS2_EENSA_IS4_EEEESB_E5clearEv
__ZN3WTF9HashTableIN7WebCore12AtomicStringESt4pairIS2_NS1_6StringEENS_18PairFirstExtractorIS5_EENS1_15CaseFoldingHashENS_14PairHashTraitsINS_10HashTraitsIS2_EENSA_IS4_EEEESB_E6removeEPS5_
__ZNK7WebCore11FrameLoader14outgoingOriginEv
__ZNK7WebCore19ResourceRequestBase13isConditionalEv
__ZNK3WTF9HashTableIN7WebCore12AtomicStringESt4pairIS2_NS1_6StringEENS_18PairFirstExtractorIS5_EENS1_15CaseFoldingHashENS_14PairHashTraitsINS_10HashTraitsIS2_EENSA_IS4_EEEESB_E8containsIS2_NS_22IdentityHashTranslatorIS2_S5_S8_EEEEbRKT_
__ZNK3WTF9HashTableIN7WebCore12AtomicStringESt4pairIS2_NS1_6StringEENS_18PairFirstExtractorIS5_EENS1_15CaseFoldingHashENS_14PairHashTraitsINS_10HashTraitsIS2_EENSA_IS4_EEEESB_E4findIS2_NS_22IdentityHashTranslatorIS2_S5_S8_EEEENS_22HashTableConstIteratorIS2_S5_S7_S8_SD_SB_EERKT_
__ZNK7WebCore11FrameLoader15originalRequestEv
__ZN7WebCore19ResourceRequestBase14setCachePolicyENS_26ResourceRequestCachePolicyE
__ZN7WebCore11FrameLoader34addExtraFieldsToSubresourceRequestERNS_15ResourceRequestE
__ZNK7WebCore11FrameLoader8encodingEv
__ZN7WebCore17SubresourceLoaderC1EPNS_5FrameEPNS_23SubresourceLoaderClientEbb
__ZN7WebCore17SubresourceLoaderC2EPNS_5FrameEPNS_23SubresourceLoaderClientEbb
__ZN7WebCore14DocumentLoader20addSubresourceLoaderEPNS_14ResourceLoaderE
__ZN3WTF7HashSetINS_6RefPtrIN7WebCore14ResourceLoaderEEENS_7PtrHashIS4_EENS_10HashTraitsIS4_EEE3addERKS4_
__ZN7WebCore14ResourceLoader4loadERKNS_15ResourceRequestE
__ZN7WebCore17SubresourceLoader15willSendRequestERNS_15ResourceRequestERKNS_16ResourceResponseE
__ZN7WebCore11FrameLoader32assignIdentifierToInitialRequestEmRKNS_15ResourceRequestE
__ZN7WebCore14DocumentLoader19scheduleArchiveLoadEPNS_14ResourceLoaderERKNS_15ResourceRequestERKNS_4KURLE
__ZNK7WebCore14DocumentLoader21archiveResourceForURLERKNS_4KURLE
__ZN7WebCore14DocumentLoader28scheduleApplicationCacheLoadEPNS_14ResourceLoaderERKNS_15ResourceRequestERKNS_4KURLE
__ZN3WTF7HashMapINS_6RefPtrIN7WebCore17SubresourceLoaderEEEPNS2_7RequestENS_7PtrHashIS4_EENS_10HashTraitsIS4_EENS9_IS6_EEE3addERKS4_RKS6_
__ZN3WTF9HashTableINS_6RefPtrIN7WebCore17SubresourceLoaderEEESt4pairIS4_PNS2_7RequestEENS_18PairFirstExtractorIS8_EENS_7PtrHashIS4_EENS_14PairHashTraitsINS_10HashTraitsIS4_EENSE_IS7_EEEESF_E6expandEv
__ZN3WTF9HashTableINS_6RefPtrIN7WebCore17SubresourceLoaderEEESt4pairIS4_PNS2_7RequestEENS_18PairFirstExtractorIS8_EENS_7PtrHashIS4_EENS_14PairHashTraitsINS_10HashTraitsIS4_EENSE_IS7_EEEESF_E4findIS4_NS_22IdentityHashTranslatorIS4_S8_SC_EEEENS_17HashTableIteratorIS4_S8_SA_SC_SH_SF_EERKT_
__ZN3WTF9HashTableINS_6RefPtrIN7WebCore17SubresourceLoaderEEESt4pairIS4_PNS2_7RequestEENS_18PairFirstExtractorIS8_EENS_7PtrHashIS4_EENS_14PairHashTraitsINS_10HashTraitsIS4_EENSE_IS7_EEEESF_E13allocateTableEi
__ZN3WTF9HashTableINS_6RefPtrIN7WebCore17SubresourceLoaderEEESt4pairIS4_PNS2_7RequestEENS_18PairFirstExtractorIS8_EENS_7PtrHashIS4_EENS_14PairHashTraitsINS_10HashTraitsIS4_EENSE_IS7_EEEESF_E4findIPS3_NS_29RefPtrHashMapRawKeyTranslatorISK_S8_SH_SC_EEEENS_17HashTableIteratorIS4_S8_SA_SC_SH_SF_EERKT_
__ZN3WTF9HashTableINS_6RefPtrIN7WebCore17SubresourceLoaderEEESt4pairIS4_PNS2_7RequestEENS_18PairFirstExtractorIS8_EENS_7PtrHashIS4_EENS_14PairHashTraitsINS_10HashTraitsIS4_EENSE_IS7_EEEESF_E15deallocateTableEPS8_i
__ZN3WTF9HashTableINS_6RefPtrIN7WebCore17SubresourceLoaderEEESt4pairIS4_PNS2_7RequestEENS_18PairFirstExtractorIS8_EENS_7PtrHashIS4_EENS_14PairHashTraitsINS_10HashTraitsIS4_EENSE_IS7_EEEESF_E6rehashEi
__ZN3WTF9HashTableINS_6RefPtrIN7WebCore17SubresourceLoaderEEESt4pairIS4_PNS2_7RequestEENS_18PairFirstExtractorIS8_EENS_7PtrHashIS4_EENS_14PairHashTraitsINS_10HashTraitsIS4_EENSE_IS7_EEEESF_E6removeEPS8_
__ZN3WTF9HashTableINS_6RefPtrIN7WebCore17SubresourceLoaderEEESt4pairIS4_PNS2_7RequestEENS_18PairFirstExtractorIS8_EENS_7PtrHashIS4_EENS_14PairHashTraitsINS_10HashTraitsIS4_EENSE_IS7_EEEESF_E47removeAndInvalidateWithoutEntryConsistencyCheckEPS8_
__ZN3WTF7HashMapIN7WebCore6StringEPNS1_14CachedResourceENS1_10StringHashENS_10HashTraitsIS2_EENS6_IS4_EEE3setERKS2_RKS4_
__ZN3WTF9HashTableIN7WebCore6StringESt4pairIS2_PNS1_14CachedResourceEENS_18PairFirstExtractorIS6_EENS1_10StringHashENS_14PairHashTraitsINS_10HashTraitsIS2_EENSB_IS5_EEEESC_E6expandEv
__ZN3WTF9HashTableIN7WebCore6StringESt4pairIS2_PNS1_14CachedResourceEENS_18PairFirstExtractorIS6_EENS1_10StringHashENS_14PairHashTraitsINS_10HashTraitsIS2_EENSB_IS5_EEEESC_E4findIS2_NS_22IdentityHashTranslatorIS2_S6_S9_EEEENS_17HashTableIteratorIS2_S6_S8_S9_SE_SC_EERKT_
__ZN3WTF9HashTableIN7WebCore6StringESt4pairIS2_PNS1_14CachedResourceEENS_18PairFirstExtractorIS6_EENS1_10StringHashENS_14PairHashTraitsINS_10HashTraitsIS2_EENSB_IS5_EEEESC_E13allocateTableEi
__ZN3WTF9HashTableIN7WebCore6StringESt4pairIS2_PNS1_14CachedResourceEENS_18PairFirstExtractorIS6_EENS1_10StringHashENS_14PairHashTraitsINS_10HashTraitsIS2_EENSB_IS5_EEEESC_E15deallocateTableEPS6_i
__ZN3WTF9HashTableIN7WebCore6StringESt4pairIS2_PNS1_14CachedResourceEENS_18PairFirstExtractorIS6_EENS1_10StringHashENS_14PairHashTraitsINS_10HashTraitsIS2_EENSB_IS5_EEEESC_E6rehashEi
__ZN3WTF9HashTableIN7WebCore6StringESt4pairIS2_PNS1_14CachedResourceEENS_18PairFirstExtractorIS6_EENS1_10StringHashENS_14PairHashTraitsINS_10HashTraitsIS2_EENSB_IS5_EEEESC_E6removeEPS6_
__ZN3WTF9HashTableIN7WebCore6StringESt4pairIS2_PNS1_14CachedResourceEENS_18PairFirstExtractorIS6_EENS1_10StringHashENS_14PairHashTraitsINS_10HashTraitsIS2_EENSB_IS5_EEEESC_E47removeAndInvalidateWithoutEntryConsistencyCheckEPS6_
__ZN7WebCore5Cache16resourceAccessedEPNS_14CachedResourceE
__ZN7WebCore5Cache17removeFromLRUListEPNS_14CachedResourceE
__ZNK7WebCore14CachedResource12overheadSizeEv
__ZN7WebCore5Cache10adjustSizeEbi
__ZN7WebCore5Cache15insertInLRUListEPNS_14CachedResourceE
__ZN7WebCore5Cache10lruListForEPNS_14CachedResourceE
__ZN3WTF6VectorIN7WebCore5Cache7LRUListELm32EE4growEm
__ZN3WTF7HashMapIN7WebCore6StringENS1_20CachedResourceHandleINS1_14CachedResourceEEENS1_10StringHashENS_10HashTraitsIS2_EENS7_IS5_EEE3setERKS2_RKS5_
__ZN3WTF9HashTableIN7WebCore6StringESt4pairIS2_NS1_20CachedResourceHandleINS1_14CachedResourceEEEENS_18PairFirstExtractorIS7_EENS1_10StringHashENS_14PairHashTraitsINS_10HashTraitsIS2_EENSC_IS6_EEEESD_E6expandEv
__ZN3WTF9HashTableIN7WebCore6StringESt4pairIS2_NS1_20CachedResourceHandleINS1_14CachedResourceEEEENS_18PairFirstExtractorIS7_EENS1_10StringHashENS_14PairHashTraitsINS_10HashTraitsIS2_EENSC_IS6_EEEESD_E4findIS2_NS_22IdentityHashTranslatorIS2_S7_SA_EEEENS_17HashTableIteratorIS2_S7_S9_SA_SF_SD_EERKT_
__ZN3WTF9HashTableIN7WebCore6StringESt4pairIS2_NS1_20CachedResourceHandleINS1_14CachedResourceEEEENS_18PairFirstExtractorIS7_EENS1_10StringHashENS_14PairHashTraitsINS_10HashTraitsIS2_EENSC_IS6_EEEESD_E13allocateTableEi
__ZN3WTF9HashTableIN7WebCore6StringESt4pairIS2_NS1_20CachedResourceHandleINS1_14CachedResourceEEEENS_18PairFirstExtractorIS7_EENS1_10StringHashENS_14PairHashTraitsINS_10HashTraitsIS2_EENSC_IS6_EEEESD_E15deallocateTableEPS7_i
__ZN3WTF9HashTableIN7WebCore6StringESt4pairIS2_NS1_20CachedResourceHandleINS1_14CachedResourceEEEENS_18PairFirstExtractorIS7_EENS1_10StringHashENS_14PairHashTraitsINS_10HashTraitsIS2_EENSC_IS6_EEEESD_E6rehashEi
__ZN3WTF9HashTableIN7WebCore6StringESt4pairIS2_NS1_20CachedResourceHandleINS1_14CachedResourceEEEENS_18PairFirstExtractorIS7_EENS1_10StringHashENS_14PairHashTraitsINS_10HashTraitsIS2_EENSC_IS6_EEEESD_E6removeEPS7_
__ZN3WTF9HashTableIN7WebCore6StringESt4pairIS2_NS1_20CachedResourceHandleINS1_14CachedResourceEEEENS_18PairFirstExtractorIS7_EENS1_10StringHashENS_14PairHashTraitsINS_10HashTraitsIS2_EENSC_IS6_EEEESD_E47removeAndInvalidateWithoutEntryConsistencyCheckEPS7_
__ZN7WebCore24CachedResourceHandleBase11setResourceEPNS_14CachedResourceE
__ZN7WebCore9DocLoader22checkCacheObjectStatusEPNS_14CachedResourceE
__ZNK7WebCore9DocLoader5frameEv
__ZN7WebCore11CachedImage9addClientEPNS_20CachedResourceClientE
__ZN7WebCore14CachedResource9addClientEPNS_20CachedResourceClientE
__ZN7WebCore5Cache22addToLiveResourcesSizeEPNS_14CachedResourceE
__ZN3WTF7HashMapIPN7WebCore20CachedResourceClientEjNS_7PtrHashIS3_EENS_10HashTraitsIS3_EENS6_IjEEE3addERKS3_RKj
__ZN7WebCore16CSSStyleSelector13mapFillRepeatEPNS_9FillLayerEPNS_8CSSValueE
__ZNK7WebCore9FillLayer13containsImageEPNS_10StyleImageE
__ZN7WebCore16StyleCachedImage9addClientEPNS_12RenderObjectE
__ZNK7WebCore11RenderBlock19isBottomMarginQuirkEv
__ZNK7WebCore5Frame15preferredHeightEv
-[WAKWindow setNeedsDisplayInRect:]
-[DOMHTMLElement setInnerHTML:]
__ZN7WebCore11HTMLElement12setInnerHTMLERKNS_6StringERi
__ZN7WebCore11HTMLElement24createContextualFragmentERKNS_6StringE
__ZNK7WebCore15HTMLBodyElement17endTagRequirementEv
__ZN7WebCore16DocumentFragmentC1EPNS_8DocumentE
__ZN7WebCore16DocumentFragmentC2EPNS_8DocumentE
__ZN7WebCore25parseHTMLDocumentFragmentERKNS_6StringEPNS_16DocumentFragmentE
__ZN7WebCore13HTMLTokenizerC1EPNS_16DocumentFragmentE
__ZN7WebCore13HTMLTokenizerC2EPNS_16DocumentFragmentE
__ZN7WebCore10HTMLParserC1EPNS_16DocumentFragmentE
__ZN7WebCore10HTMLParserC2EPNS_16DocumentFragmentE
__ZN7WebCore13HTMLTokenizer19setForceSynchronousEb
__ZN7WebCore13HTMLTokenizer5writeERKNS_15SegmentedStringEb
__ZN7WebCore15SegmentedStringC1ERKS0_
__ZN7WebCore15SegmentedStringC2ERKS0_
__ZN7WebCore13HTMLTokenizer6setSrcERKNS_15SegmentedStringE
__ZN7WebCore15SegmentedStringaSERKS0_
__ZN7WebCore10StringImpl29createStrippingNullCharactersEPKtj
__ZN7WebCore10HTMLParser10parseTokenEPNS_5TokenE
__ZNK7WebCore4Node16virtualLocalNameEv
__ZN7WebCore10StringImpl22containsOnlyWhitespaceEv
__ZN7WebCore4Text21createWithLengthLimitEPNS_8DocumentERKNS_6StringERjj
__ZN7WebCore4TextC1EPNS_8DocumentERKNS_6StringE
__ZNK7WebCore4Node13isHTMLElementEv
__ZN7WebCore4Node12childAllowedEPS0_
__ZN7WebCore16DocumentFragment16childTypeAllowedENS_4Node8NodeTypeE
__ZN7WebCore4Node21finishParsingChildrenEv
__ZN7WebCore13HTMLTokenizer8parseTagERNS_15SegmentedStringENS0_5StateE
__ZNK7WebCore15SegmentedString6lengthEv
__ZN7WebCore12AtomicString3addEPKt
__ZN7WebCore10HTMLParser7getNodeEPNS_5TokenE
__ZN3WTF7HashMapIPN7WebCore16AtomicStringImplEMNS1_10HTMLParserEFbPNS1_5TokenERNS_6RefPtrINS1_4NodeEEEENS_7PtrHashIS3_EENS_10HashTraitsIS3_EENSF_ISC_EEE3setERKS3_RKSC_
__ZN3WTF9HashTableIPN7WebCore16AtomicStringImplESt4pairIS3_MNS1_10HTMLParserEFbPNS1_5TokenERNS_6RefPtrINS1_4NodeEEEEENS_18PairFirstExtractorISE_EENS_7PtrHashIS3_EENS_14PairHashTraitsINS_10HashTraitsIS3_EENSK_ISD_EEEESL_E6expandEv
__ZN3WTF9HashTableIPN7WebCore16AtomicStringImplESt4pairIS3_MNS1_10HTMLParserEFbPNS1_5TokenERNS_6RefPtrINS1_4NodeEEEEENS_18PairFirstExtractorISE_EENS_7PtrHashIS3_EENS_14PairHashTraitsINS_10HashTraitsIS3_EENSK_ISD_EEEESL_E4findIS3_NS_22IdentityHashTranslatorIS3_SE_SI_EEEENS_17HashTableIteratorIS3_SE_SG_SI_SN_SL_EERKT_
__ZN3WTF9HashTableIPN7WebCore16AtomicStringImplESt4pairIS3_MNS1_10HTMLParserEFbPNS1_5TokenERNS_6RefPtrINS1_4NodeEEEEENS_18PairFirstExtractorISE_EENS_7PtrHashIS3_EENS_14PairHashTraitsINS_10HashTraitsIS3_EENSK_ISD_EEEESL_E15deallocateTableEPSE_i
__ZN3WTF9HashTableIPN7WebCore16AtomicStringImplESt4pairIS3_MNS1_10HTMLParserEFbPNS1_5TokenERNS_6RefPtrINS1_4NodeEEEEENS_18PairFirstExtractorISE_EENS_7PtrHashIS3_EENS_14PairHashTraitsINS_10HashTraitsIS3_EENSK_ISD_EEEESL_E13allocateTableEi
__ZN3WTF9HashTableIPN7WebCore16AtomicStringImplESt4pairIS3_MNS1_10HTMLParserEFbPNS1_5TokenERNS_6RefPtrINS1_4NodeEEEEENS_18PairFirstExtractorISE_EENS_7PtrHashIS3_EENS_14PairHashTraitsINS_10HashTraitsIS3_EENSK_ISD_EEEESL_E6rehashEi
__ZNK3WTF7HashMapIPN7WebCore16AtomicStringImplEMNS1_10HTMLParserEFbPNS1_5TokenERNS_6RefPtrINS1_4NodeEEEENS_7PtrHashIS3_EENS_10HashTraitsIS3_EENSF_ISC_EEE3getERKS3_
__ZN7WebCore10HTMLParser23pCloserCreateErrorCheckEPNS_5TokenERN3WTF6RefPtrINS_4NodeEEE
__ZN7WebCore7Element15setAttributeMapEN3WTF10PassRefPtrINS_12NamedAttrMapEEE
__ZNK7WebCore14HTMLDivElement17endTagRequirementEv
__ZNK7WebCore14HTMLDivElement11tagPriorityEv
__ZN7WebCore13HTMLTokenizer13enlargeBufferEi
__ZN7WebCore11HTMLElement12childAllowedEPNS_4NodeE
__ZNK7WebCore4Node13isCommentNodeEv
__ZN7WebCore11HTMLElement8checkDTDEPKNS_4NodeE
__ZN7WebCore11HTMLElement15inEitherTagListEPKNS_4NodeE
__ZN7WebCore15SegmentedString15advanceSlowCaseERi
__ZN7WebCore15SegmentedString16advanceSubstringEv
__ZN7WebCore10HTMLParser15processCloseTagEPNS_5TokenE
__ZN7WebCore10HTMLParser8popBlockERKNS_12AtomicStringEb
__ZN7WebCore10HTMLParser25isAffectedByResidualStyleERKNS_12AtomicStringE
__ZN3WTF7HashSetIPN7WebCore16AtomicStringImplENS_7PtrHashIS3_EENS_10HashTraitsIS3_EEE3addERKS3_
__ZN3WTF9HashTableIPN7WebCore16AtomicStringImplES3_NS_17IdentityExtractorIS3_EENS_7PtrHashIS3_EENS_10HashTraitsIS3_EES9_E6expandEv
__ZN3WTF9HashTableIPN7WebCore16AtomicStringImplES3_NS_17IdentityExtractorIS3_EENS_7PtrHashIS3_EENS_10HashTraitsIS3_EES9_E6rehashEi
__ZN3WTF9HashTableIPN7WebCore16AtomicStringImplES3_NS_17IdentityExtractorIS3_EENS_7PtrHashIS3_EENS_10HashTraitsIS3_EES9_E13allocateTableEi
__ZNK7WebCore4Node22nonRendererRenderStyleEv
__ZN7WebCore10HTMLParser23reopenResidualStyleTagsEPNS_13HTMLStackElemEPNS_4NodeE
__ZN7WebCore5Frame8didParseEd
__ZN7WebCore13HTMLTokenizerD1Ev
__ZN7WebCore13HTMLTokenizerD2Ev
__ZN7WebCoreL27replaceChildrenWithFragmentEPNS_11HTMLElementEN3WTF10PassRefPtrINS_16DocumentFragmentEEERi
__ZNK7WebCore16DocumentFragment8nodeTypeEv
__ZN7WebCore13ContainerNode11removeChildEPNS_4NodeERi
__ZN7WebCoreL15willRemoveChildEPNS_4NodeE
__ZN7WebCore8Document17nodeWillBeRemovedEPNS_4NodeE
__ZN7WebCore19SelectionController17nodeWillBeRemovedEPNS_4NodeE
__ZN7WebCore8Document26removeFocusedNodeOfSubtreeEPNS_4NodeEb
__ZN7WebCore4Node15removedFromTreeEb
__ZN7WebCore4Text16rendererIsNeededEPNS_11RenderStyleE
__ZN7WebCore13CharacterData16rendererIsNeededEPNS_11RenderStyleE
__ZNK7WebCore13CharacterData22containsOnlyWhitespaceEv
__ZN7WebCore13ContainerNode15removedFromTreeEb
__ZN7WebCore11RenderBlock17deleteLineBoxTreeEv
__ZN7WebCore12RenderObject20createAnonymousBlockEv
__ZN7WebCore15RenderContainer13moveChildNodeEPNS_12RenderObjectE
__ZNK7WebCore12RenderObject17isSelectionBorderEv
__ZN7WebCore10TreeSharedINS_4NodeEE14removedLastRefEv
__ZN7WebCore16DocumentFragmentD0Ev
__ZN7WebCore13RootInlineBox8OverflownwEmPNS_11RenderArenaE
__ZN7WebCore11RenderBlock14fitBelowFloatsEiRi
__ZNK7WebCore11RenderBlock20nextFloatBottomBelowEi
-[DOMNode nodeValue]
__ZNK7WebCore13CharacterData9nodeValueEv
-[DOMNode nodeName]
__ZNK7WebCore11HTMLElement8nodeNameEv
__ZNK7WebCore6String5upperEv
__ZN7WebCore10StringImpl5upperEv
__ZN7WebCore9FrameView14setNeedsLayoutEv
__ZNK7WebCore16StyleCachedImage9canRenderEf
__ZNK7WebCore11CachedImage9imageSizeEf
__ZNK7WebCore11RenderBlock15borderFitAdjustERiS1_
__ZN7WebCore12RenderObject14paintBoxShadowEPNS_15GraphicsContextEiiiiPKNS_11RenderStyleEbb
__ZNK7WebCore13RootInlineBox5blockEv
-[DOMDocument documentElement]
-[DOMElement tagName]
-[WebCoreResourceHandleAsDelegate connection:didReceiveResponse:]
__ZN7WebCoreL33QLPreviewGetSupportedMIMETypesSetEv
__ZL34initQLPreviewGetSupportedMIMETypesv
__ZL22MobileQuickLookLibraryv
__ZN7WebCore16MIMETypeRegistry24isSupportedImageMIMETypeERKNS_6StringE
__ZN7WebCore14ResourceLoader18didReceiveResponseEPNS_14ResourceHandleERKNS_16ResourceResponseE
__ZNK7WebCore4KURL11isLocalFileEv
__ZN7WebCore17SubresourceLoader18didReceiveResponseERKNS_16ResourceResponseE
__ZN7WebCore6Loader4Host18didReceiveResponseEPNS_17SubresourceLoaderERKNS_16ResourceResponseE
__ZNK3WTF7HashMapINS_6RefPtrIN7WebCore17SubresourceLoaderEEEPNS2_7RequestENS_7PtrHashIS4_EENS_10HashTraitsIS4_EENS9_IS6_EEE3getEPS3_
__ZN7WebCore14CachedResource11setResponseERKNS_16ResourceResponseE
__ZNK7WebCore20ResourceResponseBase14expirationDateEv
__ZNK7WebCore20ResourceResponseBase16textEncodingNameEv
__ZN7WebCore14ResourceLoader18didReceiveResponseERKNS_16ResourceResponseE
__ZN7WebCore11FrameLoader18didReceiveResponseEPNS_14ResourceLoaderERKNS_16ResourceResponseE
__ZN7WebCore14DocumentLoader11addResponseERKNS_16ResourceResponseE
__ZN3WTF6VectorIN7WebCore16ResourceResponseELm0EE14expandCapacityEmPKS2_
__ZN3WTF6VectorIN7WebCore16ResourceResponseELm0EE14expandCapacityEm
__ZN3WTF6VectorIN7WebCore16ResourceResponseELm0EE15reserveCapacityEm
__ZN7WebCore15ProgressTracker17incrementProgressEmRKNS_16ResourceResponseE
__ZN7WebCore11FrameLoader26dispatchDidReceiveResponseEPNS_14DocumentLoaderEmRKNS_16ResourceResponseE
-[WebCoreResourceHandleAsDelegate connection:didReceiveData:lengthReceived:]
__ZN7WebCore14ResourceLoader14didReceiveDataEPNS_14ResourceHandleEPKcii
__ZN7WebCore17SubresourceLoader14didReceiveDataEPKcixb
__ZN7WebCore14ResourceLoader14didReceiveDataEPKcixb
__ZN7WebCore14ResourceLoader7addDataEPKcib
__ZN7WebCore12SharedBufferC1EPKci
__ZN7WebCore12SharedBufferC2EPKci
__ZN3WTF6VectorIcLm0EE6appendIcEEvPKT_m
__ZN3WTF6VectorIcLm0EE14expandCapacityEmPKc
__ZN3WTF6VectorIcLm0EE14expandCapacityEm
__ZN3WTF6VectorIcLm0EE15reserveCapacityEm
__ZN7WebCore11FrameLoader14didReceiveDataEPNS_14ResourceLoaderEPKcii
__ZN7WebCore15ProgressTracker17incrementProgressEmPKci
__ZN7WebCore11FrameLoader31dispatchDidReceiveContentLengthEPNS_14DocumentLoaderEmi
__ZN7WebCore6Loader4Host14didReceiveDataEPNS_17SubresourceLoaderEPKci
__ZN7WebCore11CachedImage4dataEN3WTF10PassRefPtrINS_12SharedBufferEEEb
__ZN7WebCore11BitmapImageC1EPNS_13ImageObserverE
__ZN7WebCore11BitmapImageC2EPNS_13ImageObserverE
__ZN7WebCore5ImageC2EPNS_13ImageObserverE
__ZN7WebCore11ImageSourceC1Ev
__ZN7WebCore11ImageSourceC2Ev
__ZN7WebCore11BitmapImage16initPlatformDataEv
__ZN7WebCore5Image7setDataEN3WTF10PassRefPtrINS_12SharedBufferEEEb
__ZNK7WebCore12SharedBuffer4sizeEv
__ZNK7WebCore12SharedBuffer15hasPlatformDataEv
__ZN7WebCore11BitmapImage11dataChangedEb
__ZN7WebCore11BitmapImage24destroyMetadataAndNotifyEi
__ZN7WebCore11BitmapImage22invalidatePlatformDataEv
__ZN7WebCore11ImageSource7setDataEPNS_12SharedBufferEb
__ZN7WebCore12SharedBuffer12createCFDataEv
+[WebCoreSharedBufferData initialize]
-[WebCoreSharedBufferData initWithSharedBuffer:]
-[WebCoreSharedBufferData length]
__ZN7WebCore11BitmapImage15isSizeAvailableEv
__ZN7WebCore11ImageSource15isSizeAvailableEv
-[WebCoreSharedBufferData bytes]
__ZNK7WebCore12SharedBuffer4dataEv
__ZNK7WebCore11ImageSource18imageSourceOptionsEi
__ZN7WebCore11CachedImage23maximumDecodedImageSizeEv
__ZNK7WebCore11BitmapImage4sizeEv
__ZNK7WebCore11ImageSource4sizeEv
__ZNK7WebCore11ImageSource16frameSizeAtIndexEm
__ZN7WebCore11CachedImage16checkOutOfMemoryEv
__ZN7WebCore26CachedResourceClientWalkerC1ERKN3WTF14HashCountedSetIPNS_20CachedResourceClientENS1_7PtrHashIS4_EENS1_10HashTraitsIS4_EEEE
__ZN7WebCore26CachedResourceClientWalkerC2ERKN3WTF14HashCountedSetIPNS_20CachedResourceClientENS1_7PtrHashIS4_EENS1_10HashTraitsIS4_EEEE
__ZN7WebCore26CachedResourceClientWalker4nextEv
__ZNK3WTF9HashTableIPN7WebCore20CachedResourceClientESt4pairIS3_jENS_18PairFirstExtractorIS5_EENS_7PtrHashIS3_EENS_14PairHashTraitsINS_10HashTraitsIS3_EENSB_IjEEEESC_E8containsIS3_NS_22IdentityHashTranslatorIS3_S5_S9_EEEEbRKT_
__ZN7WebCore20CachedResourceClient18memoryLimitReachedEv
__ZN3WTF6VectorIPN7WebCore20CachedResourceClientELm0EE6shrinkEm
__ZN7WebCore11CachedImage15notifyObserversEPKNS_7IntRectE
__ZN7WebCore12RenderObject12imageChangedEPNS_11CachedImageEPKNS_7IntRectE
__ZN7WebCore9RenderBox12imageChangedEPvPKNS_7IntRectE
__ZN7WebCore9RenderBox25repaintLayerRectsForImageEPvPKNS_9FillLayerEb
__ZNK7WebCore16StyleCachedImage4dataEv
__ZN7WebCore9RenderBox32calculateBackgroundImageGeometryEPKNS_9FillLayerEiiiiRNS_7IntRectERNS_8IntPointERNS_7IntSizeE
__ZNK7WebCore9RenderBox23calculateBackgroundSizeEPKNS_9FillLayerEii
__ZN7WebCore16StyleCachedImage21setImageContainerSizeERKNS_7IntSizeE
__ZN7WebCore11CachedImage21setImageContainerSizeERKNS_7IntSizeE
__ZN7WebCore5Image16setContainerSizeERKNS_7IntSizeE
__ZNK7WebCore16StyleCachedImage9imageSizeEPKNS_12RenderObjectEf
__ZN7WebCore20CachedResourceClient12imageChangedEPNS_11CachedImageEPKNS_7IntRectE
__ZN7WebCore12RenderObject12imageChangedEPvPKNS_7IntRectE
__ZN7WebCore14CachedResource14setEncodedSizeEj
-[WebCoreResourceHandleAsDelegate connectionDidFinishLoading:]
__ZN7WebCore14ResourceLoader16didFinishLoadingEPNS_14ResourceHandleE
__ZN7WebCore17SubresourceLoader16didFinishLoadingEv
__ZN7WebCore6Loader4Host16didFinishLoadingEPNS_17SubresourceLoaderE
__ZN7WebCore9DocLoader21decrementRequestCountEv
__ZN7WebCore9DocLoader17setLoadInProgressEb
-[WebCoreSharedBufferData dealloc]
__ZN7WebCore11CachedImage11checkNotifyEv
__ZN7WebCore20CachedResourceClient14notifyFinishedEPNS_14CachedResourceE
__ZN7WebCore14CachedResource6finishEv
__ZN7WebCore7RequestD1Ev
__ZN7WebCore7RequestD2Ev
__ZN7WebCore11FrameLoader8loadDoneEv
__ZN7WebCore9DocLoader23checkForPendingPreloadsEv
__ZN7WebCore14DocumentLoader23removeSubresourceLoaderEPNS_14ResourceLoaderE
__ZN7WebCore14ResourceLoader16didFinishLoadingEv
__ZN7WebCore14ResourceLoader23didFinishLoadingOnePartEv
__ZN7WebCore11FrameLoader13didFinishLoadEPNS_14ResourceLoaderE
__ZN7WebCore11FrameLoader24dispatchDidFinishLoadingEPNS_14DocumentLoaderEm
__ZN7WebCore17SubresourceLoaderD0Ev
__ZNK7WebCore16StyleCachedImage5imageEPNS_12RenderObjectERKNS_7IntSizeE
__ZNK7WebCore11CachedImage5imageEv
__ZN7WebCore15GraphicsContext14drawTiledImageEPNS_5ImageERKNS_7IntRectERKNS_8IntPointERKNS_7IntSizeENS_17CompositeOperatorE
__ZN7WebCore5Image9drawTiledEPNS_15GraphicsContextERKNS_9FloatRectERKNS_10FloatPointERKNS_9FloatSizeENS_17CompositeOperatorE
__ZNK7WebCore11BitmapImage21mayFillWithSolidColorEv
__ZNK7WebCore5Image16hasRelativeWidthEv
__ZNK7WebCore5Image17hasRelativeHeightEv
__ZN7WebCore20TransformationMatrix15scaleNonUniformEdd
__ZN7WebCore20TransformationMatrix8multLeftERKS0_
__ZNK7WebCore9FloatRect8containsERKS0_
__ZNK7WebCore15GraphicsContext6getCTMEv
__ZNK7WebCore20TransformationMatrix7mapRectERKNS_9FloatRectE
__ZNK7WebCore20TransformationMatrix7mapQuadERKNS_9FloatQuadE
__ZNK7WebCore20TransformationMatrix8mapPointERKNS_10FloatPointE
__ZNK7WebCore20TransformationMatrix13multVecMatrixEddRdS1_
__ZN7WebCore5Image11drawPatternEPNS_15GraphicsContextERKNS_9FloatRectERKNS_20TransformationMatrixERKNS_10FloatPointENS_17CompositeOperatorES5_
__ZN7WebCore11BitmapImage26nativeImageForCurrentFrameEv
__ZN7WebCore11BitmapImage12frameAtIndexEm
__ZN7WebCore11BitmapImage12frameAtIndexEmf
__ZN7WebCore11BitmapImage10frameCountEv
__ZNK7WebCore11ImageSource10frameCountEv
__ZN7WebCore11BitmapImage10cacheFrameEmf
__ZN3WTF6VectorIN7WebCore9FrameDataELm0EE4growEm
__ZN3WTF6VectorIN7WebCore9FrameDataELm0EE14expandCapacityEm
__ZN3WTF6VectorIN7WebCore9FrameDataELm0EE15reserveCapacityEm
__ZThn268_N7WebCore11CachedImage17shouldDecodeFrameEPKNS_5ImageERKNS_7IntSizeE
__ZN7WebCore11CachedImage17shouldDecodeFrameEPKNS_5ImageERKNS_7IntSizeE
__ZN7WebCore11ImageSource18createFrameAtIndexEmfPfPl
__ZNK7WebCore11ImageSource11initializedEv
__ZN7WebCore11BitmapImage18checkForSolidColorEv
__ZN7WebCore11ImageSource22frameIsCompleteAtIndexEm
__ZN7WebCore11BitmapImage15repetitionCountEb
__ZN7WebCore11ImageSource15repetitionCountEv
__ZN7WebCore11ImageSource20frameHasAlphaAtIndexEm
__ZThn268_N7WebCore11CachedImage18decodedSizeChangedEPKNS_5ImageEi
__ZN7WebCore11CachedImage18decodedSizeChangedEPKNS_5ImageEi
__ZN7WebCore14CachedResource14setDecodedSizeEj
__ZN7WebCore5Cache32insertInLiveDecodedResourcesListEPNS_14CachedResourceE
__ZNK7WebCore20TransformationMatrix12isInvertibleEv
__ZN7WebCoreL14determinant4x4ERA4_A4_Kd
__ZN7WebCoreL14determinant3x3Eddddddddd
__ZN7WebCoreL14determinant2x2Edddd
__ZThn268_N7WebCore11CachedImage7didDrawEPKNS_5ImageE
__ZN7WebCore11CachedImage7didDrawEPKNS_5ImageE
__ZN7WebCore14CachedResource20didAccessDecodedDataEd
__ZN7WebCore5Cache34removeFromLiveDecodedResourcesListEPNS_14CachedResourceE
__ZN7WebCore11BitmapImage14startAnimationEb
__ZN7WebCore11BitmapImage13shouldAnimateEv
-[DOMNode childNodes]
__ZN7WebCore4Node10childNodesEv
__ZN7WebCore4Node14createRareDataEv
__ZN7WebCore15DynamicNodeList6CachesC1Ev
__ZN7WebCore15DynamicNodeList6CachesC2Ev
__ZN7WebCore13ChildNodeListC1EN3WTF10PassRefPtrINS_4NodeEEEPNS_15DynamicNodeList6CachesE
__ZN7WebCore13ChildNodeListC2EN3WTF10PassRefPtrINS_4NodeEEEPNS_15DynamicNodeList6CachesE
__ZN7WebCore15DynamicNodeListC2EN3WTF10PassRefPtrINS_4NodeEEEPNS0_6CachesE
__ZN7WebCore4Node23registerDynamicNodeListEPNS_15DynamicNodeListE
+[DOMNodeList(WebCoreInternal) _wrapNodeList:]
-[DOMNodeList(WebCoreInternal) _initWithNodeList:]
-[DOMNodeList length]
__ZNK7WebCore13ChildNodeList6lengthEv
-[DOMNode parentNode]
-[DOMNodeList dealloc]
__ZN7WebCore13ChildNodeListD0Ev
__ZN7WebCore15DynamicNodeListD2Ev
__ZN7WebCore4Node25unregisterDynamicNodeListEPNS_15DynamicNodeListE
__ZN7WebCore5Frame27nodeRespondingToClickEventsEP7CGPoint
__ZN7WebCore5Frame32qualifyingNodeAtViewportLocationEP7CGPointPFPNS_4NodeENS_13HitTestResultES4_PNS_7IntRectEEb
__ZNK7WebCore10ScrollView16windowToContentsERKNS_8IntPointE
__ZN7WebCore12EventHandler20hitTestResultAtPointERKNS_8IntPointEb
__ZN7WebCore13HitTestResultC1ERKNS_8IntPointE
__ZN7WebCore13HitTestResultC2ERKNS_8IntPointE
__ZN7WebCore11RenderLayer7hitTestERKNS_14HitTestRequestERNS_13HitTestResultE
__ZN7WebCore11RenderLayer12hitTestLayerEPS0_S1_RKNS_14HitTestRequestERNS_13HitTestResultERKNS_7IntRectERKNS_8IntPointEbPKNS_24HitTestingTransformStateEPd
__ZN7WebCore11RenderLayer35update3DTransformedDescendantStatusEv
__ZNK7WebCore11RenderLayer15hitTestContentsERKNS_14HitTestRequestERNS_13HitTestResultERKNS_7IntRectERKNS_8IntPointENS_13HitTestFilterE
__ZN7WebCore12RenderObject7hitTestERKNS_14HitTestRequestERNS_13HitTestResultERKNS_8IntPointEiiNS_13HitTestFilterE
__ZN7WebCore11RenderBlock11nodeAtPointERKNS_14HitTestRequestERNS_13HitTestResultEiiiiNS_13HitTestActionE
__ZN7WebCore11RenderBlock15hitTestContentsERKNS_14HitTestRequestERNS_13HitTestResultEiiiiNS_13HitTestActionE
__ZN7WebCore10RenderFlow12hitTestLinesERKNS_14HitTestRequestERNS_13HitTestResultEiiiiNS_13HitTestActionE
__ZN7WebCore13RootInlineBox11nodeAtPointERKNS_14HitTestRequestERNS_13HitTestResultEiiii
__ZN7WebCore13InlineFlowBox11nodeAtPointERKNS_14HitTestRequestERNS_13HitTestResultEiiii
__ZN7WebCore13InlineTextBox11nodeAtPointERKNS_14HitTestRequestERNS_13HitTestResultEiiii
__ZN7WebCore12RenderObject19updateHitTestResultERNS_13HitTestResultERKNS_8IntPointE
__ZNK7WebCore12RenderObject19virtualContinuationEv
__ZN7WebCore13HitTestResult12setInnerNodeEPNS_4NodeE
__ZN7WebCore13HitTestResult21setInnerNonSharedNodeEPNS_4NodeE
__ZN7WebCoreL14isHitCandidateEPKNS_11RenderLayerEbPdPKNS_24HitTestingTransformStateE
__ZN7WebCore13HitTestResultaSERKS0_
__ZN7WebCore13HitTestResultD1Ev
__ZN7WebCore13HitTestResultD2Ev
__ZN7WebCore11RenderLayer22updateHoverActiveStateERKNS_14HitTestRequestERNS_13HitTestResultE
__ZN7WebCore13HitTestResult22setToNonShadowAncestorEv
__ZN7WebCore13HitTestResultC1ERKS0_
__ZN7WebCore13HitTestResultC2ERKS0_
__ZN7WebCoreL31ancestorRespondingToClickEventsENS_13HitTestResultEPNS_4NodeEPNS_7IntRectE
__ZN7WebCore15EventTargetNode29willRespondToMouseClickEventsEv
__ZN7WebCore4Node29willRespondToMouseClickEventsEv
__ZN7WebCoreL21containsListenerTypesERKN3WTF6VectorINS0_6RefPtrINS_23RegisteredEventListenerEEELm0EEERKNS0_7HashSetIPNS_16AtomicStringImplENS0_7PtrHashISA_EENS0_10HashTraitsISA_EEEE
__ZN7WebCore15EventTargetNode28willRespondToMouseMoveEventsEv
__ZN7WebCore4Node28willRespondToMouseMoveEventsEv
__ZN7WebCore11HTMLElement29willRespondToMouseClickEventsEv
__ZN7WebCore11HTMLElement28willRespondToMouseMoveEventsEv
-[WAKView scale]
_WKViewGetScale
__ZN7WebCore11RenderBlock24isPointInOverflowControlERNS_13HitTestResultEiiii
__ZN7WebCore8IntPointC1ERK7CGPoint
__ZN7WebCore8IntPointC2ERK7CGPoint
__ZNK7WebCore5Frame27singleLineSelectionBehaviorEv
__ZN7WebCore10RenderText22positionForCoordinatesEii
__ZNK7WebCore13InlineTextBox17offsetForPositionEib
__ZNK7WebCore4Font17offsetForPositionERKNS_7TextRunEib
__ZNK7WebCore4Font30offsetForPositionForSimpleTextERKNS_7TextRunEib
__ZN7WebCore13WidthIterator19advanceOneCharacterERfPNS_11GlyphBufferE
__ZN3WTF6VectorIPKN7WebCore14SimpleFontDataELm2048EE14shrinkCapacityEm
__ZN3WTF6VectorItLm2048EE14shrinkCapacityEm
__ZN3WTF6VectorI6CGSizeLm2048EE14shrinkCapacityEm
__ZNK7WebCore16PositionIterator11atEndOfNodeEv
__ZNK7WebCore6Editor16hasBidiSelectionEv
__ZNK7WebCore11RenderBlock24containsNonZeroBidiLevelEv
__ZN7WebCoreL22centerTruncateToBufferERKNS_6StringEjjPt
__ZN7WebCore11isTextBreakEPNS_17TextBreakIteratorEi
__ZN7WebCore12RenderObject23absoluteBoundingBoxRectEb
__ZN7WebCore9RenderBox13absoluteRectsERN3WTF6VectorINS_7IntRectELm0EEEiib
__ZNK7WebCore10ScrollView16contentsToWindowERKNS_8IntPointE
-[WAKView convertPoint:toView:]
__ZNK7WebCore5Frame30applyEditingStyleToBodyElementEv
__ZN7WebCore4Node20getElementsByTagNameERKNS_6StringE
__ZN7WebCore4Node22getElementsByTagNameNSERKNS_12AtomicStringERKNS_6StringE
__ZN3WTF7HashMapIN7WebCore13QualifiedNameEPNS1_15DynamicNodeList6CachesENS1_17QualifiedNameHashENS_10HashTraitsIS2_EENS7_IS5_EEE3addERKS2_RKS5_
__ZN3WTF9HashTableIN7WebCore13QualifiedNameESt4pairIS2_PNS1_15DynamicNodeList6CachesEENS_18PairFirstExtractorIS7_EENS1_17QualifiedNameHashENS_14PairHashTraitsINS_10HashTraitsIS2_EENSC_IS6_EEEESD_E6expandEv
__ZN3WTF9HashTableIN7WebCore13QualifiedNameESt4pairIS2_PNS1_15DynamicNodeList6CachesEENS_18PairFirstExtractorIS7_EENS1_17QualifiedNameHashENS_14PairHashTraitsINS_10HashTraitsIS2_EENSC_IS6_EEEESD_E4findIS2_NS_22IdentityHashTranslatorIS2_S7_SA_EEEENS_17HashTableIteratorIS2_S7_S9_SA_SF_SD_EERKT_
__ZN3WTF9HashTableIN7WebCore13QualifiedNameESt4pairIS2_PNS1_15DynamicNodeList6CachesEENS_18PairFirstExtractorIS7_EENS1_17QualifiedNameHashENS_14PairHashTraitsINS_10HashTraitsIS2_EENSC_IS6_EEEESD_E15deallocateTableEPS7_i
__ZN3WTF9HashTableIN7WebCore13QualifiedNameESt4pairIS2_PNS1_15DynamicNodeList6CachesEENS_18PairFirstExtractorIS7_EENS1_17QualifiedNameHashENS_14PairHashTraitsINS_10HashTraitsIS2_EENSC_IS6_EEEESD_E13allocateTableEi
__ZN3WTF9HashTableIN7WebCore13QualifiedNameESt4pairIS2_PNS1_15DynamicNodeList6CachesEENS_18PairFirstExtractorIS7_EENS1_17QualifiedNameHashENS_14PairHashTraitsINS_10HashTraitsIS2_EENSC_IS6_EEEESD_E6rehashEi
__ZN7WebCore11TagNodeListC1EN3WTF10PassRefPtrINS_4NodeEEERKNS_12AtomicStringES7_PNS_15DynamicNodeList6CachesE
__ZN7WebCore11TagNodeListC2EN3WTF10PassRefPtrINS_4NodeEEERKNS_12AtomicStringES7_PNS_15DynamicNodeList6CachesE
__ZNK7WebCore15DynamicNodeList6lengthEv
__ZNK7WebCore11TagNodeList11nodeMatchesEPNS_7ElementE
__ZNK7WebCore15DynamicNodeList4itemEj
__ZNK7WebCore15DynamicNodeList23itemForwardsFromCurrentEPNS_4NodeEji
__ZNK7WebCore5Frame26applyEditingStyleToElementEPNS_7ElementE
__ZN7WebCore13StyledElement5styleEv
__ZN7WebCore11TagNodeListD0Ev
__ZNK7WebCore12RenderObject12isListMarkerEv
-[DOMDocument getElementsByTagName:]
__ZNK7WebCore19SelectionController29characterBeforeCaretSelectionEv
__ZN7WebCore17CharacterIteratorC1EPKNS_5RangeEbb
__ZN7WebCore17CharacterIteratorC2EPKNS_5RangeEbb
__ZN7WebCore17CharacterIterator7advanceEi
__ZNK7WebCore17CharacterIterator5rangeEv
__ZN3WTF6VectorItLm0EE6shrinkEm
__ZN7WebCore12TextIterator8exitNodeEv
__ZN7WebCoreL26shouldEmitNewlineAfterNodeEPNS_4NodeE
__ZN7WebCore12TextIterator33shouldEmitSpaceBeforeAndAfterNodeEPNS_4NodeE
__ZNK7WebCore19SelectionController17wordOffsetInRangeEPKNS_5RangeE
__ZNK7WebCore5Range11startOffsetERi
__ZN7WebCore5Frame38moveSelectionToStartOrEndOfCurrentWordEv
__ZN7WebCore13isStartOfLineERKNS_15VisiblePositionE
__ZNK7WebCore19SelectionController35characterInRelationToCaretSelectionEi
__ZNK7WebCore12RenderObject7isImageEv
__ZN7WebCore12TextIterator17handleNonTextNodeEv
__ZN7WebCore12TextIterator13emitCharacterEtPNS_4NodeES2_ii
__ZNK7WebCore5Frame22rectForScrollToVisibleEv
__ZN7WebCore13endOfDocumentERKNS_15VisiblePositionE
__ZN7WebCore13endOfDocumentEPKNS_4NodeE
__ZN7WebCore19SelectionController45expandSelectionToWordContainingCaretSelectionEv
__ZN7WebCore5Range21collectSelectionRectsERN3WTF6VectorINS_13SelectionRectELm0EEE
__ZN7WebCore10RenderText21collectSelectionRectsERN3WTF6VectorINS_13SelectionRectELm0EEEjj
__ZN7WebCore13InlineTextBox13selectionRectEiiii
__ZN7WebCore13InlineTextBox12selectionTopEv
__ZN7WebCore13InlineTextBox15selectionHeightEv
__ZN7WebCore11RenderBlock19leftSelectionOffsetEPS0_i
__ZN7WebCore11RenderBlock20rightSelectionOffsetEPS0_i
__ZNK7WebCore9InlineBox16prevOnLineExistsEv
__ZNK7WebCore9InlineBox16nextOnLineExistsEv
__ZN7WebCore13SelectionRectC1ERKNS_7IntRectENS_13TextDirectionEiibbbbb
__ZN7WebCore13SelectionRectC2ERKNS_7IntRectENS_13TextDirectionEiibbbbb
__ZN3WTF6VectorIN7WebCore13SelectionRectELm0EE14expandCapacityEmPKS2_
__ZN3WTF6VectorIN7WebCore13SelectionRectELm0EE14expandCapacityEm
__ZN3WTF6VectorIN7WebCore13SelectionRectELm0EE15reserveCapacityEm
__ZN3WTF6VectorIN7WebCore13SelectionRectELm0EE6appendIS2_EEvPKT_m
__ZN3WTF6VectorIN7WebCore13SelectionRectELm0EE6shrinkEm
__ZN7WebCore9FrameView25deferredRepaintTimerFiredEPNS_5TimerIS0_EE
__ZN7WebCore19SelectionController6moveToERKNS_15VisiblePositionES3_b
__ZNK7WebCore15VisiblePosition19absoluteCaretBoundsEv
__ZN7WebCore11RenderBlock22positionForCoordinatesEii
__ZN7WebCore13RootInlineBox23closestLeafChildForXPosEib
__ZNK7WebCore9RenderBox12scrollHeightEv
-[DOMDocument createDocumentFragment]
__ZN7WebCore8Document22createDocumentFragmentEv
+[DOMDocumentFragment(WebCoreInternal) _wrapDocumentFragment:]
__ZN7WebCore22createFragmentFromTextEPNS_5RangeERKNS_6StringE
__ZN7WebCore10StringImpl7replaceEPS0_S1_
__ZN7WebCoreL23fillContainerFromStringEPNS_13ContainerNodeERKNS_6StringE
__ZNK7WebCore6String5splitEtbRN3WTF6VectorIS0_Lm0EEE
__ZN7WebCore30stringWithRebalancedWhitespaceERKNS_6StringEbb
__ZN7WebCore8Document14createTextNodeERKNS_6StringE
__ZN7WebCore4Node30notifyNodeListsChildrenChangedEv
__ZN7WebCore4Node35notifyLocalNodeListsChildrenChangedEv
-[DOMDocumentFragment(WebCoreInternal) _documentFragment]
__ZN7WebCore23ReplaceSelectionCommandC1EPNS_8DocumentEN3WTF10PassRefPtrINS_16DocumentFragmentEEEbbbbbNS_10EditActionE
__ZN7WebCore23ReplaceSelectionCommandC2EPNS_8DocumentEN3WTF10PassRefPtrINS_16DocumentFragmentEEEbbbbbNS_10EditActionE
__ZN7WebCore23ReplaceSelectionCommand7doApplyEv
__ZN7WebCore19ReplacementFragmentC1EPNS_8DocumentEPNS_16DocumentFragmentEbRKNS_9SelectionE
__ZN7WebCore19ReplacementFragmentC2EPNS_8DocumentEPNS_16DocumentFragmentEbRKNS_9SelectionE
__ZNK7WebCore15EventTargetNode26inlineEventListenerForTypeERKNS_12AtomicStringE
__ZN7WebCore19ReplacementFragment22removeInterchangeNodesEPNS_4NodeE
__ZN7WebCoreL24isInterchangeNewlineNodeEPKNS_4NodeE
__ZN7WebCoreL31isInterchangeConvertedSpaceSpanEPKNS_4NodeE
__ZN7WebCore21nearestMailBlockquoteEPKNS_4NodeE
__ZN7WebCore16isMailBlockquoteEPKNS_4NodeE
__ZNK7WebCore7Element12getAttributeERKNS_6StringE
__ZN7WebCore20CompositeEditCommand35prepareWhitespaceAtPositionForSplitERNS_8PositionE
__ZN7WebCore14isStartOfBlockERKNS_15VisiblePositionE
__ZN7WebCore12startOfBlockERKNS_15VisiblePositionE
__ZN7WebCore17positionAfterNodeEPKNS_4NodeE
__ZN7WebCore20CompositeEditCommand22positionOutsideTabSpanERKNS_8PositionE
__ZNK7WebCore19ReplacementFragment10firstChildEv
__ZN7WebCoreL26isMailPasteAsQuotationNodeEPKNS_4NodeE
__ZN7WebCore11isStyleSpanEPKNS_4NodeE
__ZNK7WebCore19ReplacementFragment7isEmptyEv
__ZN7WebCore19ReplacementFragment10removeNodeEN3WTF10PassRefPtrINS_4NodeEEE
__ZN7WebCore15highestAncestorEPNS_4NodeE
__ZN7WebCore23ReplaceSelectionCommand34insertNodeAtAndUpdateNodesInsertedEN3WTF10PassRefPtrINS_4NodeEEERKNS_8PositionE
__ZN7WebCore17NodeListsNodeData16invalidateCachesEv
__ZN7WebCore15DynamicNodeList6Caches5resetEv
__ZN7WebCore17NodeListsNodeData38invalidateCachesThatDependOnAttributesEv
__ZNK7WebCore17NodeListsNodeData7isEmptyEv
__ZN3WTF20deleteAllPairSecondsIPN7WebCore15DynamicNodeList6CachesEKNS_7HashMapINS1_6StringES4_NS1_10StringHashENS_10HashTraitsIS6_EENS8_IS4_EEEEEEvRT0_
__ZN3WTF20deleteAllPairSecondsIPN7WebCore15DynamicNodeList6CachesEKNS_7HashMapINS1_13QualifiedNameES4_NS1_17QualifiedNameHashENS_10HashTraitsIS6_EENS8_IS4_EEEEEEvRT0_
__ZN3WTF9HashTableIPN7WebCore15DynamicNodeListES3_NS_17IdentityExtractorIS3_EENS_7PtrHashIS3_EENS_10HashTraitsIS3_EES9_E15deallocateTableEPS3_i
__ZN7WebCore23ReplaceSelectionCommand19updateNodesInsertedEPNS_4NodeE
__ZNK7WebCore4Node14lastDescendantEv
__ZN7WebCore23ReplaceSelectionCommand31removeUnrenderedTextNodesAtEndsEv
__ZN7WebCore23ReplaceSelectionCommand36negateStyleRulesThatAffectAppearanceEv
__ZN7WebCore23ReplaceSelectionCommand16handleStyleSpansEv
__ZN7WebCore23ReplaceSelectionCommand30positionAtEndOfInsertedContentEv
__ZN7WebCore20enclosingNodeWithTagERKNS_8PositionERKNS_13QualifiedNameE
__ZN7WebCore23ReplaceSelectionCommand32positionAtStartOfInsertedContentEv
__ZN7WebCore23ReplaceSelectionCommand17shouldRemoveEndBREPNS_4NodeERKNS_15VisiblePositionE
__ZN7WebCore23ReplaceSelectionCommand14shouldMergeEndEb
__ZN7WebCore23ReplaceSelectionCommand16shouldMergeStartEbb
__ZN7WebCore23ReplaceSelectionCommand11shouldMergeERKNS_15VisiblePositionES3_
__ZN7WebCore18enclosingListChildEPNS_4NodeE
__ZN7WebCore13isListElementEPNS_4NodeE
__ZN7WebCore18enclosingTableCellERKNS_8PositionE
__ZN7WebCore18createBreakElementEPNS_8DocumentE
__ZN7WebCore13HTMLBRElementC1ERKNS_13QualifiedNameEPNS_8DocumentE
__ZN7WebCore13HTMLBRElementC2ERKNS_13QualifiedNameEPNS_8DocumentE
__ZN7WebCore14caretMinOffsetEPKNS_4NodeE
__ZN7WebCore14caretMaxOffsetEPKNS_4NodeE
__ZN7WebCore20CompositeEditCommand15insertNodeAfterEN3WTF10PassRefPtrINS_4NodeEEES4_
__ZN7WebCore16CSSStyleSelector24canShareStyleWithElementEPNS_4NodeE
__ZN7WebCore13HTMLBRElement14createRendererEPNS_11RenderArenaEPNS_11RenderStyleE
__ZN7WebCore8RenderBRC1EPNS_4NodeE
__ZN7WebCore8RenderBRC2EPNS_4NodeE
__ZN7WebCore8RenderBR14styleDidChangeENS_15StyleDifferenceEPKNS_11RenderStyleE
__ZNK7WebCore8RenderBR4isBREv
__ZNK7WebCore13RootInlineBox19lineBreakBidiStatusEv
__ZN7WebCore13RootInlineBox8Overflow7destroyEPNS_11RenderArenaE
__ZN7WebCore13RootInlineBox8OverflowdlEPvm
__ZN7WebCore8RenderBR15createInlineBoxEbbb
__ZNK7WebCore8RenderBR10lineHeightEbb
__ZNK7WebCore8RenderBR16baselinePositionEbb
__ZN7WebCore20CompositeEditCommand13moveParagraphERKNS_15VisiblePositionES3_S3_bb
__ZN7WebCore20CompositeEditCommand14moveParagraphsERKNS_15VisiblePositionES3_S3_bb
__ZNK7WebCore8RenderBR14caretMinOffsetEv
__ZN7WebCore12createMarkupEPKNS_5RangeEPN3WTF6VectorIPNS_4NodeELm0EEENS_23EAnnotateForInterchangeEb
__ZN7WebCore25avoidIntersectionWithNodeEPKNS_5RangeEPNS_4NodeE
__ZNK7WebCore5Range9collapsedERi
__ZNK7WebCore5Range23commonAncestorContainerERi
__ZN7WebCore5Range23commonAncestorContainerEPNS_4NodeES2_
__ZN7WebCoreL14getStartMarkupEPKNS_4NodeEPKNS_5RangeENS_23EAnnotateForInterchangeEbPN3WTF7HashMapIPNS_16AtomicStringImplESA_NS7_7PtrHashISA_EENS7_10HashTraitsISA_EESE_EE
__ZN7WebCoreL17appendStartMarkupERN3WTF6VectorItLm0EEEPKNS_4NodeEPKNS_5RangeENS_23EAnnotateForInterchangeEbPNS0_7HashMapIPNS_16AtomicStringImplESD_NS0_7PtrHashISD_EENS0_10HashTraitsISD_EESH_EE
__ZNK7WebCore5Range12endContainerERi
__ZNK7WebCore5Range9endOffsetERi
__ZN7WebCoreL20appendEscapedContentERN3WTF6VectorItLm0EEESt4pairIPKtmEb
__ZN7WebCoreL12getEndMarkupEPKNS_4NodeE
__ZN7WebCoreL15appendEndMarkupERN3WTF6VectorItLm0EEEPKNS_4NodeE
__ZNK7WebCore27CSSComputedStyleDeclaration25copyInheritablePropertiesEv
__ZNK7WebCore19CSSStyleDeclaration19copyPropertiesInSetEPKij
__ZNK7WebCore27CSSComputedStyleDeclaration19getPropertyCSSValueEi
__ZNK7WebCore27CSSComputedStyleDeclaration19getPropertyCSSValueEiNS_13EUpdateLayoutE
__ZN7WebCore4Node13computedStyleEv
__ZN7WebCore7Element13computedStyleEv
__ZN7WebCore17CSSPrimitiveValue6createERKNS_6StringENS0_9UnitTypesE
__ZN7WebCore17CSSPrimitiveValueC1ERKNS_6StringENS0_9UnitTypesE
__ZN7WebCore17CSSPrimitiveValueC1ERKNS_6LengthE
__ZN7WebCore17CSSPrimitiveValueC2ERKNS_6LengthE
__ZN7WebCoreL24currentColorOrValidColorEPNS_11RenderStyleERKNS_5ColorE
__ZN7WebCore26CSSMutableStyleDeclarationC1EPNS_7CSSRuleERKN3WTF6VectorINS_11CSSPropertyELm0EEEj
__ZN7WebCore26CSSMutableStyleDeclarationC2EPNS_7CSSRuleERKN3WTF6VectorINS_11CSSPropertyELm0EEEj
__ZN3WTF6VectorIN7WebCore11CSSPropertyELm0EEC1ERKS3_
__ZN3WTF6VectorIN7WebCore11CSSPropertyELm0EEC2ERKS3_
__ZN7WebCoreL28propertyMissingOrEqualToNoneEPNS_26CSSMutableStyleDeclarationEi
__ZNK7WebCore26CSSMutableStyleDeclaration19getPropertyCSSValueEi
__ZN7WebCore9Selection27selectionFromContentsOfNodeEPNS_4NodeE
__ZN7WebCoreeqERKNS_5RangeES2_
__ZN3WTF6VectorIiLm0EE14expandCapacityEmPKi
__ZN3WTF6VectorIiLm0EE14expandCapacityEm
__ZN3WTF6VectorIiLm0EE15reserveCapacityEm
__ZN7WebCoreL19quoteStringIfNeededERKNS_6StringE
__ZN7WebCoreL11quoteStringERKNS_6StringE
__ZN7WebCoreplEPKcRKNS_6StringE
__ZN7WebCore10StringImpl7replaceEtPS0_
__ZN7WebCore6String6numberEd
__ZN3WTF6VectorIiLm0EE6shrinkEm
__ZN7WebCore26CSSMutableStyleDeclaration21removeBlockPropertiesEv
__ZN7WebCore26CSSMutableStyleDeclaration21removePropertiesInSetEPKijb
__ZN3WTF7HashSetIiNS_7IntHashIjEENS_10HashTraitsIiEEE3addERKi
__ZN3WTF9HashTableIiiNS_17IdentityExtractorIiEENS_7IntHashIjEENS_10HashTraitsIiEES6_E6expandEv
__ZN3WTF9HashTableIiiNS_17IdentityExtractorIiEENS_7IntHashIjEENS_10HashTraitsIiEES6_E6rehashEi
__ZN3WTF9HashTableIiiNS_17IdentityExtractorIiEENS_7IntHashIjEENS_10HashTraitsIiEES6_E13allocateTableEi
__ZN3WTF9HashTableIiiNS_17IdentityExtractorIiEENS_7IntHashIjEENS_10HashTraitsIiEES6_E15deallocateTableEPii
__ZNK3WTF9HashTableIiiNS_17IdentityExtractorIiEENS_7IntHashIjEENS_10HashTraitsIiEES6_E8containsIiNS_22IdentityHashTranslatorIiiS4_EEEEbRKT_
__ZN3WTF6VectorIN7WebCore11CSSPropertyELm0EEaSERKS3_
__ZN7WebCoreL20appendAttributeValueERN3WTF6VectorItLm0EEERKNS_6StringEb
__ZN7WebCore24createFragmentFromMarkupEPNS_8DocumentERKNS_6StringES4_
__ZNK7WebCore15HTMLHtmlElement17endTagRequirementEv
__ZN7WebCore10StringImplC1EPKtjj
__ZN7WebCore10StringImplC2EPKtjj
__ZN7WebCore5Token12addAttributeERNS_12AtomicStringERKS1_b
__ZN7WebCore11HTMLElementC1ERKNS_13QualifiedNameEPNS_8DocumentE
__ZN7WebCore13StyledElement21classAttributeChangedERKNS_12AtomicStringE
__ZN7WebCore18NamedMappedAttrMap8setClassERKNS_6StringE
__ZN7WebCore9CSSParser16parseFontVariantEb
__ZN7WebCore9CSSParser22rollbackLastPropertiesEi
__ZNK7WebCore11HTMLElement17endTagRequirementEv
__ZNK7WebCore11HTMLElement11tagPriorityEv
__ZN7WebCoreL13inlineTagListEv
__ZN3WTF9HashTableIPN7WebCore16AtomicStringImplES3_NS_17IdentityExtractorIS3_EENS_7PtrHashIS3_EENS_10HashTraitsIS3_EES9_E4findIS3_NS_22IdentityHashTranslatorIS3_S3_S7_EEEENS_17HashTableIteratorIS3_S3_S5_S7_S9_S9_EERKT_
__ZN7WebCore20CompositeEditCommand15deleteSelectionEbbbb
__ZN7WebCore22DeleteSelectionCommandC1EPNS_8DocumentEbbbb
__ZN7WebCore22DeleteSelectionCommandC2EPNS_8DocumentEbbbb
__ZN7WebCore22DeleteSelectionCommand7doApplyEv
__ZN7WebCore22DeleteSelectionCommand22initializePositionDataEv
__ZN7WebCore22DeleteSelectionCommand18initializeStartEndERNS_8PositionES2_
__ZN7WebCoreL10isTableRowEPKNS_4NodeE
__ZN7WebCore27numEnclosingMailBlockquotesERKNS_8PositionE
__ZNK7WebCore8Position25leadingWhitespacePositionENS_9EAffinityEb
__ZNK7WebCore8Position25previousCharacterPositionENS_9EAffinityE
__ZN7WebCore4Node32inSameContainingBlockFlowElementEPS0_
__ZNK7WebCore8Position26trailingWhitespacePositionENS_9EAffinityEb
__ZN7WebCore20CompositeEditCommand33deleteInsignificantTextDownstreamERKNS_8PositionE
__ZN7WebCore22DeleteSelectionCommand20saveTypingStyleStateEv
__ZN7WebCore21positionBeforeTabSpanERKNS_8PositionE
__ZN7WebCore22DeleteSelectionCommand25handleSpecialCaseBRDeleteEv
__ZN7WebCore22DeleteSelectionCommand19handleGeneralDeleteEv
__ZN7WebCore22DeleteSelectionCommand10removeNodeEN3WTF10PassRefPtrINS_4NodeEEE
__ZN7WebCore20isTableStructureNodeEPKNS_4NodeE
__ZN7WebCoreL28updatePositionForNodeRemovalEPNS_4NodeERNS_8PositionE
__ZN7WebCore20CompositeEditCommand10removeNodeEN3WTF10PassRefPtrINS_4NodeEEE
__ZN7WebCore17RemoveNodeCommandC1EN3WTF10PassRefPtrINS_4NodeEEE
__ZN7WebCore17RemoveNodeCommandC2EN3WTF10PassRefPtrINS_4NodeEEE
__ZN7WebCore17RemoveNodeCommand7doApplyEv
__ZN7WebCore4Node6removeERi
__ZN7WebCore5Range17nodeWillBeRemovedEPNS_4NodeE
__ZN7WebCoreL27removingNodeRemovesPositionEPNS_4NodeERKNS_8PositionE
__ZN7WebCore4Node10willRemoveEv
__ZN7WebCore9InlineBox6removeEv
__ZN7WebCore13InlineFlowBox11removeChildEPNS_9InlineBoxE
__ZN7WebCore13RootInlineBox12childRemovedEPNS_9InlineBoxE
__ZN7WebCore10RenderText29clippedOverflowRectForRepaintEPNS_9RenderBoxE
__ZN7WebCore16StyleCachedImage12removeClientEPNS_12RenderObjectE
__ZN7WebCore14CachedResource12removeClientEPNS_20CachedResourceClientE
__ZN3WTF9HashTableIPN7WebCore20CachedResourceClientESt4pairIS3_jENS_18PairFirstExtractorIS5_EENS_7PtrHashIS3_EENS_14PairHashTraitsINS_10HashTraitsIS3_EENSB_IjEEEESC_E4findIS3_NS_22IdentityHashTranslatorIS3_S5_S9_EEEENS_17HashTableIteratorIS3_S5_S7_S9_SE_SC_EERKT_
__ZN3WTF9HashTableIPN7WebCore20CachedResourceClientESt4pairIS3_jENS_18PairFirstExtractorIS5_EENS_7PtrHashIS3_EENS_14PairHashTraitsINS_10HashTraitsIS3_EENSB_IjEEEESC_E6expandEv
__ZN3WTF9HashTableIPN7WebCore20CachedResourceClientESt4pairIS3_jENS_18PairFirstExtractorIS5_EENS_7PtrHashIS3_EENS_14PairHashTraitsINS_10HashTraitsIS3_EENSB_IjEEEESC_E15deallocateTableEPS5_i
__ZN3WTF9HashTableIPN7WebCore20CachedResourceClientESt4pairIS3_jENS_18PairFirstExtractorIS5_EENS_7PtrHashIS3_EENS_14PairHashTraitsINS_10HashTraitsIS3_EENSB_IjEEEESC_E5clearEv
__ZN3WTF9HashTableIPN7WebCore20CachedResourceClientESt4pairIS3_jENS_18PairFirstExtractorIS5_EENS_7PtrHashIS3_EENS_14PairHashTraitsINS_10HashTraitsIS3_EENSB_IjEEEESC_E13allocateTableEi
__ZN3WTF9HashTableIPN7WebCore20CachedResourceClientESt4pairIS3_jENS_18PairFirstExtractorIS5_EENS_7PtrHashIS3_EENS_14PairHashTraitsINS_10HashTraitsIS3_EENSB_IjEEEESC_E6rehashEi
__ZN3WTF9HashTableIPN7WebCore20CachedResourceClientESt4pairIS3_jENS_18PairFirstExtractorIS5_EENS_7PtrHashIS3_EENS_14PairHashTraitsINS_10HashTraitsIS3_EENSB_IjEEEESC_E6removeEPS5_
__ZN3WTF9HashTableIPN7WebCore20CachedResourceClientESt4pairIS3_jENS_18PairFirstExtractorIS5_EENS_7PtrHashIS3_EENS_14PairHashTraitsINS_10HashTraitsIS3_EENSB_IjEEEESC_E47removeAndInvalidateWithoutEntryConsistencyCheckEPS5_
__ZN7WebCore15EventTargetNode19removedFromDocumentEv
__ZN7WebCore4Node19removedFromDocumentEv
__ZNK7WebCore8Document12getCSSTargetEv
__ZN7WebCore20CompositeEditCommand21removeChildrenInRangeEN3WTF10PassRefPtrINS_4NodeEEEjj
__ZN7WebCore22DeleteSelectionCommand15fixupWhitespaceEv
__ZN7WebCore22DeleteSelectionCommand15mergeParagraphsEv
__ZN7WebCore22DeleteSelectionCommand38removePreviouslySelectedEmptyTableRowsEv
__ZN7WebCore22DeleteSelectionCommand31calculateTypingStyleAfterDeleteEv
__ZN7WebCore22DeleteSelectionCommand19clearTransientStateEv
__ZN7WebCore20CompositeEditCommand27removeNodeAndPruneAncestorsEN3WTF10PassRefPtrINS_4NodeEEE
__ZNK7WebCore4Node8containsEPKS0_
__ZN7WebCore13ContainerNode10willRemoveEv
__ZN7WebCore8RenderBRD0Ev
__ZN7WebCore7Element19removedFromDocumentEv
__ZN7WebCore13ContainerNode19removedFromDocumentEv
__ZN7WebCore20CompositeEditCommand5pruneEN3WTF10PassRefPtrINS_4NodeEEE
__ZN7WebCore5Range6createEN3WTF10PassRefPtrINS_8DocumentEEERKNS_8PositionES7_
__ZN7WebCore9SelectionC1ERKNS_15VisiblePositionE
__ZN7WebCore9SelectionC2ERKNS_15VisiblePositionE
__ZN7WebCoreL20styleSpanClassStringEv
__ZN7WebCore14ClassNamesData12createVectorEv
__ZN7WebCore17CSSPrimitiveValue18computeLengthFloatEPNS_11RenderStyleEdb
__ZNK7WebCore5Color14blendWithWhiteEv
__ZN7WebCore12RenderInlineC1EPNS_4NodeE
__ZN7WebCore12RenderInlineC2EPNS_4NodeE
__ZN7WebCore12RenderInline14styleDidChangeENS_15StyleDifferenceEPKNS_11RenderStyleE
__ZNK7WebCore12RenderInline13requiresLayerEv
__ZN7WebCore12RenderInline14addChildToFlowEPNS_12RenderObjectES2_
__ZNK7WebCore12RenderInline14childrenInlineEv
__ZNK7WebCore12RenderInline14isRenderInlineEv
__ZN7WebCore10RenderFlow14dirtyLineBoxesEbb
__ZN7WebCore10RenderFlow11calcMarginsEi
__ZNK7WebCore12RenderObject26isInlineBlockOrInlineTableEv
__ZN7WebCoreL22getBorderPaddingMarginEPNS_9RenderBoxEb
__ZNK7WebCore9InlineBox6isTextEv
__ZNK7WebCore12RenderObject14selectionStateEv
__ZN7WebCore13InlineFlowBox15isInlineFlowBoxEv
__ZN7WebCore13InlineFlowBox10onEndChainEPNS_12RenderObjectE
__ZN7WebCore9InlineBox15isRootInlineBoxEv
__ZN7WebCore9RenderBox26repaintDuringLayoutIfMovedERKNS_7IntRectE
__ZN7WebCore11RenderBlock24repaintOverhangingFloatsEb
__ZN7WebCore11RenderBlock20hasOverhangingFloatsEv
__ZNK7WebCore26CSSMutableStyleDeclaration4copyEv
__ZN7WebCore26CSSMutableStyleDeclaration5mergeEPS0_b
__ZN7WebCore23ReplaceSelectionCommand28removeNodePreservingChildrenEPNS_4NodeE
__ZN7WebCore20CompositeEditCommand28removeNodePreservingChildrenEN3WTF10PassRefPtrINS_4NodeEEE
__ZN7WebCore35RemoveNodePreservingChildrenCommandC1EN3WTF10PassRefPtrINS_4NodeEEE
__ZN7WebCore35RemoveNodePreservingChildrenCommandC2EN3WTF10PassRefPtrINS_4NodeEEE
__ZN7WebCore35RemoveNodePreservingChildrenCommand7doApplyEv
__ZN3WTF6VectorINS_6RefPtrIN7WebCore4NodeEEELm0EE14expandCapacityEm
__ZN3WTF6VectorINS_6RefPtrIN7WebCore4NodeEEELm0EE15reserveCapacityEm
__ZN7WebCore13InlineFlowBoxD0Ev
__ZN7WebCore12RenderInline29clippedOverflowRectForRepaintEPNS_9RenderBoxE
__ZN7WebCore12RenderInlineD0Ev
__ZN7WebCore20CompositeEditCommand16insertNodeBeforeEN3WTF10PassRefPtrINS_4NodeEEES4_
__ZN7WebCore23InsertNodeBeforeCommandC1EN3WTF10PassRefPtrINS_4NodeEEES4_
__ZN7WebCore23InsertNodeBeforeCommandC2EN3WTF10PassRefPtrINS_4NodeEEES4_
__ZN7WebCore23InsertNodeBeforeCommand7doApplyEv
__ZN7WebCore13ContainerNode12insertBeforeEN3WTF10PassRefPtrINS_4NodeEEEPS3_Rib
__ZN3WTF6VectorINS_6RefPtrIN7WebCore4NodeEEELm0EE6shrinkEm
__ZN7WebCore20CompositeEditCommand16setNodeAttributeEN3WTF10PassRefPtrINS_7ElementEEERKNS_13QualifiedNameERKNS_12AtomicStringE
__ZN7WebCore23SetNodeAttributeCommandC1EN3WTF10PassRefPtrINS_7ElementEEERKNS_13QualifiedNameERKNS_12AtomicStringE
__ZN7WebCore23SetNodeAttributeCommandC2EN3WTF10PassRefPtrINS_7ElementEEERKNS_13QualifiedNameERKNS_12AtomicStringE
__ZN7WebCore23SetNodeAttributeCommand7doApplyEv
__ZN7WebCore23ReplaceSelectionCommand16mergeEndIfNeededEv
__ZN7WebCore23ReplaceSelectionCommand26handlePasteAsQuotationNodeEv
__ZN7WebCore23ReplaceSelectionCommand23completeHTMLReplacementERKNS_8PositionE
__ZNK7WebCore11EditCommand15isTypingCommandEv
__ZNK7WebCore11EditCommand20preservesTypingStyleEv
__ZNK7WebCore23ReplaceSelectionCommand13editingActionEv
__ZN7WebCore9SelectionD2Ev
__ZN7WebCore4Node23compareDocumentPositionEPS0_
__ZN3WTF6VectorIPN7WebCore4NodeELm16EE6shrinkEm
__ZN7WebCore15RenderContainer22positionForCoordinatesEii
__ZN7WebCore20CompositeEditCommand23deleteInsignificantTextEN3WTF10PassRefPtrINS_4TextEEEjj
__ZN7WebCore22DeleteSelectionCommand18deleteTextFromNodeEN3WTF10PassRefPtrINS_4TextEEEjj
__ZN7WebCoreL28updatePositionForTextRemovalEPNS_4NodeEiiRNS_8PositionE
__ZN7WebCore20CompositeEditCommand18deleteTextFromNodeEN3WTF10PassRefPtrINS_4TextEEEjj
__ZN7WebCore25DeleteFromTextNodeCommandC1EN3WTF10PassRefPtrINS_4TextEEEjj
__ZN7WebCore25DeleteFromTextNodeCommandC2EN3WTF10PassRefPtrINS_4TextEEEjj
__ZN7WebCore25DeleteFromTextNodeCommand7doApplyEv
__ZN7WebCore13CharacterData13substringDataEjjRi
__ZN7WebCore13CharacterData10deleteDataEjjRi
__ZN7WebCore6String6removeEji
__ZN7WebCore8Document11textRemovedEPNS_4NodeEjj
__ZN7WebCore8Document13removeMarkersEPNS_4NodeEjiNS_14DocumentMarker10MarkerTypeE
__ZN7WebCore13InlineFlowBox11extractLineEv
__ZN7WebCore10RenderFlow14extractLineBoxEPNS_13InlineFlowBoxE
__ZN7WebCore13InlineTextBox11extractLineEv
__ZN7WebCore10RenderText14extractTextBoxEPNS_13InlineTextBoxE
__ZN7WebCore11RenderBlock14matchedEndLineERKNS_12BidiResolverINS_14InlineIteratorENS_7BidiRunEEERKS2_RKNS_10BidiStatusERPNS_13RootInlineBoxERiSF_SF_
__ZN7WebCoreL11addMidpointERKNS_14InlineIteratorE
__ZN3WTF6VectorIN7WebCore14InlineIteratorELm0EE4growEm
__ZN3WTF6VectorIN7WebCore14InlineIteratorELm0EE14expandCapacityEm
__ZN3WTF6VectorIN7WebCore14InlineIteratorELm0EE15reserveCapacityEm
__ZNK7WebCore8Position19isRenderedCharacterEv
__ZN7WebCore22nonBreakingSpaceStringEv
__ZN7WebCore20CompositeEditCommand17replaceTextInNodeEN3WTF10PassRefPtrINS_4TextEEEjjRKNS_6StringE
__ZN7WebCore10StringImpl7replaceEjjPS0_
__ZNK7WebCore13StyledElement20updateStyleAttributeEv
__ZNK7WebCore5Frame33removeEditingStyleFromBodyElementEv
__ZNK7WebCore12RenderInline16linesBoundingBoxEv
-[DOMHTMLElement innerHTML]
__ZNK7WebCore11HTMLElement9innerHTMLEv
__ZN7WebCore12createMarkupEPKNS_4NodeENS_13EChildrenOnlyEPN3WTF6VectorIPS0_Lm0EEE
__ZN7WebCoreL12appendMarkupERN3WTF6VectorItLm0EEEPNS_4NodeEbPNS1_IS5_Lm0EEEPKNS0_7HashMapIPNS_16AtomicStringImplESA_NS0_7PtrHashISA_EENS0_10HashTraitsISA_EESE_EE
__ZN3WTF9HashTableIPN7WebCore16AtomicStringImplESt4pairIS3_S3_ENS_18PairFirstExtractorIS5_EENS_7PtrHashIS3_EENS_14PairHashTraitsINS_10HashTraitsIS3_EESC_EESC_EaSERKSE_
__ZN3WTF9HashTableIPN7WebCore16AtomicStringImplESt4pairIS3_S3_ENS_18PairFirstExtractorIS5_EENS_7PtrHashIS3_EENS_14PairHashTraitsINS_10HashTraitsIS3_EESC_EESC_E4swapERSE_
__ZN3WTF9HashTableIPN7WebCore16AtomicStringImplESt4pairIS3_S3_ENS_18PairFirstExtractorIS5_EENS_7PtrHashIS3_EENS_14PairHashTraitsINS_10HashTraitsIS3_EESC_EESC_E15deallocateTableEPS5_i
__ZN3WTF9HashTableIPN7WebCore16AtomicStringImplESt4pairIS3_S3_ENS_18PairFirstExtractorIS5_EENS_7PtrHashIS3_EENS_14PairHashTraitsINS_10HashTraitsIS3_EESC_EESC_E13allocateTableEi
__ZN3WTF9HashTableIPN7WebCore16AtomicStringImplESt4pairIS3_S3_ENS_18PairFirstExtractorIS5_EENS_7PtrHashIS3_EENS_14PairHashTraitsINS_10HashTraitsIS3_EESC_EESC_E6rehashEi
__ZN3WTF9HashTableIPN7WebCore16AtomicStringImplESt4pairIS3_S3_ENS_18PairFirstExtractorIS5_EENS_7PtrHashIS3_EENS_14PairHashTraitsINS_10HashTraitsIS3_EESC_EESC_E6expandEv
__ZN3WTF9HashTableIPN7WebCore16AtomicStringImplESt4pairIS3_S3_ENS_18PairFirstExtractorIS5_EENS_7PtrHashIS3_EENS_14PairHashTraitsINS_10HashTraitsIS3_EESC_EESC_E4findIS3_NS_22IdentityHashTranslatorIS3_S5_S9_EEEENS_17HashTableIteratorIS3_S5_S7_S9_SD_SC_EERKT_
__ZN3WTF9HashTableIPN7WebCore16AtomicStringImplESt4pairIS3_S3_ENS_18PairFirstExtractorIS5_EENS_7PtrHashIS3_EENS_14PairHashTraitsINS_10HashTraitsIS3_EESC_EESC_EC2ERKSE_
__ZN3WTF9HashTableIPN7WebCore16AtomicStringImplESt4pairIS3_S3_ENS_18PairFirstExtractorIS5_EENS_7PtrHashIS3_EENS_14PairHashTraitsINS_10HashTraitsIS3_EESC_EESC_EC1ERKSE_
__ZNK7WebCore7Element22nodeNamePreservingCaseEv
__ZNK7WebCore7Element10attributesEv
__ZNK7WebCore7Element14isURLAttributeEPNS_9AttributeE
__ZN7WebCore9FontCache24getFontDataForCharactersERKNS_4FontEPKti
__ZN7WebCore9FontCache25getLastResortFallbackFontERKNS_15FontDescriptionE
__ZNK3WTF7HashMapIiPN7WebCore13GlyphWidthMap14GlyphWidthPageENS_7IntHashIjEENS_10HashTraitsIiEENS7_IS4_EEE3getERKi
__ZN7WebCoreL26rightClipToCharacterBufferERKNS_6StringEjjPt
__ZN7WebCoreL21rightTruncateToBufferERKNS_6StringEjjPt
__ZN7WebCore13HTMLTokenizer11parseEntityERNS_15SegmentedStringERPtNS0_5StateERjbb
__ZN7WebCore15SegmentedString15advanceSlowCaseEv
-[DOMHTMLElement innerText]
__ZNK7WebCore7Element9innerTextEv
__ZN7WebCore9plainTextEPKNS_5RangeE
-[DOMDocument links]
__ZN7WebCore8Document5linksEv
__ZN7WebCore14HTMLCollection6createEN3WTF10PassRefPtrINS_4NodeEEENS0_4TypeE
__ZN7WebCore14HTMLCollectionC1EN3WTF10PassRefPtrINS_4NodeEEENS0_4TypeE
__ZN7WebCore14HTMLCollectionC2EN3WTF10PassRefPtrINS_4NodeEEENS0_4TypeE
+[DOMHTMLCollection(WebCoreInternal) _wrapHTMLCollection:]
-[DOMHTMLCollection(WebCoreInternal) _initWithHTMLCollection:]
-[DOMHTMLCollection length]
__ZNK7WebCore14HTMLCollection6lengthEv
__ZNK7WebCore14HTMLCollection19resetCollectionInfoEv
__ZNK7WebCore14HTMLCollection10calcLengthEv
__ZNK7WebCore14HTMLCollection9itemAfterEPNS_7ElementE
__ZN7WebCoreL17nextNodeOrSiblingEPNS_4NodeES1_b
-[DOMDocument forms]
__ZN7WebCore8Document5formsEv
-[DOMHTMLCollection dealloc]
__ZN7WebCore14HTMLCollectionD0Ev
__ZN7WebCore14CachedResource13makePurgeableEb
__ZNK7WebCore9DocLoader11cachePolicyEv
__ZNK7WebCore11FrameLoader11cachePolicyEv
__ZNK7WebCore14CachedResource14mustRevalidateENS_11CachePolicyE
__ZNK7WebCore14CachedResource9isExpiredEv
__ZNK7WebCore20ResourceResponseBase27parseCacheControlDirectivesEv
__ZN7WebCore11FrameLoader29loadedResourceFromMemoryCacheEPKNS_14CachedResourceE
__ZN7WebCore11FrameLoader19requestFromDelegateERNS_15ResourceRequestERmRNS_13ResourceErrorE
__ZN7WebCore11FrameLoader29sendRemainingDelegateMessagesEmRKNS_16ResourceResponseEiRKNS_13ResourceErrorE
__ZN3WTF6VectorIN7WebCore16ResourceResponseELm0EE6shrinkEm
__ZN7WebCore4TextD0Ev
__ZN7WebCore11HTMLElementD0Ev
__ZN3WTF6VectorIN7WebCore12AtomicStringELm8EE6shrinkEm
__ZN7WebCore12CSSStyleRuleD0Ev
__ZN7WebCore15CSSSelectorListD1Ev
__ZN7WebCore15CSSSelectorListD2Ev
__ZN7WebCore13CSSImageValueD0Ev
__ZN7WebCore16StyleCachedImageD0Ev
-[DOMNode ownerDocument]
-[DOMDocument createRange]
-[DOMRange setStart:offset:]
-[DOMRange setEnd:offset:]
-[DOMRange startContainer]
__ZN7WebCore19SelectionController16setSelectedRangeEPNS_5RangeENS_9EAffinityEb
-[DOMRange detach]
__ZN7WebCore5Range6detachERi
__ZN7WebCore5Range11textRemovedEPNS_4NodeEjj
__ZN7WebCore13TypingCommand24insertParagraphSeparatorEPNS_8DocumentE
__ZN7WebCore13TypingCommand24insertParagraphSeparatorEv
__ZN7WebCore31InsertParagraphSeparatorCommandC1EPNS_8DocumentEb
__ZN7WebCore31InsertParagraphSeparatorCommandC2EPNS_8DocumentEb
__ZN7WebCore31InsertParagraphSeparatorCommand7doApplyEv
__ZN7WebCore31InsertParagraphSeparatorCommand29calculateStyleBeforeInsertionERKNS_8PositionE
__ZN7WebCore11EditCommand15styleAtPositionERKNS_8PositionE
__ZN7WebCore20CompositeEditCommand23breakOutOfEmptyListItemEv
__ZN7WebCore22enclosingEmptyListItemERKNS_15VisiblePositionE
__ZN7WebCore29createDefaultParagraphElementEPNS_8DocumentE
__ZN7WebCore20CompositeEditCommand22appendBlockPlaceholderEN3WTF10PassRefPtrINS_7ElementEEE
__ZN7WebCore29createBlockPlaceholderElementEPNS_8DocumentE
__ZN7WebCoreL13brConstructorERKNS_13QualifiedNameEPNS_8DocumentEPNS_15HTMLFormElementEb
__ZN7WebCore31InsertParagraphSeparatorCommand24applyStyleAfterInsertionEPNS_4NodeE
__ZNK7WebCore11EditCommand19isInsertTextCommandEv
__ZN7WebCore10RenderView14clearSelectionEv
__ZN7WebCore10RenderView12setSelectionEPNS_12RenderObjectEiS2_i
-[WAKWindow initWithFrame:]
-[WAKWindow setContentView:]
__ZN7WebCore12SharedBuffer10wrapNSDataEP6NSData
__ZN7WebCore12SharedBufferC1EPK8__CFData
__ZN7WebCore12SharedBufferC2EPK8__CFData
__ZN7WebCore18MainResourceLoader18handleDataLoadSoonERNS_15ResourceRequestE
__ZN7WebCore18MainResourceLoader17handleDataLoadNowEPNS_5TimerIS0_EE
__ZNK7WebCore12SharedBuffer16platformDataSizeEv
__ZN7WebCore18MainResourceLoader18didReceiveResponseERKNS_16ResourceResponseE
__ZN7WebCore11FrameLoader18checkContentPolicyERKNS_6StringEPFvPvNS_12PolicyActionEES4_
__ZN7WebCore18MainResourceLoader30callContinueAfterContentPolicyEPvNS_12PolicyActionE
__ZN7WebCore18MainResourceLoader26continueAfterContentPolicyENS_12PolicyActionE
__ZNK7WebCore11FrameLoader10isStoppingEv
__ZN7WebCore18MainResourceLoader26continueAfterContentPolicyENS_12PolicyActionERKNS_16ResourceResponseE
__ZNK7WebCore11FrameLoader15canShowMIMETypeERKNS_6StringE
__ZNK7WebCore20ResourceResponseBase6isHTTPEv
__ZNK7WebCore20ResourceResponseBase21expectedContentLengthEv
__ZN3WTF7HashMapImPN7WebCore12ProgressItemENS_7IntHashImEENS_10HashTraitsImEENS6_IS3_EEE3setERKmRKS3_
__ZN3WTF9HashTableImSt4pairImPN7WebCore12ProgressItemEENS_18PairFirstExtractorIS5_EENS_7IntHashImEENS_14PairHashTraitsINS_10HashTraitsImEENSB_IS4_EEEESC_E6expandEv
__ZN3WTF9HashTableImSt4pairImPN7WebCore12ProgressItemEENS_18PairFirstExtractorIS5_EENS_7IntHashImEENS_14PairHashTraitsINS_10HashTraitsImEENSB_IS4_EEEESC_E4findImNS_22IdentityHashTranslatorImS5_S9_EEEENS_17HashTableIteratorImS5_S7_S9_SE_SC_EERKT_
__ZN3WTF9HashTableImSt4pairImPN7WebCore12ProgressItemEENS_18PairFirstExtractorIS5_EENS_7IntHashImEENS_14PairHashTraitsINS_10HashTraitsImEENSB_IS4_EEEESC_E15deallocateTableEPS5_i
__ZN3WTF9HashTableImSt4pairImPN7WebCore12ProgressItemEENS_18PairFirstExtractorIS5_EENS_7IntHashImEENS_14PairHashTraitsINS_10HashTraitsImEENSB_IS4_EEEESC_E5clearEv
__ZN3WTF9HashTableImSt4pairImPN7WebCore12ProgressItemEENS_18PairFirstExtractorIS5_EENS_7IntHashImEENS_14PairHashTraitsINS_10HashTraitsImEENSB_IS4_EEEESC_E13allocateTableEi
__ZN3WTF9HashTableImSt4pairImPN7WebCore12ProgressItemEENS_18PairFirstExtractorIS5_EENS_7IntHashImEENS_14PairHashTraitsINS_10HashTraitsImEENSB_IS4_EEEESC_E6rehashEi
__ZN3WTF9HashTableImSt4pairImPN7WebCore12ProgressItemEENS_18PairFirstExtractorIS5_EENS_7IntHashImEENS_14PairHashTraitsINS_10HashTraitsImEENSB_IS4_EEEESC_E6removeEPS5_
__ZN3WTF9HashTableImSt4pairImPN7WebCore12ProgressItemEENS_18PairFirstExtractorIS5_EENS_7IntHashImEENS_14PairHashTraitsINS_10HashTraitsImEENSB_IS4_EEEESC_E47removeAndInvalidateWithoutEntryConsistencyCheckEPS5_
__ZNK7WebCore12SharedBuffer12platformDataEv
__ZN7WebCore18MainResourceLoader14didReceiveDataEPKcixb
__ZN7WebCore18MainResourceLoader7addDataEPKcib
__ZN7WebCore11FrameLoader12receivedDataEPKci
__ZN7WebCore14DocumentLoader12receivedDataEPKci
__ZNK7WebCore14DocumentLoader19doesProgressiveLoadERKNS_6StringE
__ZNK7WebCore11FrameLoader11isReplacingEv
__ZN7WebCore14DocumentLoader10commitLoadEPKci
__ZN7WebCore8Document22hasWindowEventListenerERKNS_12AtomicStringE
__ZN7WebCore14DocumentLoader23stopLoadingSubresourcesEv
__ZN7WebCore14DocumentLoader18stopLoadingPlugInsEv
__ZN7WebCore11FrameLoader13committedLoadEPNS_14DocumentLoaderEPKci
__ZN7WebCore11FrameLoader11setEncodingERKNS_6StringEb
__ZN7WebCore11FrameLoader17receivedFirstDataEv
__ZNK7WebCore14SecurityOrigin20isSecureTransitionToERKNS_4KURLE
__ZN7WebCore9FrameView5clearEv
__ZN7WebCore19TextResourceDecoderD1Ev
__ZN7WebCore19TextResourceDecoderD2Ev
__ZN7WebCore11FrameLoader21dispatchDidCommitLoadEv
__ZN7WebCore11FrameLoader29dispatchWindowObjectAvailableEv
__ZN7WebCore16parseHTTPRefreshERKNS_6StringEbRdRS0_
__ZN7WebCore8Document24setShouldCreateRenderersEb
__ZN7WebCore11FrameLoader7addDataEPKci
__ZN7WebCore19TextResourceDecoder11setEncodingERKNS_12TextEncodingENS0_14EncodingSourceE
__ZNK7WebCore12TextEncoding10isJapaneseEv
__ZN7WebCoreL15newTextCodecICUERKNS_12TextEncodingEPKv
__ZN7WebCore12TextCodecICUC1ERKNS_12TextEncodingE
__ZN7WebCore12TextCodecICUC2ERKNS_12TextEncodingE
__ZN7WebCore12TextCodecICU6decodeEPKcmbbRb
__ZNK7WebCore12TextCodecICU18createICUConverterEv
__ZN7WebCoreL18cachedConverterICUEv
__ZN7WebCore12TextCodecICU14decodeToBufferEPtS1_RPKcS3_PibR10UErrorCode
__ZNK7WebCore12TextEncoding18usesVisualOrderingEv
__ZN7WebCore13HTMLTokenizer12parseDoctypeERNS_15SegmentedStringENS0_5StateE
__ZN7WebCore13HTMLTokenizer19processDoctypeTokenEv
__ZN7WebCore10HTMLParser17parseDoctypeTokenEPNS_12DoctypeTokenE
__ZN7WebCore12DocumentTypeC1EPNS_8DocumentERKNS_6StringES5_S5_
__ZN7WebCore12DocumentTypeC2EPNS_8DocumentERKNS_6StringES5_S5_
__ZNK7WebCore12DocumentType8nodeTypeEv
__ZN7WebCore12DocumentType20insertedIntoDocumentEv
__ZN7WebCore8Document10setDocTypeEN3WTF10PassRefPtrINS_12DocumentTypeEEE
__ZN7WebCore4Node11setDocumentEPNS_8DocumentE
__ZN7WebCore12HTMLDocument18determineParseModeEv
__ZNK7WebCore6String6latin1Ev
__ZNK7WebCore12TextEncoding6encodeEPKtmNS_19UnencodableHandlingE
__ZN7WebCore15TextCodecLatin16encodeEPKtmNS_19UnencodableHandlingE
__ZNK7WebCore7CString6lengthEv
__ZN7WebCore4Node11recalcStyleENS0_11StyleChangeE
__ZN7WebCore10HTMLParser20bodyCreateErrorCheckEPNS_5TokenERN3WTF6RefPtrINS_4NodeEEE
__ZN7WebCore10HTMLParser9startBodyEv
__ZNK7WebCore15HTMLBodyElement11tagPriorityEv
__ZN7WebCore15HTMLHtmlElement8checkDTDEPKNS_4NodeE
__ZN7WebCoreL12blockTagListEv
__ZNK7WebCore8Document15isMediaDocumentEv
__ZNK7WebCore11FrameLoader27numPendingOrLoadingRequestsEb
__ZN7WebCore18MainResourceLoader16didFinishLoadingEv
__ZN7WebCore11FrameLoader15finishedLoadingEv
__ZN7WebCore12TextCodecICUD0Ev
__ZNK7WebCore12TextCodecICU19releaseICUConverterEv
__ZNK7WebCore9Tokenizer10wellFormedEv
__ZN7WebCore11FrameLoader15startIconLoaderEv
__ZNK7WebCore12IconDatabase9isEnabledEv
__ZN7WebCore19AnimationController16resumeAnimationsEPNS_8DocumentE
__ZN7WebCore26AnimationControllerPrivate16resumeAnimationsEPNS_8DocumentE
__ZN7WebCore8Document26dispatchImageLoadEventsNowEv
__ZN3WTF6VectorIPN7WebCore11ImageLoaderELm0EEaSERKS4_
__ZN7WebCore11FrameLoader19handledOnloadEventsEv
__ZN7WebCore6Chrome7repaintERKNS_7IntRectEbbb
__ZN7WebCore8Document13svgExtensionsEv
__ZN7WebCore9FrameView16restoreScrollbarEv
__ZN7WebCore11FrameLoader10gotoAnchorEv
-[WAKView setFrameSize:]
-[DOMHTMLElement setInnerText:]
__ZN7WebCore11HTMLElement12setInnerTextERKNS_6StringERi
__ZN7WebCoreL23replaceChildrenWithTextEPNS_11HTMLElementERKNS_6StringERi
-[DOMElement style]
__ZN7WebCore13CharacterData7setDataERKNS_6StringERi
-[DOMDocument doctype]
+[DOMDocumentType(WebCoreInternal) _wrapDocumentType:]
-[DOMDocumentType publicId]
-[DOMText splitText:]
__ZN7WebCore4Text9splitTextEjRi
__ZN7WebCore4Text9createNewEN3WTF10PassRefPtrINS_10StringImplEEE
__ZN7WebCore8Document13textNodeSplitEPNS_4TextE
+[DOMText(WebCoreInternal) _wrapText:]
-[DOMDocument createElement:]
__ZN7WebCore12HTMLDocument13createElementERKNS_12AtomicStringERi
__ZN7WebCoreL17anchorConstructorERKNS_13QualifiedNameEPNS_8DocumentEPNS_15HTMLFormElementEb
__ZN7WebCore17HTMLAnchorElementC1ERKNS_13QualifiedNameEPNS_8DocumentE
__ZN7WebCore17HTMLAnchorElementC2ERKNS_13QualifiedNameEPNS_8DocumentE
__ZN7WebCore17HTMLAnchorElement20parseMappedAttributeEPNS_15MappedAttributeE
__ZNK7WebCore4Page24javaScriptURLsAreAllowedEv
-[DOMNode insertBefore:refChild:]
__ZNK7WebCore16CSSStyleSelector15SelectorChecker16checkPseudoStateEPNS_7ElementEb
__ZN7WebCore15visitedLinkHashERKNS_4KURLERKNS_12AtomicStringE
__ZN3WTF6VectorItLm512EE6appendItEEvPKT_m
__ZN7WebCore15visitedLinkHashEPKtj
__ZN3WTF6VectorItLm512EE6shrinkEm
__ZN3WTF7HashSetIyN7WebCore12LinkHashHashENS_10HashTraitsIyEEE3addERKy
__ZN3WTF9HashTableIyyNS_17IdentityExtractorIyEEN7WebCore12LinkHashHashENS_10HashTraitsIyEES6_E6expandEv
__ZN3WTF9HashTableIyyNS_17IdentityExtractorIyEEN7WebCore12LinkHashHashENS_10HashTraitsIyEES6_E6rehashEi
__ZN3WTF9HashTableIyyNS_17IdentityExtractorIyEEN7WebCore12LinkHashHashENS_10HashTraitsIyEES6_E13allocateTableEi
__ZN7WebCore4Page9initGroupEv
__ZN7WebCore9PageGroupC1EPNS_4PageE
__ZN7WebCore9PageGroupC2EPNS_4PageE
__ZN7WebCore9PageGroup13isLinkVisitedEy
__ZNK3WTF9HashTableIyyNS_17IdentityExtractorIyEEN7WebCore12LinkHashHashENS_10HashTraitsIyEES6_E8containsIyNS_22IdentityHashTranslatorIyyS4_EEEEbRKT_
__ZN7WebCore15StyleVisualDataC1ERKS0_
__ZN7WebCore15StyleVisualDataC2ERKS0_
-[DOMNode appendChild:]
-[NSString(WebStringDrawing) _web_sizeInRect:withFont:ellipsis:]
__ZNK7WebCore13RootInlineBox11ellipsisBoxEv
__ZN7WebCore15GraphicsContext18setStrokeThicknessEf
__ZN7WebCore15GraphicsContext26setPlatformStrokeThicknessEf
__ZN7WebCore15GraphicsContext15drawLineForTextERKNS_8IntPointEib
__ZN7WebCore15GraphicsContext12setFillColorERKNS_5ColorE
__ZN7WebCore5Cache18pruneDeadResourcesEv
__ZNK7WebCore5Cache12deadCapacityEv
__ZN7WebCore5Cache18pruneLiveResourcesEb
__ZNK7WebCore5Cache12liveCapacityEv
-[DOMNode addEventListener:listener:useCapture:]
__ZN7WebCore17ObjCEventListener4wrapEP11objc_object
__ZN7WebCore17ObjCEventListener4findEP11objc_object
__ZN7WebCore17ObjCEventListenerC1EP11objc_object
__ZN7WebCore17ObjCEventListenerC2EP11objc_object
__ZN3WTF7HashMapIP11objc_objectPN7WebCore17ObjCEventListenerENS_7PtrHashIS2_EENS_10HashTraitsIS2_EENS8_IS5_EEE3setERKS2_RKS5_
__ZN3WTF9HashTableIP11objc_objectSt4pairIS2_PN7WebCore17ObjCEventListenerEENS_18PairFirstExtractorIS7_EENS_7PtrHashIS2_EENS_14PairHashTraitsINS_10HashTraitsIS2_EENSD_IS6_EEEESE_E13allocateTableEi
__ZN3WTF9HashTableIP11objc_objectSt4pairIS2_PN7WebCore17ObjCEventListenerEENS_18PairFirstExtractorIS7_EENS_7PtrHashIS2_EENS_14PairHashTraitsINS_10HashTraitsIS2_EENSD_IS6_EEEESE_E15deallocateTableEPS7_i
__ZN3WTF9HashTableIP11objc_objectSt4pairIS2_PN7WebCore17ObjCEventListenerEENS_18PairFirstExtractorIS7_EENS_7PtrHashIS2_EENS_14PairHashTraitsINS_10HashTraitsIS2_EENSD_IS6_EEEESE_E6rehashEi
__ZN3WTF9HashTableIP11objc_objectSt4pairIS2_PN7WebCore17ObjCEventListenerEENS_18PairFirstExtractorIS7_EENS_7PtrHashIS2_EENS_14PairHashTraitsINS_10HashTraitsIS2_EENSD_IS6_EEEESE_E6removeEPS7_
__ZN3WTF9HashTableIP11objc_objectSt4pairIS2_PN7WebCore17ObjCEventListenerEENS_18PairFirstExtractorIS7_EENS_7PtrHashIS2_EENS_14PairHashTraitsINS_10HashTraitsIS2_EENSD_IS6_EEEESE_E47removeAndInvalidateWithoutEntryConsistencyCheckEPS7_
__ZN3WTF9HashTableIP11objc_objectSt4pairIS2_PN7WebCore17ObjCEventListenerEENS_18PairFirstExtractorIS7_EENS_7PtrHashIS2_EENS_14PairHashTraitsINS_10HashTraitsIS2_EENSD_IS6_EEEESE_E6expandEv
__ZN3WTF9HashTableIP11objc_objectSt4pairIS2_PN7WebCore17ObjCEventListenerEENS_18PairFirstExtractorIS7_EENS_7PtrHashIS2_EENS_14PairHashTraitsINS_10HashTraitsIS2_EENSD_IS6_EEEESE_E4findIS2_NS_22IdentityHashTranslatorIS2_S7_SB_EEEENS_17HashTableIteratorIS2_S7_S9_SB_SG_SE_EERKT_
__ZN7WebCore15EventTargetNode16addEventListenerERKNS_12AtomicStringEN3WTF10PassRefPtrINS_13EventListenerEEEb
__ZN7WebCore8Document23addListenerTypeIfNeededERKNS_12AtomicStringE
__ZN7WebCore15EventTargetNode19removeEventListenerERKNS_12AtomicStringEPNS_13EventListenerEb
__ZN7WebCore23RegisteredEventListenerC1ERKNS_12AtomicStringEN3WTF10PassRefPtrINS_13EventListenerEEEb
__ZN7WebCore23RegisteredEventListenerC2ERKNS_12AtomicStringEN3WTF10PassRefPtrINS_13EventListenerEEEb
__ZN3WTF6VectorINS_6RefPtrIN7WebCore23RegisteredEventListenerEEELm0EE14expandCapacityEm
__ZN3WTF6VectorINS_6RefPtrIN7WebCore23RegisteredEventListenerEEELm0EE15reserveCapacityEm
__ZNK3WTF7HashMapIP11objc_objectPN7WebCore17ObjCEventListenerENS_7PtrHashIS2_EENS_10HashTraitsIS2_EENS8_IS5_EEE3getERKS2_
__ZN3WTF6VectorINS_6RefPtrIN7WebCore23RegisteredEventListenerEEELm0EE6shrinkEm
-[DOMHTMLCollection item:]
__ZNK7WebCore14HTMLCollection4itemEj
-[DOMNode(DOMNodeExtensions) hrefLabel]
-[DOMNode(DOMNodeExtensions) _linkElement]
__ZNK7WebCore4Node11textContentEb
__ZNK7WebCore4Node17appendTextContentEbRNS_13StringBuilderE
__ZN7WebCore13StringBuilder6appendERKNS_6StringE
__ZNK7WebCore13StringBuilder8toStringEv
__ZN3WTF6VectorIN7WebCore6StringELm16EE6shrinkEm
-[DOMNode(DOMNodeExtensions) boundingFrame]
-[DOMNode(DOMNodeExtensions) boundingBox]
__ZN7WebCore12RenderInline13absoluteQuadsERN3WTF6VectorINS_9FloatQuadELm0EEEb
__ZN3WTF6VectorIN7WebCore9FloatQuadELm0EE14expandCapacityEmPKS2_
__ZN3WTF6VectorIN7WebCore9FloatQuadELm0EE14expandCapacityEm
__ZN3WTF6VectorIN7WebCore9FloatQuadELm0EE15reserveCapacityEm
__ZN3WTF6VectorIN7WebCore9FloatQuadELm0EE6shrinkEm
-[DOMDocument(WebCoreInternal) _document]
-[DOMElement getAttribute:]
__ZN7WebCore17lineBreakIteratorEPKti
__ZN7WebCore15GraphicsContext19emojiDrawingEnabledEv
__ZN7WebCoreL10smileImageEi
__ZNK3WTF9HashTableIiSt4pairIiNS_6RefPtrIN7WebCore5ImageEEEENS_18PairFirstExtractorIS6_EENS_7IntHashIjEENS_14PairHashTraitsINS_10HashTraitsIiEENSC_IS5_EEEESD_E8containsIiNS_22IdentityHashTranslatorIiS6_SA_EEEEbRKT_
__ZN3WTF7HashMapIiNS_6RefPtrIN7WebCore5ImageEEENS_7IntHashIjEENS_10HashTraitsIiEENS7_IS4_EEE3addERKiRKS4_
__ZN3WTF9HashTableIiSt4pairIiNS_6RefPtrIN7WebCore5ImageEEEENS_18PairFirstExtractorIS6_EENS_7IntHashIjEENS_14PairHashTraitsINS_10HashTraitsIiEENSC_IS5_EEEESD_E13allocateTableEi
__ZN3WTF9HashTableIiSt4pairIiNS_6RefPtrIN7WebCore5ImageEEEENS_18PairFirstExtractorIS6_EENS_7IntHashIjEENS_14PairHashTraitsINS_10HashTraitsIiEENSC_IS5_EEEESD_E4findIiNS_22IdentityHashTranslatorIiS6_SA_EEEENS_17HashTableIteratorIiS6_S8_SA_SF_SD_EERKT_
__ZN3WTF9HashTableIiSt4pairIiNS_6RefPtrIN7WebCore5ImageEEEENS_18PairFirstExtractorIS6_EENS_7IntHashIjEENS_14PairHashTraitsINS_10HashTraitsIiEENSC_IS5_EEEESD_E15deallocateTableEPS6_i
__ZN3WTF9HashTableIiSt4pairIiNS_6RefPtrIN7WebCore5ImageEEEENS_18PairFirstExtractorIS6_EENS_7IntHashIjEENS_14PairHashTraitsINS_10HashTraitsIiEENSC_IS5_EEEESD_E6rehashEi
__ZN3WTF9HashTableIiSt4pairIiNS_6RefPtrIN7WebCore5ImageEEEENS_18PairFirstExtractorIS6_EENS_7IntHashIjEENS_14PairHashTraitsINS_10HashTraitsIiEENSC_IS5_EEEESD_E6expandEv
__ZN3WTF9HashTableIiSt4pairIiNS_6RefPtrIN7WebCore5ImageEEEENS_18PairFirstExtractorIS6_EENS_7IntHashIjEENS_14PairHashTraitsINS_10HashTraitsIiEENSC_IS5_EEEESD_E5clearEv
__ZN7WebCore15GraphicsContext9drawImageEPNS_5ImageERKNS_7IntRectENS_17CompositeOperatorEb
__ZN7WebCore15GraphicsContext9drawImageEPNS_5ImageERKNS_7IntRectES5_NS_17CompositeOperatorEb
__ZN7WebCore15GraphicsContext9drawImageEPNS_5ImageERKNS_9FloatRectES5_NS_17CompositeOperatorEb
__ZN7WebCore11BitmapImage4drawEPNS_15GraphicsContextERKNS_9FloatRectES5_NS_17CompositeOperatorE
__ZNK7WebCore11BitmapImage16currentFrameSizeEv
__ZN7WebCore15StyleVisualDataD1Ev
__ZN7WebCore17HTMLAnchorElementD0Ev
__ZN7WebCore13MutationEventC1ERKNS_12AtomicStringEbbN3WTF10PassRefPtrINS_4NodeEEERKNS_6StringESA_SA_t
__ZN7WebCore13MutationEventC2ERKNS_12AtomicStringEbbN3WTF10PassRefPtrINS_4NodeEEERKNS_6StringESA_SA_t
__ZN7WebCore17ObjCEventListener11handleEventEPNS_5EventEb
+[DOMEvent(WebCoreInternal) _wrapEvent:]
__ZNK7WebCore5Event9isUIEventEv
__ZNK7WebCore13MutationEvent15isMutationEventEv
-[DOMEvent(WebCoreInternal) _initWithEvent:]
-[DOMEvent target]
+[DOMNode(WebCoreInternal) _wrapEventTarget:]
-[DOMEvent dealloc]
__ZN7WebCore13MutationEventD0Ev
__ZN7WebCore12TextIterator26rangeFromLocationAndLengthEPNS_7ElementEiib
__ZNK7WebCore5Frame17firstRectForRangeEPNS_5RangeE
__ZNK7WebCore6Editor16fontForSelectionERb
__ZNK7WebCore5Frame22styleForSelectionStartERPNS_4NodeE
__ZN7WebCoreL8bidiNextEPNS_11RenderBlockEPNS_12RenderObjectEPNS_12BidiResolverINS_14InlineIteratorENS_7BidiRunEEEbPb
__ZNK7WebCore4KURL4pathEv
__ZN7WebCore11PolicyCheck3setEPFvPvNS_12PolicyActionEES1_
__ZN7WebCore11FrameLoader26continueAfterContentPolicyENS_12PolicyActionE
__ZN7WebCore11PolicyCheck4callENS_12PolicyActionE
__ZN7WebCore11FrameLoader33addBackForwardItemClippedAtTargetEb
__ZN7WebCore15BackForwardList7entriesEv
__ZN7WebCore11FrameLoader21createHistoryItemTreeEPNS_5FrameEb
__ZN7WebCore11FrameLoader17createHistoryItemEb
__ZNK7WebCore14DocumentLoader11originalURLEv
__ZNK7WebCore14DocumentLoader10requestURLEv
__ZN7WebCore11HistoryItemC1ERKNS_4KURLERKNS_6StringES6_S6_
__ZN7WebCore11HistoryItemC2ERKNS_4KURLERKNS_6StringES6_S6_
__ZN7WebCore11HistoryItem20setOriginalURLStringERKNS_6StringE
__ZN7WebCore11HistoryItem22setFormInfoFromRequestERKNS_15ResourceRequestE
__ZN7WebCore11HistoryItem15setIsTargetItemEb
__ZN7WebCore15BackForwardList7addItemEN3WTF10PassRefPtrINS_11HistoryItemEEE
__ZN3WTF6VectorINS_6RefPtrIN7WebCore11HistoryItemEEELm0EE14expandCapacityEm
__ZN3WTF6VectorINS_6RefPtrIN7WebCore11HistoryItemEEELm0EE15reserveCapacityEm
__ZN3WTF7HashSetINS_6RefPtrIN7WebCore11HistoryItemEEENS_7PtrHashIS4_EENS_10HashTraitsIS4_EEE3addERKS4_
__ZN3WTF9HashTableINS_6RefPtrIN7WebCore11HistoryItemEEES4_NS_17IdentityExtractorIS4_EENS_7PtrHashIS4_EENS_10HashTraitsIS4_EESA_E13allocateTableEi
__ZN3WTF9HashTableINS_6RefPtrIN7WebCore11HistoryItemEEES4_NS_17IdentityExtractorIS4_EENS_7PtrHashIS4_EENS_10HashTraitsIS4_EESA_E4findIS4_NS_22IdentityHashTranslatorIS4_S4_S8_EEEENS_17HashTableIteratorIS4_S4_S6_S8_SA_SA_EERKT_
__ZN3WTF9HashTableINS_6RefPtrIN7WebCore11HistoryItemEEES4_NS_17IdentityExtractorIS4_EENS_7PtrHashIS4_EENS_10HashTraitsIS4_EESA_E15deallocateTableEPS4_i
__ZN3WTF9HashTableINS_6RefPtrIN7WebCore11HistoryItemEEES4_NS_17IdentityExtractorIS4_EENS_7PtrHashIS4_EENS_10HashTraitsIS4_EESA_E5clearEv
__ZN3WTF9HashTableINS_6RefPtrIN7WebCore11HistoryItemEEES4_NS_17IdentityExtractorIS4_EENS_7PtrHashIS4_EENS_10HashTraitsIS4_EESA_E6rehashEi
__ZN3WTF9HashTableINS_6RefPtrIN7WebCore11HistoryItemEEES4_NS_17IdentityExtractorIS4_EENS_7PtrHashIS4_EENS_10HashTraitsIS4_EESA_E6removeEPS4_
__ZN3WTF9HashTableINS_6RefPtrIN7WebCore11HistoryItemEEES4_NS_17IdentityExtractorIS4_EENS_7PtrHashIS4_EENS_10HashTraitsIS4_EESA_E47removeAndInvalidateWithoutEntryConsistencyCheckEPS4_
__ZN3WTF9HashTableINS_6RefPtrIN7WebCore11HistoryItemEEES4_NS_17IdentityExtractorIS4_EENS_7PtrHashIS4_EENS_10HashTraitsIS4_EESA_E6expandEv
__ZNK7WebCore14DocumentLoader28urlForHistoryReflectsFailureEv
__ZN7WebCore11HistoryItemC1ERKNS_6StringES3_d
__ZN7WebCore11HistoryItemC2ERKNS_6StringES3_d
__ZN7WebCore11HistoryItem18recordInitialVisitEv
__ZN7WebCore11HistoryItem17recordVisitAtTimeEd
__ZN7WebCore11HistoryItem25padDailyCountsForNewVisitEd
__ZN3WTF6VectorIiLm0EE4fillERKim
__ZSt4fillIPiiEvT_S1_RKT0_
__ZN3WTF6VectorIiLm0EE6insertIiEEvmPKT_m
__ZN7WebCore11HistoryItem27collapseDailyVisitsToWeeklyEv
__ZN7WebCore4Page20setGlobalHistoryItemEPNS_11HistoryItemE
__ZN7WebCore9PageGroup14addVisitedLinkERKNS_4KURLE
__ZN7WebCore4Page19visitedStateChangedEPNS_9PageGroupEy
__ZN7WebCore16CSSStyleSelector15SelectorChecker19visitedStateChangedEy
__ZNK7WebCore11HistoryItem17isCurrentDocumentEPNS_8DocumentE
__ZN7WebCore5Frame25setUseSecureKeyboardEntryEb
__ZNK7WebCore11HistoryItem13documentStateEv
__ZN7WebCore8Document26setStateForNewFormElementsERKN3WTF6VectorINS_6StringELm0EEE
__ZNK7WebCore5Frame17viewportArgumentsEv
__ZN7WebCore15BackForwardList8backItemEv
__ZN7WebCore15BackForwardList11forwardItemEv
__ZN7WebCore5Frame13clearPPTStatsEv
__ZN7WebCore10HTMLParser21parseTelephoneNumbersEPNS_4NodeE
__ZNK7WebCore14DocumentLoader28mainResourceApplicationCacheEv
__ZNK7WebCore7Element20isFormControlElementEv
__ZN7WebCore10HTMLParser20parseNextPhoneNumberEPNS_4TextE
_WebCoreFindTelephoneNumber
__ZN7WebCore10HTMLParser11handleErrorEPNS_4NodeEbRKNS_12AtomicStringEi
__ZN7WebCore10HTMLParser20headCreateErrorCheckEPNS_5TokenERN3WTF6RefPtrINS_4NodeEEE
__ZN7WebCore15HTMLHeadElementC1ERKNS_13QualifiedNameEPNS_8DocumentE
__ZN7WebCore15HTMLHeadElementC2ERKNS_13QualifiedNameEPNS_8DocumentE
__ZNK7WebCore15HTMLHeadElement17endTagRequirementEv
__ZNK7WebCore15HTMLHeadElement11tagPriorityEv
__ZN7WebCoreL20loadFullDefaultStyleEv
__ZN7WebCore11CSSRuleDataD2Ev
__ZN7WebCore11CSSSelectorD2Ev
__ZN7WebCore11RenderTheme22extraDefaultStyleSheetEv
__ZN7WebCore13CSSStyleSheet12addNamespaceEPNS_9CSSParserERKNS_12AtomicStringES5_
__ZN7WebCore9CSSParser12parseContentEib
__ZN7WebCore11CSSSelector12setAttributeERKNS_13QualifiedNameE
__ZN7WebCore17CSSPrimitiveValue4initEN3WTF10PassRefPtrINS_4PairEEE
__ZN7WebCore9CSSParser9parseFontEb
__ZN7WebCore9CSSParser10parseColorERKNS_6StringERjb
__ZN7WebCore5Color13parseHexColorERKNS_6StringERj
__ZN7WebCore13CSSImageValueC1Ev
__ZN7WebCore13CSSImageValueC2Ev
__ZN7WebCore9CSSParser18parseFillShorthandEiPKiib
__ZN7WebCore9CSSParser17parseFillPositionERN3WTF6RefPtrINS_8CSSValueEEES5_
__ZN7WebCore9CSSParser19parseFillPositionXYERbS1_
__ZN7WebCore9CSSParser20parseBackgroundColorEv
__ZN7WebCore9CSSParser12addFillValueERN3WTF6RefPtrINS_8CSSValueEEENS1_10PassRefPtrIS3_EE
__ZN7WebCoreL9printEvalEv
__ZN7WebCore11RenderTheme21extraQuirksStyleSheetEv
__ZN7WebCore11CSSSelector17setSimpleSelectorEPS0_
__ZN7WebCore15HTMLHeadElement12childAllowedEPNS_4NodeE
__ZN7WebCore13HTMLTokenizer12parseCommentERNS_15SegmentedStringENS0_5StateE
__ZN7WebCore13HTMLTokenizer19enlargeScriptBufferEi
__ZN7WebCore13HTMLTokenizer14processListingENS_15SegmentedStringENS0_5StateE
__ZN7WebCore10HTMLParser23commentCreateErrorCheckEPNS_5TokenERN3WTF6RefPtrINS_4NodeEEE
__ZN7WebCore7CommentC1EPNS_8DocumentERKNS_6StringE
__ZN7WebCore7CommentC2EPNS_8DocumentERKNS_6StringE
__ZNK7WebCore7Comment8nodeTypeEv
__ZNK7WebCore7Comment13isCommentNodeEv
__ZN7WebCoreL16titleConstructorERKNS_13QualifiedNameEPNS_8DocumentEPNS_15HTMLFormElementEb
__ZN7WebCore16HTMLTitleElementC1ERKNS_13QualifiedNameEPNS_8DocumentE
__ZN7WebCore16HTMLTitleElementC2ERKNS_13QualifiedNameEPNS_8DocumentE
__ZN7WebCore15HTMLHeadElement8checkDTDEPKNS_4NodeE
__ZN7WebCore16HTMLTitleElement20insertedIntoDocumentEv
__ZN7WebCore8Document8setTitleERKNS_6StringEPNS_7ElementE
__ZN7WebCore13HTMLTokenizer12parseSpecialERNS_15SegmentedStringENS0_5StateE
__ZN7WebCore16HTMLTitleElement8checkDTDEPKNS_4NodeE
__ZN7WebCore16HTMLTitleElement15childrenChangedEbPNS_4NodeES2_i
__ZN7WebCore8Document11updateTitleEv
__ZN7WebCore11FrameLoader8setTitleERKNS_6StringE
__ZN7WebCore14DocumentLoader8setTitleERKNS_6StringE
__ZN7WebCore11FrameLoader15willChangeTitleEPNS_14DocumentLoaderE
__ZN7WebCore11FrameLoader14didChangeTitleEPNS_14DocumentLoaderE
__ZN7WebCore11HistoryItem8setTitleERKNS_6StringE
__ZN7WebCore13StyledElement11addCSSColorEPNS_15MappedAttributeEiRKNS_6StringE
__ZN7WebCore15HTMLBodyElement14createLinkDeclEv
__ZN7WebCore4Node16previousRendererEv
__ZN7WebCore10HTMLParser29pCloserStrictCreateErrorCheckEPNS_5TokenERN3WTF6RefPtrINS_4NodeEEE
__ZN7WebCoreL16tableConstructorERKNS_13QualifiedNameEPNS_8DocumentEPNS_15HTMLFormElementEb
__ZN7WebCore16HTMLTableElementC1ERKNS_13QualifiedNameEPNS_8DocumentE
__ZN7WebCore16HTMLTableElementC2ERKNS_13QualifiedNameEPNS_8DocumentE
__ZNK7WebCore16HTMLTableElement10mapToEntryERKNS_13QualifiedNameERNS_20MappedAttributeEntryE
__ZN7WebCore16HTMLTableElement20parseMappedAttributeEPNS_15MappedAttributeE
__ZNK7WebCore16HTMLTableElement11cellBordersEv
__ZN7WebCore13StyledElement12addCSSLengthEPNS_15MappedAttributeEiRKNS_6StringE
__ZN7WebCore26CSSMutableStyleDeclaration17setLengthPropertyEiRKNS_6StringEbb
__ZNK7WebCore6String5toIntEPb
__ZN7WebCore10StringImpl5toIntEPb
__ZN7WebCore15charactersToIntEPKtmPb
__ZN7WebCoreL27lengthOfCharactersAsIntegerEPKtm
__ZN7WebCoreL24isCharacterAllowedInBaseEti
__ZN7WebCore6String6numberEi
__ZNK7WebCore16HTMLTableElement17endTagRequirementEv
__ZNK7WebCore16HTMLTableElement11tagPriorityEv
__ZN7WebCore16HTMLTableElement6attachEv
__ZNK7WebCore16HTMLTableElement36canHaveAdditionalAttributeStyleDeclsEv
__ZN3WTF6VectorIPN7WebCore26CSSMutableStyleDeclarationELm0EE14shrinkCapacityEm
__ZN7WebCore16HTMLTableElement29additionalAttributeStyleDeclsERN3WTF6VectorIPNS_26CSSMutableStyleDeclarationELm0EEE
__ZN7WebCoreL16colorForCSSValueEi
__ZN7WebCore11RenderTableC1EPNS_4NodeE
__ZN7WebCore11RenderTableC2EPNS_4NodeE
__ZN3WTF6VectorIN7WebCore11RenderTable12ColumnStructELm0EE4fillERKS3_m
__ZN3WTF6VectorIN7WebCore11RenderTable12ColumnStructELm0EE14shrinkCapacityEm
__ZN3WTF6VectorIN7WebCore11RenderTable12ColumnStructELm0EE15reserveCapacityEm
__ZSt4fillIPN7WebCore11RenderTable12ColumnStructES2_EvT_S4_RKT0_
__ZN7WebCore11RenderTable14styleDidChangeENS_15StyleDifferenceEPKNS_11RenderStyleE
__ZN7WebCore11RenderTable17updateFirstLetterEv
__ZN7WebCore15AutoTableLayoutC1EPNS_11RenderTableE
__ZN7WebCore15AutoTableLayoutC2EPNS_11RenderTableE
__ZN7WebCore16HTMLTableElement8addChildEN3WTF10PassRefPtrINS_4NodeEEE
__ZN7WebCore16HTMLTableElement8checkDTDEPKNS_4NodeE
__ZNK7WebCore11RenderTable7isTableEv
__ZN7WebCore10HTMLParser22nestedCreateErrorCheckEPNS_5TokenERN3WTF6RefPtrINS_4NodeEEE
__ZN7WebCoreL19tableRowConstructorERKNS_13QualifiedNameEPNS_8DocumentEPNS_15HTMLFormElementEb
__ZN7WebCore19HTMLTableRowElementC1ERKNS_13QualifiedNameEPNS_8DocumentE
__ZN7WebCore19HTMLTableRowElementC2ERKNS_13QualifiedNameEPNS_8DocumentE
__ZNK7WebCore19HTMLTableRowElement17endTagRequirementEv
__ZNK7WebCore19HTMLTableRowElement11tagPriorityEv
__ZN7WebCoreL14isTableSectionEPNS_4NodeE
__ZN7WebCore23HTMLTableSectionElementC1ERKNS_13QualifiedNameEPNS_8DocumentE
__ZN7WebCore23HTMLTableSectionElementC2ERKNS_13QualifiedNameEPNS_8DocumentE
__ZNK7WebCore23HTMLTableSectionElement11tagPriorityEv
__ZNK7WebCore23HTMLTableSectionElement36canHaveAdditionalAttributeStyleDeclsEv
__ZN7WebCore23HTMLTableSectionElement29additionalAttributeStyleDeclsERN3WTF6VectorIPNS_26CSSMutableStyleDeclarationELm0EEE
__ZN7WebCore16HTMLTableElement19addSharedGroupDeclsEbRN3WTF6VectorIPNS_26CSSMutableStyleDeclarationELm0EEE
__ZNK7WebCore17CSSInheritedValue12cssValueTypeEv
__ZN7WebCore18RenderTableSectionC1EPNS_4NodeE
__ZN7WebCore18RenderTableSectionC2EPNS_4NodeE
__ZN7WebCore11RenderTable8addChildEPNS_12RenderObjectES2_
__ZNK7WebCore18RenderTableSection14isTableSectionEv
__ZN7WebCore23HTMLTableSectionElement8addChildEN3WTF10PassRefPtrINS_4NodeEEE
__ZNK7WebCore23HTMLTableSectionElement17endTagRequirementEv
__ZN7WebCore23HTMLTableSectionElement8checkDTDEPKNS_4NodeE
__ZN7WebCore14RenderTableRowC1EPNS_4NodeE
__ZN7WebCore14RenderTableRowC2EPNS_4NodeE
__ZN7WebCore14RenderTableRow15styleWillChangeENS_15StyleDifferenceEPKNS_11RenderStyleE
__ZNK7WebCore14RenderTableRow13requiresLayerEv
__ZN7WebCore18RenderTableSection8addChildEPNS_12RenderObjectES2_
__ZNK7WebCore14RenderTableRow10isTableRowEv
__ZN7WebCore18RenderTableSection10ensureRowsEi
__ZN3WTF6VectorIN7WebCore18RenderTableSection9RowStructELm0EE4growEm
__ZN3WTF6VectorIN7WebCore18RenderTableSection9RowStructELm0EE14expandCapacityEm
__ZN3WTF6VectorIN7WebCore18RenderTableSection9RowStructELm0EE15reserveCapacityEm
__ZN3WTF6VectorIN7WebCore18RenderTableSection10CellStructELm0EE4fillERKS3_m
__ZSt4fillIPN7WebCore18RenderTableSection10CellStructES2_EvT_S4_RKT0_
__ZNK7WebCore12RenderObject14childrenInlineEv
__ZN7WebCore10HTMLParser25tableCellCreateErrorCheckEPNS_5TokenERN3WTF6RefPtrINS_4NodeEEE
__ZN7WebCoreL20tableCellConstructorERKNS_13QualifiedNameEPNS_8DocumentEPNS_15HTMLFormElementEb
__ZN7WebCore20HTMLTableCellElementC1ERKNS_13QualifiedNameEPNS_8DocumentE
__ZN7WebCore20HTMLTableCellElementC2ERKNS_13QualifiedNameEPNS_8DocumentE
__ZNK7WebCore20HTMLTableCellElement17endTagRequirementEv
__ZNK7WebCore20HTMLTableCellElement11tagPriorityEv
__ZN7WebCore19HTMLTableRowElement8addChildEN3WTF10PassRefPtrINS_4NodeEEE
__ZN7WebCore19HTMLTableRowElement8checkDTDEPKNS_4NodeE
__ZNK7WebCore20HTMLTableCellElement36canHaveAdditionalAttributeStyleDeclsEv
__ZN7WebCore20HTMLTableCellElement29additionalAttributeStyleDeclsERN3WTF6VectorIPNS_26CSSMutableStyleDeclarationELm0EEE
__ZN7WebCore16HTMLTableElement18addSharedCellDeclsERN3WTF6VectorIPNS_26CSSMutableStyleDeclarationELm0EEE
__ZN7WebCore16HTMLTableElement24addSharedCellBordersDeclERN3WTF6VectorIPNS_26CSSMutableStyleDeclarationELm0EEE
__ZN7WebCore13StyledElement22getMappedAttributeDeclENS_20MappedAttributeEntryERKNS_13QualifiedNameERKNS_12AtomicStringE
__ZN7WebCore13StyledElement22setMappedAttributeDeclENS_20MappedAttributeEntryERKNS_13QualifiedNameERKNS_12AtomicStringEPNS_29CSSMappedAttributeDeclarationE
__ZN3WTF6VectorIPN7WebCore26CSSMutableStyleDeclarationELm0EE14expandCapacityEm
__ZN3WTF6VectorIPN7WebCore26CSSMutableStyleDeclarationELm0EE15reserveCapacityEm
__ZN7WebCore16HTMLTableElement24addSharedCellPaddingDeclERN3WTF6VectorIPNS_26CSSMutableStyleDeclarationELm0EEE
__ZN7WebCore15RenderTableCellC1EPNS_4NodeE
__ZN7WebCore15RenderTableCellC2EPNS_4NodeE
__ZN7WebCore15RenderTableCell17updateFromElementEv
__ZN7WebCore15RenderTableCell15styleWillChangeENS_15StyleDifferenceEPKNS_11RenderStyleE
__ZN7WebCore15RenderTableCell14styleDidChangeENS_15StyleDifferenceEPKNS_11RenderStyleE
__ZNK7WebCore15RenderTableCell13requiresLayerEv
__ZN7WebCore14RenderTableRow8addChildEPNS_12RenderObjectES2_
__ZNK7WebCore15RenderTableCell11isTableCellEv
__ZN7WebCore18RenderTableSection7addCellEPNS_15RenderTableCellEPNS_14RenderTableRowE
__ZNK7WebCore17HTMLAnchorElement17endTagRequirementEv
__ZNK7WebCore17HTMLAnchorElement11tagPriorityEv
__ZN7WebCore9PageGroup14addVisitedLinkEPKtm
__ZN7WebCore11RenderStyle15clearCursorListEv
__ZN7WebCoreL16imageConstructorERKNS_13QualifiedNameEPNS_8DocumentEPNS_15HTMLFormElementEb
__ZN7WebCore16HTMLImageElementC1ERKNS_13QualifiedNameEPNS_8DocumentEPNS_15HTMLFormElementE
__ZN7WebCore16HTMLImageElementC2ERKNS_13QualifiedNameEPNS_8DocumentEPNS_15HTMLFormElementE
__ZN7WebCore15HTMLImageLoaderC1EPNS_7ElementE
__ZN7WebCore15HTMLImageLoaderC2EPNS_7ElementE
__ZN7WebCore11ImageLoaderC2EPNS_7ElementE
__ZNK7WebCore16HTMLImageElement10mapToEntryERKNS_13QualifiedNameERNS_20MappedAttributeEntryE
__ZN7WebCore16HTMLImageElement20parseMappedAttributeEPNS_15MappedAttributeE
__ZN7WebCore11ImageLoader38updateFromElementIgnoringPreviousErrorEv
__ZN7WebCore11ImageLoader17updateFromElementEv
__ZN7WebCore11ImageLoader18memoryLimitReachedEv
__ZN7WebCore8Document18totalImageDataSizeEv
__ZNK7WebCore7Element24imageSourceAttributeNameEv
__ZNK7WebCore15HTMLImageLoader9sourceURIERKNS_12AtomicStringE
__ZN7WebCore4KURLC1ERKS0_RKNS_6StringERKNS_12TextEncodingE
__ZN7WebCore4KURLC2ERKS0_RKNS_6StringERKNS_12TextEncodingE
__ZNK7WebCore12TextEncoding25encodingForFormSubmissionEv
__ZNK7WebCore12TextEncoding22isNonByteBasedEncodingEv
__ZN7WebCore25UTF16LittleEndianEncodingEv
__ZN7WebCore22UTF16BigEndianEncodingEv
__ZNK7WebCore12TextEncoding14isUTF7EncodingEv
__ZNK7WebCore4KURL14isHierarchicalEv
__ZN7WebCoreL20copyPathRemovingDotsEPcPKcii
__ZN7WebCore14DocumentLoader38shouldLoadResourceFromApplicationCacheERKNS_15ResourceRequestERPNS_24ApplicationCacheResourceE
__ZN7WebCore11ImageLoader15setLoadingImageEPNS_11CachedImageE
__ZNK7WebCore16HTMLImageElement17endTagRequirementEv
__ZNK7WebCore16HTMLImageElement11tagPriorityEv
__ZN7WebCore16HTMLImageElement20insertedIntoDocumentEv
__ZN7WebCore12HTMLDocument12addNamedItemERKNS_12AtomicStringE
__ZN7WebCoreL12addItemToMapERN3WTF7HashMapIPNS_16AtomicStringImplEiNS0_7PtrHashIS3_EENS0_10HashTraitsIS3_EENS6_IiEEEERKNS_12AtomicStringE
__ZN7WebCore12HTMLDocument17addExtraNamedItemERKNS_12AtomicStringE
__ZN7WebCore16HTMLImageElement6attachEv
__ZNK7WebCore11CSSSelector9attributeEv
__ZN7WebCore16HTMLImageElement14createRendererEPNS_11RenderArenaEPNS_11RenderStyleE
__ZN7WebCore11RenderImageC1EPNS_4NodeE
__ZN7WebCore11RenderImageC2EPNS_4NodeE
__ZN7WebCore14RenderReplacedC2EPNS_4NodeERKNS_7IntSizeE
__ZN7WebCore11RenderImage13updateAltTextEv
__ZNK7WebCore16HTMLImageElement7altTextEv
__ZN7WebCore14RenderReplaced14styleDidChangeENS_15StyleDifferenceEPKNS_11RenderStyleE
__ZNK7WebCore11RenderImage7isImageEv
__ZNK7WebCore11RenderImage8hasImageEv
__ZN7WebCore11RenderImage14setCachedImageEPNS_11CachedImageE
__ZN7WebCoreeqINS_11CachedImageES1_EEbRKNS_20CachedResourceHandleIT_EEPKT0_
__ZN7WebCore10HTMLParser25checkIfHasPElementInScopeEv
__ZN7WebCoreL15fontConstructorERKNS_13QualifiedNameEPNS_8DocumentEPNS_15HTMLFormElementEb
__ZN7WebCore15HTMLFontElementC1ERKNS_13QualifiedNameEPNS_8DocumentE
__ZN7WebCore15HTMLFontElementC2ERKNS_13QualifiedNameEPNS_8DocumentE
__ZNK7WebCore15HTMLFontElement10mapToEntryERKNS_13QualifiedNameERNS_20MappedAttributeEntryE
__ZN7WebCore15HTMLFontElement20parseMappedAttributeEPNS_15MappedAttributeE
__ZN7WebCore15HTMLFontElement26cssValueFromFontSizeNumberERKNS_6StringERi
__ZNK7WebCore15HTMLFontElement17endTagRequirementEv
__ZNK7WebCore15HTMLFontElement11tagPriorityEv
__ZN7WebCoreL20paragraphConstructorERKNS_13QualifiedNameEPNS_8DocumentEPNS_15HTMLFormElementEb
__ZN7WebCore20HTMLParagraphElementC1ERKNS_13QualifiedNameEPNS_8DocumentE
__ZN7WebCore20HTMLParagraphElementC2ERKNS_13QualifiedNameEPNS_8DocumentE
__ZNK7WebCore20HTMLParagraphElement17endTagRequirementEv
__ZNK7WebCore20HTMLParagraphElement11tagPriorityEv
__ZN7WebCore22CSSQuirkPrimitiveValue12isQuirkValueEv
__ZN7WebCore17CSSPrimitiveValue14getDoubleValueEt
__ZN7WebCore20HTMLParagraphElement8checkDTDEPKNS_4NodeE
__ZN7WebCore11HTMLElement15inInlineTagListEPKNS_4NodeE
__ZN7WebCore11HTMLElement19isRecognizedTagNameERKNS_13QualifiedNameE
__ZN7WebCore9HTMLNames11getHTMLTagsEPm
__ZN3WTF6VectorIPN7WebCore26CSSMutableStyleDeclarationELm0EE6shrinkEm
__ZNK7WebCore20HTMLTableCellElement10mapToEntryERKNS_13QualifiedNameERNS_20MappedAttributeEntryE
__ZN7WebCore20HTMLTableCellElement20parseMappedAttributeEPNS_15MappedAttributeE
__ZNK7WebCore20HTMLTablePartElement10mapToEntryERKNS_13QualifiedNameERNS_20MappedAttributeEntryE
__ZN7WebCore20HTMLTablePartElement20parseMappedAttributeEPNS_15MappedAttributeE
__ZN7WebCore13StyledElement14addCSSPropertyEPNS_15MappedAttributeEiRKNS_6StringE
__ZN7WebCore6String6numberEt
__ZN7WebCore10HTMLParser18isResidualStyleTagERKNS_12AtomicStringE
__ZN7WebCore10HTMLParser27nestedStyleCreateErrorCheckEPNS_5TokenERN3WTF6RefPtrINS_4NodeEEE
__ZN7WebCore10HTMLParser23allowNestedRedundantTagERKNS_12AtomicStringE
__ZNK7WebCore15FontDescription12bolderWeightEv
__ZNK7WebCore4Node15isIndeterminateEv
__ZNK7WebCore4Node9isCheckedEv
__ZNK7WebCore4Node12isAutofilledEv
__ZNK7WebCore18NamedMappedAttrMap14mapsEquivalentEPKS0_
__ZNK7WebCore18NamedMappedAttrMap9declCountEv
__ZN7WebCore11RenderTable12appendColumnEi
__ZN3WTF6VectorIN7WebCore11RenderTable12ColumnStructELm0EE4growEm
__ZN3WTF6VectorIN7WebCore11RenderTable12ColumnStructELm0EE14expandCapacityEm
__ZN7WebCore18RenderTableSection12appendColumnEi
__ZN3WTF6VectorIN7WebCore18RenderTableSection10CellStructELm0EE6resizeEm
__ZN3WTF6VectorIN7WebCore18RenderTableSection10CellStructELm0EE14expandCapacityEm
__ZN3WTF6VectorIN7WebCore18RenderTableSection10CellStructELm0EE15reserveCapacityEm
__ZN3WTF6VectorIiLm0EE4growEm
__ZN7WebCore10HTMLParser20reportErrorToConsoleENS_19HTMLParserErrorCodeEPKNS_12AtomicStringES4_b
__ZNK7WebCore13HTMLTokenizer10lineNumberEv
__ZN7WebCore30htmlParserErrorMessageTemplateENS_19HTMLParserErrorCodeE
__ZNK7WebCore9DOMWindow7consoleEv
__ZN7WebCore7ConsoleC1EPNS_5FrameE
__ZN7WebCore7ConsoleC2EPNS_5FrameE
__ZN7WebCore9isWarningENS_19HTMLParserErrorCodeE
__ZN7WebCore7Console10addMessageENS_13MessageSourceENS_12MessageLevelERKNS_6StringEjS5_
__ZN7WebCore7Console21shouldPrintExceptionsEv
__ZN7WebCore10HTMLParser20formCreateErrorCheckEPNS_5TokenERN3WTF6RefPtrINS_4NodeEEE
__ZN7WebCore15HTMLFormElementC1ERKNS_13QualifiedNameEPNS_8DocumentE
__ZN7WebCore15HTMLFormElementC2ERKNS_13QualifiedNameEPNS_8DocumentE
__ZN7WebCore15FormDataBuilderC1Ev
__ZN7WebCore15FormDataBuilderC2Ev
__ZN7WebCore15HTMLFormElement20parseMappedAttributeEPNS_15MappedAttributeE
__ZN7WebCore15FormDataBuilder15parseMethodTypeERKNS_6StringE
__ZNK7WebCore15HTMLFormElement17endTagRequirementEv
__ZNK7WebCore15HTMLFormElement11tagPriorityEv
__ZN7WebCore15HTMLFormElement20insertedIntoDocumentEv
__ZN7WebCore15HTMLFormElement6attachEv
__ZNK7WebCore4Node15isStyledElementEv
__ZN7WebCore10HTMLParser22selectCreateErrorCheckEPNS_5TokenERN3WTF6RefPtrINS_4NodeEEE
__ZN7WebCoreL17selectConstructorERKNS_13QualifiedNameEPNS_8DocumentEPNS_15HTMLFormElementEb
__ZN7WebCore17HTMLSelectElementC1ERKNS_13QualifiedNameEPNS_8DocumentEPNS_15HTMLFormElementE
__ZN7WebCore17HTMLSelectElementC2ERKNS_13QualifiedNameEPNS_8DocumentEPNS_15HTMLFormElementE
__ZN7WebCore31HTMLFormControlElementWithStateC2ERKNS_13QualifiedNameEPNS_8DocumentEPNS_15HTMLFormElementE
__ZN7WebCore22HTMLFormControlElementC2ERKNS_13QualifiedNameEPNS_8DocumentEPNS_15HTMLFormElementE
__ZN7WebCore15HTMLFormElement19registerFormElementEPNS_22HTMLFormControlElementE
__ZN7WebCore15HTMLFormElement19CheckedRadioButtons12removeButtonEPNS_22HTMLFormControlElementE
__ZNK7WebCore22HTMLFormControlElement4nameEv
__ZN7WebCore15HTMLFormElement19CheckedRadioButtons9addButtonEPNS_22HTMLFormControlElementE
__ZNK7WebCore22HTMLFormControlElement13isRadioButtonEv
__ZN7WebCore15HTMLFormElement16formElementIndexEPNS_22HTMLFormControlElementE
__ZN3WTF6VectorIPN7WebCore22HTMLFormControlElementELm0EE14expandCapacityEmPKS3_
__ZN3WTF6VectorIPN7WebCore22HTMLFormControlElementELm0EE14expandCapacityEm
__ZN3WTF6VectorIPN7WebCore22HTMLFormControlElementELm0EE15reserveCapacityEm
__ZN7WebCore27FormControlElementWithState35registerFormControlElementWithStateEPS0_PNS_8DocumentE
__ZN3WTF11ListHashSetIPN7WebCore27FormControlElementWithStateENS_7PtrHashIS3_EEE3addERKS3_
__ZN3WTF11ListHashSetIPN7WebCore27FormControlElementWithStateENS_7PtrHashIS3_EEE10appendNodeEPNS_15ListHashSetNodeIS3_EE
__ZN7WebCore17HTMLSelectElement20parseMappedAttributeEPNS_15MappedAttributeE
__ZN7WebCore22HTMLFormControlElement20parseMappedAttributeEPNS_15MappedAttributeE
__ZNK7WebCore22HTMLFormControlElement17endTagRequirementEv
__ZNK7WebCore17HTMLSelectElement11tagPriorityEv
__ZN7WebCore22HTMLFormControlElement16insertedIntoTreeEb
__ZN7WebCore22HTMLFormControlElement6attachEv
__ZNK7WebCore22HTMLFormControlElement9isControlEv
__ZNK7WebCore7Element17isInputTypeHiddenEv
__ZNK7WebCore22HTMLFormControlElement9isEnabledEv
__ZNK7WebCore22HTMLFormControlElement8disabledEv
__ZNK7WebCore15CSSInitialValue12cssValueTypeEv
__ZNK7WebCore8CSSValue12cssValueTypeEv
__ZNK7WebCore9FontValue11isFontValueEv
__ZN7WebCore11RenderStyle13setTextShadowEPNS_10ShadowDataEb
__ZN7WebCore7DataRefINS_25StyleRareNonInheritedDataEE6accessEv
__ZN7WebCore25StyleRareNonInheritedDataC1ERKS0_
__ZN7WebCore25StyleRareNonInheritedDataC2ERKS0_
__ZN7WebCore7DataRefINS_20StyleFlexibleBoxDataEE6accessEv
__ZN7WebCore20StyleFlexibleBoxDataC1ERKS0_
__ZN7WebCore20StyleFlexibleBoxDataC2ERKS0_
__ZN7WebCore17CSSPrimitiveValue16computeLengthIntEPNS_11RenderStyleEd
__ZN7WebCore9FillLayeraSERKS0_
__ZN7WebCore11RenderTheme11adjustStyleEPNS_16CSSStyleSelectorEPNS_11RenderStyleEPNS_7ElementEbRKNS_10BorderDataERKNS_9FillLayerERKNS_5ColorE
__ZNK7WebCore17RenderThemeIPhone15isControlStyledEPKNS_11RenderStyleERKNS_10BorderDataERKNS_9FillLayerERKNS_5ColorE
__ZN7WebCore11RenderStyle12setBoxShadowEPNS_10ShadowDataEb
__ZNK7WebCore17RenderThemeIPhone25adjustMenuListButtonStyleEPNS_16CSSStyleSelectorEPNS_11RenderStyleEPNS_7ElementE
__ZN7WebCore17HTMLSelectElement14createRendererEPNS_11RenderArenaEPNS_11RenderStyleE
__ZN7WebCore14RenderMenuListC1EPNS_17HTMLSelectElementE
__ZN7WebCore14RenderMenuListC2EPNS_17HTMLSelectElementE
__ZN7WebCore17RenderFlexibleBoxC2EPNS_4NodeE
__ZN7WebCore14RenderMenuList14styleDidChangeENS_15StyleDifferenceEPKNS_11RenderStyleE
__ZN7WebCore14RenderMenuList18updateOptionsWidthEv
__ZN7WebCore14RenderMenuList17updateFromElementEv
__ZNK7WebCore17HTMLSelectElement13selectedIndexEv
__ZN7WebCore14RenderMenuList17setTextFromOptionEi
__ZNK7WebCore17HTMLSelectElement17optionToListIndexEi
__ZNK7WebCore14RenderMenuList8multipleEv
__ZN7WebCore23htmlSelectMultipleItemsEi
__ZNK7WebCore6String15stripWhiteSpaceEv
__ZN7WebCore10StringImpl15stripWhiteSpaceEv
__ZN7WebCore14RenderMenuList7setTextERKNS_6StringE
__ZN7WebCore14RenderMenuList8addChildEPNS_12RenderObjectES2_
__ZN7WebCore14RenderMenuList16createInnerBlockEv
__ZN7WebCore14RenderMenuList16adjustInnerStyleEv
__ZNK7WebCore11RenderTheme24popupInternalPaddingLeftEPNS_11RenderStyleE
__ZNK7WebCore17RenderThemeIPhone25popupInternalPaddingRightEPNS_11RenderStyleE
__ZNK7WebCore11RenderTheme23popupInternalPaddingTopEPNS_11RenderStyleE
__ZNK7WebCore11RenderTheme26popupInternalPaddingBottomEPNS_11RenderStyleE
__ZN7WebCore9PopupMenu29itemWritingDirectionIsNaturalEv
__ZN7WebCore10StringImpl23defaultWritingDirectionEv
__ZNK7WebCore22HTMLFormControlElement9autofocusEv
__ZNK7WebCore7Element12hasAttributeERKNS_13QualifiedNameE
__ZNK7WebCore7Element14hasAttributeNSERKNS_6StringES3_
__ZNK7WebCore22HTMLFormControlElement20isFormControlElementEv
__ZN7WebCore17HTMLSelectElement8checkDTDEPKNS_4NodeE
__ZN7WebCore17HTMLSelectElement15childrenChangedEbPNS_4NodeES2_i
__ZN7WebCore17HTMLSelectElement18setRecalcListItemsEv
__ZNK7WebCore14RenderMenuList15canHaveChildrenEv
__ZN7WebCoreL17optionConstructorERKNS_13QualifiedNameEPNS_8DocumentEPNS_15HTMLFormElementEb
__ZN7WebCore17HTMLOptionElementC1ERKNS_13QualifiedNameEPNS_8DocumentEPNS_15HTMLFormElementE
__ZN7WebCore17HTMLOptionElementC2ERKNS_13QualifiedNameEPNS_8DocumentEPNS_15HTMLFormElementE
__ZN7WebCore17OptionElementDataC1EPNS_7ElementE
__ZN7WebCore17OptionElementDataC2EPNS_7ElementE
__ZN7WebCore17HTMLOptionElement20parseMappedAttributeEPNS_15MappedAttributeE
__ZNK7WebCore17HTMLOptionElement17endTagRequirementEv
__ZNK7WebCore17HTMLOptionElement11tagPriorityEv
__ZN7WebCore17HTMLOptionElement20insertedIntoDocumentEv
__ZNK7WebCore17HTMLOptionElement8selectedEv
__ZN7WebCore17HTMLOptionElement6attachEv
__ZNK7WebCore17HTMLOptionElement8disabledEv
__ZN7WebCore17HTMLOptionElement14setRenderStyleEN3WTF10PassRefPtrINS_11RenderStyleEEE
__ZN7WebCore17HTMLOptionElement8checkDTDEPKNS_4NodeE
__ZN7WebCore17HTMLOptionElement15childrenChangedEbPNS_4NodeES2_i
__ZNK7WebCore17HTMLOptionElement18ownerSelectElementEv
__ZNK7WebCore17HTMLOptionElement22nonRendererRenderStyleEv
__ZN7WebCore17HTMLSelectElement17scrollToSelectionEv
__ZN7WebCore11RenderTheme17adjustRepaintRectEPKNS_12RenderObjectERNS_7IntRectE
__ZN7WebCore15RenderTableCell21computeRectForRepaintEPNS_9RenderBoxERNS_7IntRectEb
__ZN7WebCore31HTMLFormControlElementWithState21finishParsingChildrenEv
__ZNK7WebCore8Document26hasStateForNewFormElementsEv
__ZN7WebCoreL16inputConstructorERKNS_13QualifiedNameEPNS_8DocumentEPNS_15HTMLFormElementEb
__ZN7WebCore16HTMLInputElementC1ERKNS_13QualifiedNameEPNS_8DocumentEPNS_15HTMLFormElementE
__ZN7WebCore16HTMLInputElementC2ERKNS_13QualifiedNameEPNS_8DocumentEPNS_15HTMLFormElementE
__ZN7WebCore16InputElementDataC1EPNS_12InputElementEPNS_7ElementE
__ZN7WebCore16InputElementDataC2EPNS_12InputElementEPNS_7ElementE
__ZNK7WebCore16HTMLInputElement10mapToEntryERKNS_13QualifiedNameERNS_20MappedAttributeEntryE
__ZN7WebCore16HTMLInputElement20parseMappedAttributeEPNS_15MappedAttributeE
__ZNK7WebCore16HTMLInputElement4nameEv
__ZNK7WebCore16InputElementData4nameEv
__ZNK7WebCore16HTMLInputElement13isRadioButtonEv
__ZN7WebCore12InputElement18parseSizeAttributeERNS_16InputElementDataEPNS_15MappedAttributeE
__ZN7WebCore22HTMLFormControlElement23setValueMatchesRendererEb
__ZNK7WebCore16HTMLInputElement17endTagRequirementEv
__ZNK7WebCore16HTMLInputElement11tagPriorityEv
__ZN7WebCore16HTMLInputElement6attachEv
__ZN7WebCore16HTMLInputElement12setInputTypeERKNS_6StringE
__ZNK7WebCore16HTMLInputElement17isInputTypeHiddenEv
__ZNK7WebCore16HTMLInputElement12isAutofilledEv
__ZNK7WebCore11RenderTheme20adjustTextFieldStyleEPNS_16CSSStyleSelectorEPNS_11RenderStyleEPNS_7ElementE
__ZN7WebCore16HTMLInputElement16rendererIsNeededEPNS_11RenderStyleE
__ZN7WebCore16HTMLInputElement14createRendererEPNS_11RenderArenaEPNS_11RenderStyleE
__ZN7WebCore27RenderTextControlSingleLineC1EPNS_4NodeE
__ZN7WebCore27RenderTextControlSingleLineC2EPNS_4NodeE
__ZN7WebCore17RenderTextControlC2EPNS_4NodeE
__ZN7WebCore27RenderTextControlSingleLine14styleDidChangeENS_15StyleDifferenceEPKNS_11RenderStyleE
__ZN7WebCore17RenderTextControl14styleDidChangeENS_15StyleDifferenceEPKNS_11RenderStyleE
__ZN7WebCore27RenderTextControlSingleLine17updateFromElementEv
__ZN7WebCore27RenderTextControlSingleLine21createSubtreeIfNeededEv
__ZNK7WebCore27RenderTextControlSingleLine12inputElementEv
__ZN7WebCore14toInputElementEPNS_7ElementE
__ZThn72_NK7WebCore16HTMLInputElement13isSearchFieldEv
__ZNK7WebCore16HTMLInputElement13isSearchFieldEv
__ZN7WebCore17RenderTextControl21createSubtreeIfNeededEPNS_23TextControlInnerElementE
__ZN7WebCore27TextControlInnerTextElementC1EPNS_8DocumentEPNS_4NodeE
__ZN7WebCore27TextControlInnerTextElementC2EPNS_8DocumentEPNS_4NodeE
__ZN7WebCore23TextControlInnerElementC2EPNS_8DocumentEPNS_4NodeE
__ZNK7WebCore27RenderTextControlSingleLine20createInnerTextStyleEPKNS_11RenderStyleE
__ZNK7WebCore27RenderTextControlSingleLine26placeholderShouldBeVisibleEv
__ZThn72_NK7WebCore16HTMLInputElement26placeholderShouldBeVisibleEv
__ZNK7WebCore16HTMLInputElement26placeholderShouldBeVisibleEv
__ZNK7WebCore17RenderTextControl20adjustInnerTextStyleEPKNS_11RenderStyleEPS1_
__ZNK7WebCore22HTMLFormControlElement17isReadOnlyControlEv
__ZN7WebCore23TextControlInnerElement18attachInnerElementEPNS_4NodeEN3WTF10PassRefPtrINS_11RenderStyleEEEPNS_11RenderArenaE
__ZN7WebCore27TextControlInnerTextElement14createRendererEPNS_11RenderArenaEPNS_11RenderStyleE
__ZNK7WebCore23TextControlInnerElement12isShadowNodeEv
__ZN7WebCore23TextControlInnerElement16shadowParentNodeEv
__ZNK7WebCore27RenderTextControlSingleLine11isTextFieldEv
__ZN7WebCore9FrameView25scheduleRelayoutOfSubtreeEPNS_12RenderObjectE
__ZN7WebCore17RenderTextControl17updateFromElementEv
__ZNK7WebCore17RenderTextControl18formControlElementEv
__ZN7WebCore20toFormControlElementEPNS_7ElementE
__ZThn56_NK7WebCore22HTMLFormControlElement20valueMatchesRendererEv
__ZNK7WebCore22HTMLFormControlElement20valueMatchesRendererEv
__ZThn72_NK7WebCore16HTMLInputElement5valueEv
__ZNK7WebCore16HTMLInputElement5valueEv
__ZNK7WebCore16HTMLInputElement14constrainValueERKNS_6StringE
__ZN7WebCore12InputElement14constrainValueERKNS_16InputElementDataERKNS_6StringEi
__ZThn72_NK7WebCore16HTMLInputElement11isTextFieldEv
__ZNK7WebCore16HTMLInputElement11isTextFieldEv
__ZN7WebCore17RenderTextControl17setInnerTextValueERKNS_6StringE
__ZN7WebCore17RenderTextControl4textEv
__ZNK7WebCore17RenderTextControl10finishTextERN3WTF6VectorItLm0EEE
__ZThn56_N7WebCore22HTMLFormControlElement23setValueMatchesRendererEb
__ZNK7WebCore16HTMLInputElement32storesValueSeparateFromAttributeEv
__ZN7WebCore12InputElement19updateValueIfNeededERNS_16InputElementDataE
__ZThn72_NK7WebCore16HTMLInputElement14constrainValueERKNS_6StringE
__ZN7WebCore12InputElement22notifyFormStateChangedERNS_16InputElementDataEPNS_8DocumentE
__ZN7WebCore16HTMLInputElement10setCheckedEbb
__ZN7WebCoreL36htmlAttributeHasCaseInsensitiveValueERKNS_13QualifiedNameE
__ZN7WebCoreL17addLocalNameToSetEPN3WTF7HashSetIPNS_16AtomicStringImplENS0_7PtrHashIS3_EENS0_10HashTraitsIS3_EEEERKNS_13QualifiedNameE
__ZNK7WebCore16HTMLInputElement9isCheckedEv
__ZNK7WebCore16HTMLInputElement15isIndeterminateEv
__ZNK7WebCore11RenderTheme15isControlStyledEPKNS_11RenderStyleERKNS_10BorderDataERKNS_9FillLayerERKNS_5ColorE
__ZNK7WebCore17RenderThemeIPhone19adjustCheckboxStyleEPNS_16CSSStyleSelectorEPNS_11RenderStyleEPNS_7ElementE
__ZN7WebCore12RenderObject17updateFromElementEv
__ZN7WebCore13textBreakNextEPNS_17TextBreakIteratorE
__ZN7WebCoreL13hrConstructorERKNS_13QualifiedNameEPNS_8DocumentEPNS_15HTMLFormElementEb
__ZN7WebCore13HTMLHRElementC1ERKNS_13QualifiedNameEPNS_8DocumentE
__ZN7WebCore13HTMLHRElementC2ERKNS_13QualifiedNameEPNS_8DocumentE
__ZNK7WebCore13HTMLHRElement17endTagRequirementEv
__ZNK7WebCore13HTMLHRElement11tagPriorityEv
__ZNK7WebCore11RenderTheme11systemColorEi
__ZNK7WebCore11RenderTheme17adjustButtonStyleEPNS_16CSSStyleSelectorEPNS_11RenderStyleEPNS_7ElementE
__ZNK7WebCore17RenderThemeIPhone13setButtonSizeEPNS_11RenderStyleE
__ZN7WebCore12RenderButtonC1EPNS_4NodeE
__ZN7WebCore12RenderButtonC2EPNS_4NodeE
__ZN7WebCore12RenderButton15styleWillChangeENS_15StyleDifferenceEPKNS_11RenderStyleE
__ZN7WebCore12RenderButton14styleDidChangeENS_15StyleDifferenceEPKNS_11RenderStyleE
__ZNK7WebCore11RenderTheme9isDefaultEPKNS_12RenderObjectE
__ZN7WebCore12RenderButton17updateFromElementEv
__ZNK7WebCore16HTMLInputElement16valueWithDefaultEv
__ZN7WebCore12RenderButton7setTextERKNS_6StringE
__ZN7WebCore18RenderTextFragmentC1EPNS_4NodeEPNS_10StringImplE
__ZN7WebCore18RenderTextFragmentC2EPNS_4NodeEPNS_10StringImplE
__ZN7WebCore12RenderButton8addChildEPNS_12RenderObjectES2_
__ZN7WebCore12RenderButton15setupInnerStyleEPNS_11RenderStyleE
__ZNK7WebCore11RenderTheme22adjustButtonInnerStyleEPNS_11RenderStyleE
__ZNK7WebCore13HTMLBRElement17endTagRequirementEv
__ZNK7WebCore13HTMLBRElement11tagPriorityEv
__ZN3WTF7HashMapIPN7WebCore16AtomicStringImplEPNS1_16HTMLInputElementENS_7PtrHashIS3_EENS_10HashTraitsIS3_EENS8_IS5_EEE3addERKS3_RKS5_
__ZN3WTF9HashTableIPN7WebCore16AtomicStringImplESt4pairIS3_PNS1_16HTMLInputElementEENS_18PairFirstExtractorIS7_EENS_7PtrHashIS3_EENS_14PairHashTraitsINS_10HashTraitsIS3_EENSD_IS6_EEEESE_E15deallocateTableEPS7_i
__ZN3WTF9HashTableIPN7WebCore16AtomicStringImplESt4pairIS3_PNS1_16HTMLInputElementEENS_18PairFirstExtractorIS7_EENS_7PtrHashIS3_EENS_14PairHashTraitsINS_10HashTraitsIS3_EENSD_IS6_EEEESE_E13allocateTableEi
__ZN3WTF9HashTableIPN7WebCore16AtomicStringImplESt4pairIS3_PNS1_16HTMLInputElementEENS_18PairFirstExtractorIS7_EENS_7PtrHashIS3_EENS_14PairHashTraitsINS_10HashTraitsIS3_EENSD_IS6_EEEESE_E6rehashEi
__ZN3WTF9HashTableIPN7WebCore16AtomicStringImplESt4pairIS3_PNS1_16HTMLInputElementEENS_18PairFirstExtractorIS7_EENS_7PtrHashIS3_EENS_14PairHashTraitsINS_10HashTraitsIS3_EENSD_IS6_EEEESE_E6removeEPS7_
__ZN3WTF9HashTableIPN7WebCore16AtomicStringImplESt4pairIS3_PNS1_16HTMLInputElementEENS_18PairFirstExtractorIS7_EENS_7PtrHashIS3_EENS_14PairHashTraitsINS_10HashTraitsIS3_EENSD_IS6_EEEESE_E47removeAndInvalidateWithoutEntryConsistencyCheckEPS7_
__ZN3WTF9HashTableIPN7WebCore16AtomicStringImplESt4pairIS3_PNS1_16HTMLInputElementEENS_18PairFirstExtractorIS7_EENS_7PtrHashIS3_EENS_14PairHashTraitsINS_10HashTraitsIS3_EENSD_IS6_EEEESE_E6expandEv
__ZN3WTF9HashTableIPN7WebCore16AtomicStringImplESt4pairIS3_PNS1_16HTMLInputElementEENS_18PairFirstExtractorIS7_EENS_7PtrHashIS3_EENS_14PairHashTraitsINS_10HashTraitsIS3_EENSD_IS6_EEEESE_E4findIS3_NS_22IdentityHashTranslatorIS3_S7_SB_EEEENS_17HashTableIteratorIS3_S7_S9_SB_SG_SE_EERKT_
__ZNK7WebCore17RenderThemeIPhone16adjustRadioStyleEPNS_16CSSStyleSelectorEPNS_11RenderStyleEPNS_7ElementE
__ZN7WebCore15RenderTableCell29clippedOverflowRectForRepaintEPNS_9RenderBoxE
__ZNK7WebCore15ProgressTracker17estimatedProgressEv
__ZN7WebCore7cgColorERKNS_5ColorE
__ZN7WebCore17HTMLSelectElement11recalcStyleENS_4Node11StyleChangeE
__ZNK7WebCore17HTMLSelectElement15recalcListItemsEb
__ZN3WTF6VectorIPN7WebCore11HTMLElementELm0EE14shrinkCapacityEm
__ZN3WTF6VectorIPN7WebCore11HTMLElementELm0EE14expandCapacityEmPKS3_
__ZN3WTF6VectorIPN7WebCore11HTMLElementELm0EE14expandCapacityEm
__ZN3WTF6VectorIPN7WebCore11HTMLElementELm0EE15reserveCapacityEm
__ZN7WebCore22HTMLFormControlElement11recalcStyleENS_4Node11StyleChangeE
__ZNK7WebCore25StyleRareNonInheritedDataeqERKS0_
__ZNK7WebCore20StyleFlexibleBoxDataeqERKS0_
__ZNK7WebCore25StyleRareNonInheritedData20shadowDataEquivalentERKS0_
__ZNK7WebCore25StyleRareNonInheritedData24reflectionDataEquivalentERKS0_
__ZNK7WebCore25StyleRareNonInheritedData23animationDataEquivalentERKS0_
__ZNK7WebCore25StyleRareNonInheritedData24transitionDataEquivalentERKS0_
__ZN7WebCore25StyleRareNonInheritedDataD1Ev
__ZN7WebCore25StyleRareNonInheritedDataD2Ev
__ZN7WebCore15toOptionElementEPNS_7ElementE
__ZThn68_NK7WebCore17HTMLOptionElement31textIndentedToRespectGroupLabelEv
__ZNK7WebCore17HTMLOptionElement31textIndentedToRespectGroupLabelEv
__ZN7WebCore13OptionElement37collectOptionTextRespectingGroupLabelERKNS_17OptionElementDataEPNS_8DocumentE
__ZN7WebCore20toOptionGroupElementEPNS_7ElementE
__ZN7WebCore13OptionElement17collectOptionTextERKNS_17OptionElementDataEPNS_8DocumentE
__ZNK7WebCore6String18simplifyWhiteSpaceEv
__ZN7WebCore10StringImpl18simplifyWhiteSpaceEv
__ZN7WebCore17HTMLOptionElement16setSelectedStateEb
__ZN7WebCore13OptionElement16setSelectedStateERNS_17OptionElementDataEb
__ZN7WebCore11RenderImage12imageChangedEPvPKNS_7IntRectE
__ZNK7WebCore11RenderImage8imagePtrEv
__ZNK7WebCore11RenderImage13errorOccurredEv
__ZNK7WebCore11RenderImage9imageSizeEf
__ZNK7WebCore14RenderReplaced13intrinsicSizeEv
__ZN7WebCore14RenderReplaced16setIntrinsicSizeERKNS_7IntSizeE
__ZNK7WebCore11RenderImage17calcReplacedWidthEb
__ZNK7WebCore11RenderImage21imageHasRelativeWidthEv
__ZNK7WebCore11CachedImage21imageHasRelativeWidthEv
__ZNK7WebCore11RenderImage16isWidthSpecifiedEv
__ZNK7WebCore9RenderBox22calcReplacedWidthUsingENS_6LengthE
__ZNK7WebCore9RenderBox19calcContentBoxWidthEi
__ZNK7WebCore12RenderObject13isHTMLMarqueeEv
__ZNK7WebCore15RenderTableCell10borderLeftEv
__ZNK7WebCore15RenderTableCell11borderRightEv
__ZNK7WebCore9RenderBox12minPrefWidthEv
__ZN7WebCore11RenderImage14calcPrefWidthsEv
__ZNK7WebCore11RenderImage18calcReplacedHeightEv
__ZNK7WebCore11RenderImage17isHeightSpecifiedEv
__ZNK7WebCore9RenderBox23calcReplacedHeightUsingENS_6LengthE
__ZNK7WebCore9RenderBox20calcContentBoxHeightEi
__ZN7WebCore15HTMLImageLoader14notifyFinishedEPNS_14CachedResourceE
__ZN7WebCore11ImageLoader14notifyFinishedEPNS_14CachedResourceE
__ZN7WebCore8Document26dispatchImageLoadEventSoonEPNS_11ImageLoaderE
__ZN3WTF6VectorIPN7WebCore11ImageLoaderELm0EE14expandCapacityEmPKS3_
__ZN3WTF6VectorIPN7WebCore11ImageLoaderELm0EE14expandCapacityEm
__ZN3WTF6VectorIPN7WebCore11ImageLoaderELm0EE15reserveCapacityEm
__ZN7WebCore8Document27incrementTotalImageDataSizeEPNS_11CachedImageE
__ZN3WTF7HashMapIPN7WebCore11CachedImageEjNS_7PtrHashIS3_EENS_10HashTraitsIS3_EENS6_IjEEE3addERKS3_RKj
__ZN7WebCore11CachedImage17animatedImageSizeEv
__ZN7WebCore11BitmapImage17animatedImageSizeEv
__ZN7WebCore11RenderImage14notifyFinishedEPNS_14CachedResourceE
__ZN7WebCoreeqINS_11CachedImageENS_14CachedResourceEEEbPKT0_RKNS_20CachedResourceHandleIT_EE
__ZN3WTF6VectorIPN7WebCore11ImageLoaderELm0EE6shrinkEm
__ZN7WebCore15HTMLImageLoader17dispatchLoadEventEv
__ZNK7WebCore11RenderTable12avoidsFloatsEv
__ZN7WebCore11RenderTable6layoutEv
__ZN7WebCore11RenderTable9calcWidthEv
__ZN7WebCore11RenderTable14calcPrefWidthsEv
__ZN7WebCore11RenderTable23recalcHorizontalBordersEv
__ZNK7WebCore11RenderTable14calcBorderLeftEv
__ZNK7WebCore11RenderTable15calcBorderRightEv
__ZN7WebCore15AutoTableLayout14calcPrefWidthsERiS1_
__ZN7WebCore15AutoTableLayout10fullRecalcEv
__ZN3WTF6VectorIN7WebCore15AutoTableLayout6LayoutELm4EE6resizeEm
__ZN3WTF6VectorIN7WebCore15AutoTableLayout6LayoutELm4EE4fillERKS3_m
__ZSt4fillIPN7WebCore15AutoTableLayout6LayoutES2_EvT_S4_RKT0_
__ZN3WTF6VectorIPN7WebCore15RenderTableCellELm4EE4fillERKS3_m
__ZSt4fillIPPN7WebCore15RenderTableCellES2_EvT_S4_RKT0_
__ZN7WebCore15AutoTableLayout12recalcColumnEi
__ZN7WebCore15RenderTableCell14calcPrefWidthsEv
__ZN7WebCore11RenderBlock14calcPrefWidthsEv
__ZN7WebCore11RenderBlock20calcInlinePrefWidthsEv
__ZNK7WebCore11RenderTable10borderLeftEv
__ZNK7WebCore11RenderTable11borderRightEv
__ZN7WebCore20InlineMinMaxIterator4nextEv
__ZN7WebCoreL11getBPMWidthEiNS_6LengthE
__ZNK7WebCore9RenderBox12maxPrefWidthEv
__ZNK7WebCore15RenderTableCell15styleOrColWidthEv
__ZNK7WebCore11RenderTable10colElementEiPbS1_
__ZN7WebCore15AutoTableLayout18calcEffectiveWidthEv
__ZN7WebCore15AutoTableLayout6layoutEv
__ZN7WebCore11RenderTable13setCellWidthsEv
__ZN7WebCore18RenderTableSection13setCellWidthsEv
__ZN7WebCore15RenderTableCell11updateWidthEi
__ZN7WebCore15RenderContainer6layoutEv
__ZN7WebCore14RenderTableRow6layoutEv
__ZN7WebCore15RenderTableCell6layoutEv
__ZN7WebCore15RenderTableCell9calcWidthEv
__ZNK7WebCore15RenderTableCell9borderTopEv
__ZNK7WebCore15RenderTableCell10paddingTopEb
__ZNK7WebCore15RenderTableCell12borderBottomEv
__ZNK7WebCore15RenderTableCell13paddingBottomEb
__ZN7WebCore9RenderBox14dirtyLineBoxesEbb
__ZN7WebCore14RenderReplaced6layoutEv
__ZNK7WebCore11RenderImage21minimumReplacedHeightEv
__ZN7WebCore14RenderReplaced36adjustOverflowForBoxShadowAndReflectEv
__ZNK7WebCore12RenderObject6lengthEv
__ZN7WebCore12RenderObject15createInlineBoxEbbb
__ZNK7WebCore14RenderReplaced14selectionStateEv
__ZN7WebCore9InlineBox15isInlineTextBoxEv
__ZNK7WebCore9InlineBox11isLineBreakEv
__ZNK7WebCore14RenderReplaced12overflowLeftEb
__ZNK7WebCore14RenderReplaced13overflowWidthEb
__ZN7WebCoreL19alternateFamilyNameERKNS_12AtomicStringE
__ZNK7WebCore14RenderReplaced10lineHeightEbb
__ZNK7WebCore14RenderReplaced16baselinePositionEbb
__ZNK7WebCore14RenderReplaced11overflowTopEb
__ZNK7WebCore14RenderReplaced14overflowHeightEb
__ZN7WebCore9RenderBox8positionEPNS_9InlineBoxE
__ZN7WebCore18RenderTableSection13calcRowHeightEv
__ZN3WTF6VectorIiLm0EE6resizeEm
__ZNK7WebCore9RenderBox12overrideSizeEv
__ZNK7WebCore11RenderTable9borderTopEv
__ZNK7WebCore11RenderTable12borderBottomEv
__ZN7WebCore18RenderTableSection10layoutRowsEi
__ZNK7WebCore18RenderTableSection12overflowLeftEb
__ZNK7WebCore18RenderTableSection13overflowWidthEb
__ZNK7WebCore18RenderTableSection11overflowTopEb
__ZNK7WebCore18RenderTableSection14overflowHeightEb
__ZNK7WebCore11RenderTable12sectionBelowEPKNS_18RenderTableSectionEb
__ZN7WebCore11RenderBlock19calcBlockPrefWidthsEv
__ZN7WebCore10RenderText17trimmedPrefWidthsEiRiRbS1_S2_S2_S2_S1_S1_S1_S1_S2_
__ZN3WTF6VectorIN7WebCore15AutoTableLayout6LayoutELm4EE14expandCapacityEm
__ZN3WTF6VectorIN7WebCore15AutoTableLayout6LayoutELm4EE15reserveCapacityEm
__ZN7WebCore14RenderMenuList14calcPrefWidthsEv
__ZNK7WebCore11RenderTheme19minimumMenuListSizeEPNS_11RenderStyleE
__ZN7WebCore17RenderFlexibleBox11layoutBlockEb
__ZN7WebCore17RenderFlexibleBox19layoutHorizontalBoxEb
__ZN7WebCore9RenderBox15setOverrideSizeEi
__ZNK7WebCore17RenderFlexibleBox13isFlexibleBoxEv
__ZNK7WebCore17RenderFlexibleBox20isStretchingChildrenEv
__ZN7WebCore17RenderFlexibleBox10placeChildEPNS_9RenderBoxEii
__ZN7WebCore17RenderFlexibleBox16allowedChildFlexEPNS_9RenderBoxEbj
__ZNK7WebCore9RenderBox13overrideWidthEv
__ZN3WTF7HashMapIPKN7WebCore9RenderBoxEiNS_7PtrHashIS4_EENS_10HashTraitsIS4_EENS7_IiEEE3setERKS4_RKi
__ZN3WTF9HashTableIPKN7WebCore9RenderBoxESt4pairIS4_iENS_18PairFirstExtractorIS6_EENS_7PtrHashIS4_EENS_14PairHashTraitsINS_10HashTraitsIS4_EENSC_IiEEEESD_E15deallocateTableEPS6_i
__ZN3WTF9HashTableIPKN7WebCore9RenderBoxESt4pairIS4_iENS_18PairFirstExtractorIS6_EENS_7PtrHashIS4_EENS_14PairHashTraitsINS_10HashTraitsIS4_EENSC_IiEEEESD_E13allocateTableEi
__ZN3WTF9HashTableIPKN7WebCore9RenderBoxESt4pairIS4_iENS_18PairFirstExtractorIS6_EENS_7PtrHashIS4_EENS_14PairHashTraitsINS_10HashTraitsIS4_EENSC_IiEEEESD_E6rehashEi
__ZN3WTF9HashTableIPKN7WebCore9RenderBoxESt4pairIS4_iENS_18PairFirstExtractorIS6_EENS_7PtrHashIS4_EENS_14PairHashTraitsINS_10HashTraitsIS4_EENSC_IiEEEESD_E6removeEPS6_
__ZN3WTF9HashTableIPKN7WebCore9RenderBoxESt4pairIS4_iENS_18PairFirstExtractorIS6_EENS_7PtrHashIS4_EENS_14PairHashTraitsINS_10HashTraitsIS4_EENSC_IiEEEESD_E47removeAndInvalidateWithoutEntryConsistencyCheckEPS6_
__ZN3WTF9HashTableIPKN7WebCore9RenderBoxESt4pairIS4_iENS_18PairFirstExtractorIS6_EENS_7PtrHashIS4_EENS_14PairHashTraitsINS_10HashTraitsIS4_EENSC_IiEEEESD_E6expandEv
__ZN3WTF9HashTableIPKN7WebCore9RenderBoxESt4pairIS4_iENS_18PairFirstExtractorIS6_EENS_7PtrHashIS4_EENS_14PairHashTraitsINS_10HashTraitsIS4_EENSC_IiEEEESD_E4findIS4_NS_22IdentityHashTranslatorIS4_S6_SA_EEEENS_17HashTableIteratorIS4_S6_S8_SA_SF_SD_EERKT_
__ZNK7WebCore17RenderFlexibleBox17isFlexingChildrenEv
__ZNK3WTF7HashMapIPKN7WebCore9RenderBoxEiNS_7PtrHashIS4_EENS_10HashTraitsIS4_EENS7_IiEEE3getERKS4_
__ZNK7WebCore14RenderMenuList14hasControlClipEv
__ZNK7WebCore11RenderBlock14selectionStateEv
__ZNK7WebCore11RenderTheme18isControlContainerENS_11ControlPartE
__ZNK7WebCore11RenderBlock24getBaselineOfLastLineBoxEv
__ZN7WebCore15AutoTableLayout14insertSpanCellEPNS_15RenderTableCellE
__ZN3WTF6VectorIPN7WebCore15RenderTableCellELm4EE4growEm
__ZN3WTF6VectorIPN7WebCore15RenderTableCellELm4EE14expandCapacityEm
__ZN3WTF6VectorIPN7WebCore15RenderTableCellELm4EE15reserveCapacityEm
__ZN7WebCore17RenderTextControl14calcPrefWidthsEv
__ZNK7WebCore27RenderTextControlSingleLine21preferredContentWidthEf
__ZThn72_NK7WebCore16HTMLInputElement4sizeEv
__ZNK7WebCore16HTMLInputElement4sizeEv
__ZNK7WebCore4Node9renderBoxEv
__ZN7WebCore27RenderTextControlSingleLine6layoutEv
__ZN7WebCore17RenderTextControl10calcHeightEv
__ZN7WebCore27RenderTextControlSingleLine36adjustControlHeightBasedOnLineHeightEi
__ZNK7WebCore17RenderTextControl16innerTextElementEv
__ZNK7WebCore17RenderTextControl15textBlockHeightEv
__ZNK7WebCore27RenderTextControlSingleLine14textBlockWidthEv
__ZNK7WebCore17RenderTextControl14textBlockWidthEv
__ZNK7WebCore17RenderTextControl12avoidsFloatsEv
__ZNK7WebCore27RenderTextControlSingleLine14hasControlClipEv
__ZNK7WebCore17RenderThemeIPhone16baselinePositionEPKNS_12RenderObjectE
__ZN7WebCore9InlineBoxD0Ev
__ZN7WebCore17RenderFlexibleBox14calcPrefWidthsEv
__ZN7WebCore17RenderFlexibleBox24calcHorizontalPrefWidthsEv
__ZN7WebCore12RenderButton6layoutEv
__ZNK7WebCore12RenderButton14hasControlClipEv
__ZNK7WebCore18RenderTableSection17rightmostPositionEbb
__ZNK7WebCore9RenderBox17rightmostPositionEbb
__ZNK7WebCore18RenderTableSection14lowestPositionEbb
__ZNK7WebCore9RenderBox14lowestPositionEbb
__ZN7WebCoreL27includeNonBlocksOrListItemsEPKNS_12RenderObjectE
__ZN7WebCore8Document17addAutoSizingNodeEPNS_4NodeEf
__ZN7WebCore17TextAutoSizingKeyC1EPNS_11RenderStyleEPNS_8DocumentE
__ZN7WebCore17TextAutoSizingKeyC2EPNS_11RenderStyleEPNS_8DocumentE
__ZNK7WebCore17TextAutoSizingKey3refEv
__ZNK3WTF9HashTableIN7WebCore17TextAutoSizingKeyESt4pairIS2_NS_6RefPtrINS1_19TextAutoSizingValueEEEENS_18PairFirstExtractorIS7_EENS1_18TextAutoSizingHashENS_14PairHashTraitsINS1_20TextAutoSizingTraitsENS_10HashTraitsIS6_EEEESC_E8containsIS2_NS_22IdentityHashTranslatorIS2_S7_SA_EEEEbRKT_
__ZN3WTF7HashMapIN7WebCore17TextAutoSizingKeyENS_6RefPtrINS1_19TextAutoSizingValueEEENS1_18TextAutoSizingHashENS1_20TextAutoSizingTraitsENS_10HashTraitsIS5_EEE3setERKS2_RKS5_
__ZN3WTF9HashTableIN7WebCore17TextAutoSizingKeyESt4pairIS2_NS_6RefPtrINS1_19TextAutoSizingValueEEEENS_18PairFirstExtractorIS7_EENS1_18TextAutoSizingHashENS_14PairHashTraitsINS1_20TextAutoSizingTraitsENS_10HashTraitsIS6_EEEESC_E13allocateTableEi
__ZN3WTF9HashTableIN7WebCore17TextAutoSizingKeyESt4pairIS2_NS_6RefPtrINS1_19TextAutoSizingValueEEEENS_18PairFirstExtractorIS7_EENS1_18TextAutoSizingHashENS_14PairHashTraitsINS1_20TextAutoSizingTraitsENS_10HashTraitsIS6_EEEESC_E4findIS2_NS_22IdentityHashTranslatorIS2_S7_SA_EEEENS_17HashTableIteratorIS2_S7_S9_SA_SF_SC_EERKT_
__ZN3WTF9HashTableIN7WebCore17TextAutoSizingKeyESt4pairIS2_NS_6RefPtrINS1_19TextAutoSizingValueEEEENS_18PairFirstExtractorIS7_EENS1_18TextAutoSizingHashENS_14PairHashTraitsINS1_20TextAutoSizingTraitsENS_10HashTraitsIS6_EEEESC_E15deallocateTableEPS7_i
__ZN3WTF9HashTableIN7WebCore17TextAutoSizingKeyESt4pairIS2_NS_6RefPtrINS1_19TextAutoSizingValueEEEENS_18PairFirstExtractorIS7_EENS1_18TextAutoSizingHashENS_14PairHashTraitsINS1_20TextAutoSizingTraitsENS_10HashTraitsIS6_EEEESC_E6rehashEi
__ZN3WTF9HashTableIN7WebCore17TextAutoSizingKeyESt4pairIS2_NS_6RefPtrINS1_19TextAutoSizingValueEEEENS_18PairFirstExtractorIS7_EENS1_18TextAutoSizingHashENS_14PairHashTraitsINS1_20TextAutoSizingTraitsENS_10HashTraitsIS6_EEEESC_E6expandEv
__ZN3WTF9HashTableIN7WebCore17TextAutoSizingKeyESt4pairIS2_NS_6RefPtrINS1_19TextAutoSizingValueEEEENS_18PairFirstExtractorIS7_EENS1_18TextAutoSizingHashENS_14PairHashTraitsINS1_20TextAutoSizingTraitsENS_10HashTraitsIS6_EEEESC_E5clearEv
__ZN3WTF9HashTableIN7WebCore17TextAutoSizingKeyESt4pairIS2_NS_6RefPtrINS1_19TextAutoSizingValueEEEENS_18PairFirstExtractorIS7_EENS1_18TextAutoSizingHashENS_14PairHashTraitsINS1_20TextAutoSizingTraitsENS_10HashTraitsIS6_EEEESC_E6removeEPS7_
__ZN3WTF9HashTableIN7WebCore17TextAutoSizingKeyESt4pairIS2_NS_6RefPtrINS1_19TextAutoSizingValueEEEENS_18PairFirstExtractorIS7_EENS1_18TextAutoSizingHashENS_14PairHashTraitsINS1_20TextAutoSizingTraitsENS_10HashTraitsIS6_EEEESC_E47removeAndInvalidateWithoutEntryConsistencyCheckEPS7_
__ZNK7WebCore11RenderStyle21hashForTextAutosizingEv
__ZN7WebCore17TextAutoSizingKeyC1Ev
__ZN7WebCore17TextAutoSizingKeyC2Ev
__ZN7WebCore17TextAutoSizingKeyD1Ev
__ZN7WebCore17TextAutoSizingKeyD2Ev
__ZNK7WebCore17TextAutoSizingKey5derefEv
__ZN7WebCore17TextAutoSizingKeyaSERKS0_
__ZN7WebCore19TextAutoSizingValue7addNodeEPNS_4NodeEf
__ZN3WTF7HashSetINS_6RefPtrIN7WebCore4NodeEEENS_7PtrHashIS4_EENS_10HashTraitsIS4_EEE3addERKS4_
__ZN3WTF9HashTableINS_6RefPtrIN7WebCore4NodeEEES4_NS_17IdentityExtractorIS4_EENS_7PtrHashIS4_EENS_10HashTraitsIS4_EESA_E6expandEv
__ZN3WTF9HashTableINS_6RefPtrIN7WebCore4NodeEEES4_NS_17IdentityExtractorIS4_EENS_7PtrHashIS4_EENS_10HashTraitsIS4_EESA_E6rehashEi
__ZN3WTF9HashTableINS_6RefPtrIN7WebCore4NodeEEES4_NS_17IdentityExtractorIS4_EENS_7PtrHashIS4_EENS_10HashTraitsIS4_EESA_E13allocateTableEi
__ZN3WTF9HashTableINS_6RefPtrIN7WebCore4NodeEEES4_NS_17IdentityExtractorIS4_EENS_7PtrHashIS4_EENS_10HashTraitsIS4_EESA_E15deallocateTableEPS4_i
__ZNK7WebCore11RenderStyle22equalForTextAutosizingEPKS0_
__ZNK3WTF7HashMapIN7WebCore17TextAutoSizingKeyENS_6RefPtrINS1_19TextAutoSizingValueEEENS1_18TextAutoSizingHashENS1_20TextAutoSizingTraitsENS_10HashTraitsIS5_EEE3getERKS2_
__ZN7WebCore20TextAutoSizingTraits14isDeletedValueERKNS_17TextAutoSizingKeyE
__ZN3WTF9HashTableINS_6RefPtrIN7WebCore4NodeEEES4_NS_17IdentityExtractorIS4_EENS_7PtrHashIS4_EENS_10HashTraitsIS4_EESA_E4findIS4_NS_22IdentityHashTranslatorIS4_S4_S8_EEEENS_17HashTableIteratorIS4_S4_S6_S8_SA_SA_EERKT_
__ZN7WebCore17TextAutoSizingKeyC1ERKS0_
__ZN7WebCore17TextAutoSizingKeyC2ERKS0_
__ZN7WebCore19TextAutoSizingValue15adjustNodeSizesEv
__ZN7WebCore11RenderStyle5cloneEPKS0_
__ZN7WebCore11RenderStyleC1ERKS0_
__ZN7WebCore11RenderStyleC2ERKS0_
__ZNK7WebCore19TextAutoSizingValue8numNodesEv
__ZN7WebCore11RenderBlock37markAllDescendantsWithFloatsForLayoutEPNS_9RenderBoxEb
__ZNK7WebCore15RenderTableCell19mapLocalToContainerEPNS_9RenderBoxEbbRNS_14TransformStateE
__ZN7WebCore15BackForwardList7currentEv
__ZN7WebCore15BackForwardList8capacityEv
__ZN7WebCore5Frame11getPPTStatsERjS1_S1_RdS2_
__ZN7WebCore11RenderTable5paintERNS_12RenderObject9PaintInfoEii
__ZN7WebCore11RenderTable11paintObjectERNS_12RenderObject9PaintInfoEii
__ZN7WebCore11RenderTable19paintBoxDecorationsERNS_12RenderObject9PaintInfoEii
__ZN7WebCore18RenderTableSection5paintERNS_12RenderObject9PaintInfoEii
__ZN7WebCore18RenderTableSection11paintObjectERNS_12RenderObject9PaintInfoEii
__ZN7WebCore15RenderTableCell26paintBackgroundsBehindCellERNS_12RenderObject9PaintInfoEiiPS1_
__ZN7WebCore15RenderTableCell5paintERNS_12RenderObject9PaintInfoEii
__ZN7WebCore15RenderTableCell19paintBoxDecorationsERNS_12RenderObject9PaintInfoEii
__ZN7WebCore12RenderObject11paintBorderEPNS_15GraphicsContextEiiiiPKNS_11RenderStyleEbb
__ZN7WebCore12RenderObject19paintNinePieceImageEPNS_15GraphicsContextEiiiiPKNS_11RenderStyleERKNS_14NinePieceImageENS_17CompositeOperatorE
__ZN7WebCore12RenderObject10drawBorderEPNS_15GraphicsContextEiiiiNS0_10BorderSideENS_5ColorERKS4_NS_12EBorderStyleEii
__ZN7WebCore15GraphicsContext14setStrokeStyleERKNS_11StrokeStyleE
__ZN7WebCore15GraphicsContext17drawConvexPolygonEmPKNS_10FloatPointEb
__ZNK7WebCore15GraphicsContext15shouldAntialiasEv
__ZN7WebCore15GraphicsContext8drawPathEv
__ZNK7WebCore5Color4darkEv
__ZN7WebCore9InlineBox5paintERNS_12RenderObject9PaintInfoEii
__ZN7WebCore14RenderReplaced5paintERNS_12RenderObject9PaintInfoEii
__ZN7WebCore14RenderReplaced11shouldPaintERNS_12RenderObject9PaintInfoERiS4_
__ZNK7WebCore14RenderReplaced10isSelectedEv
__ZN7WebCore11RenderImage13paintReplacedERNS_12RenderObject9PaintInfoEii
__ZN7WebCore11RenderImage5imageEii
__ZN7WebCore24RenderImageScaleObserver28shouldImagePaintAtLowQualityEPNS_11RenderImageERKNS_7IntSizeE
__ZNK7WebCore11BitmapImage13isBitmapImageEv
__ZN7WebCore11ImageSource20frameDurationAtIndexEm
__ZN7WebCore13InlineTextBox15paintDecorationEPNS_15GraphicsContextEiiiPNS_10ShadowDataE
__ZN7WebCore12RenderObject23getTextDecorationColorsEiRNS_5ColorES2_S2_b
__ZN7WebCoreL15decorationColorEPNS_11RenderStyleE
__ZN7WebCore11RenderTheme5paintEPNS_12RenderObjectERKNS1_9PaintInfoERKNS_7IntRectE
__ZNK7WebCore15GraphicsContext20updatingControlTintsEv
__ZN7WebCore15GraphicsContext18addRoundedRectClipERKNS_7IntRectERKNS_7IntSizeES6_S6_S6_
__ZN7WebCore4Path22createRoundedRectangleERKNS_9FloatRectERKNS_9FloatSizeES6_S6_S6_
__ZN7WebCore4PathC1Ev
__ZN7WebCore4PathC2Ev
__ZN7WebCore4Path6moveToERKNS_10FloatPointE
__ZN7WebCore4Path9addLineToERKNS_10FloatPointE
__ZN7WebCore4Path16addBezierCurveToERKNS_10FloatPointES3_S3_
__ZN7WebCore4Path12closeSubpathEv
__ZN7WebCore4PathC1ERKS0_
__ZN7WebCore4PathC2ERKS0_
__ZN7WebCore4PathD1Ev
__ZN7WebCore4PathD2Ev
__ZN7WebCore15GraphicsContext4clipERKNS_4PathE
__ZN7WebCore11RenderTheme16paintDecorationsEPNS_12RenderObjectERKNS1_9PaintInfoERKNS_7IntRectE
__ZN7WebCore17RenderThemeIPhone30paintMenuListButtonDecorationsEPNS_12RenderObjectERKNS1_9PaintInfoERKNS_7IntRectE
__ZN7WebCore15GraphicsContext18addRoundedRectClipERKNS_9FloatRectERKNS_9FloatSizeES6_S6_S6_
__ZNK7WebCore17RenderThemeIPhone16gradientWithNameENS0_18IPhoneGradientNameE
__ZN7WebCore15GraphicsContext17drawAxialGradientEPNS_14IPhoneGradientENS_10FloatPointES3_NS_13InterpolationE
__ZN7WebCoreL19GetSharedColorSpaceEv
__ZNK7WebCore10FloatPointcv7CGPointEv
__ZN7WebCoreL20GetSharedFunctionRefEPNS_14IPhoneGradientENS_13InterpolationE
__ZN3WTF7HashMapIPN7WebCore14IPhoneGradientEP10CGFunctionNS_7PtrHashIS3_EENS_10HashTraitsIS3_EENS8_IS5_EEE3setERKS3_RKS5_
__ZN3WTF9HashTableIPN7WebCore14IPhoneGradientESt4pairIS3_P10CGFunctionENS_18PairFirstExtractorIS7_EENS_7PtrHashIS3_EENS_14PairHashTraitsINS_10HashTraitsIS3_EENSD_IS6_EEEESE_E13allocateTableEi
__ZN3WTF9HashTableIPN7WebCore14IPhoneGradientESt4pairIS3_P10CGFunctionENS_18PairFirstExtractorIS7_EENS_7PtrHashIS3_EENS_14PairHashTraitsINS_10HashTraitsIS3_EENSD_IS6_EEEESE_E15deallocateTableEPS7_i
__ZN3WTF9HashTableIPN7WebCore14IPhoneGradientESt4pairIS3_P10CGFunctionENS_18PairFirstExtractorIS7_EENS_7PtrHashIS3_EENS_14PairHashTraitsINS_10HashTraitsIS3_EENSD_IS6_EEEESE_E6rehashEi
__ZN3WTF9HashTableIPN7WebCore14IPhoneGradientESt4pairIS3_P10CGFunctionENS_18PairFirstExtractorIS7_EENS_7PtrHashIS3_EENS_14PairHashTraitsINS_10HashTraitsIS3_EENSD_IS6_EEEESE_E6expandEv
__ZN3WTF9HashTableIPN7WebCore14IPhoneGradientESt4pairIS3_P10CGFunctionENS_18PairFirstExtractorIS7_EENS_7PtrHashIS3_EENS_14PairHashTraitsINS_10HashTraitsIS3_EENSD_IS6_EEEESE_E4findIS3_NS_22IdentityHashTranslatorIS3_S7_SB_EEEENS_17HashTableIteratorIS3_S7_S9_SB_SG_SE_EERKT_
__ZN7WebCoreL25InterpolateLinearGradientEPvPKfPf
__ZN7WebCoreL30InterpolateExponentialGradientEPvPKfPf
__ZN7WebCore15GraphicsContext8drawRectERKNS_7IntRectE
__ZNK7WebCore15GraphicsContext11strokeStyleEv
__ZNK7WebCore11RenderTheme9isFocusedEPKNS_12RenderObjectE
__ZNK3WTF7HashMapIPN7WebCore14IPhoneGradientEP10CGFunctionNS_7PtrHashIS3_EENS_10HashTraitsIS3_EENS8_IS5_EEE3getERKS3_
__ZN7WebCore20makeRGBA32FromFloatsEffff
__ZN7WebCoreL20colorFloatToRGBAByteEf
__ZN7WebCore15GraphicsContext17drawRaisedEllipseERKNS_9FloatRectENS_5ColorES4_
__ZN7WebCore15GraphicsContext11drawEllipseERKNS_9FloatRectE
__ZNK7WebCore15GraphicsContext15strokeThicknessEv
__ZN7WebCore11RenderTheme15paintBorderOnlyEPNS_12RenderObjectERKNS1_9PaintInfoERKNS_7IntRectE
__ZN7WebCore15GraphicsContext23addInnerRoundedRectClipERKNS_7IntRectEi
__ZN7WebCore12RenderObject13drawBorderArcEPNS_15GraphicsContextEiifNS_7IntSizeEiiNS0_10BorderSideENS_5ColorERKS5_NS_12EBorderStyleEb
__ZN7WebCore15GraphicsContext9strokeArcERKNS_7IntRectEii
__ZNK7WebCore14RenderMenuList15controlClipRectEii
__ZN7WebCore27RenderTextControlSingleLine5paintERNS_12RenderObject9PaintInfoEii
__ZN7WebCore17RenderThemeIPhone25paintTextFieldDecorationsEPNS_12RenderObjectERKNS1_9PaintInfoERKNS_7IntRectE
__ZN7WebCore11RenderTheme13paintCheckboxEPNS_12RenderObjectERKNS1_9PaintInfoERKNS_7IntRectE
__ZN7WebCore17RenderThemeIPhone24paintCheckboxDecorationsEPNS_12RenderObjectERKNS1_9PaintInfoERKNS_7IntRectE
__ZN7WebCore17RenderThemeIPhone20addRoundedBorderClipERKNS_9FloatRectERKNS_10BorderDataEPNS_15GraphicsContextE
__ZNK7WebCore11RenderTheme9isCheckedEPKNS_12RenderObjectE
__ZN7WebCoreL9shortenedE7CGPointS0_f
__ZN7WebCore15GraphicsContext15drawJoinedLinesEP7CGPointjb9CGLineCap
__ZN7WebCore15GraphicsContext18drawRadialGradientEPNS_14IPhoneGradientENS_10FloatPointEfS3_fNS_13InterpolationE
__ZN7WebCore11RenderTheme11paintButtonEPNS_12RenderObjectERKNS1_9PaintInfoERKNS_7IntRectE
__ZN7WebCore17RenderThemeIPhone26paintPushButtonDecorationsEPNS_12RenderObjectERKNS1_9PaintInfoERKNS_7IntRectE
__ZNK7WebCore5Color6isDarkEv
__ZNK7WebCore12RenderButton15controlClipRectEii
__ZN7WebCore11RenderTheme10paintRadioEPNS_12RenderObjectERKNS1_9PaintInfoERKNS_7IntRectE
__ZN7WebCore17RenderThemeIPhone21paintRadioDecorationsEPNS_12RenderObjectERKNS1_9PaintInfoERKNS_7IntRectE
__ZNK7WebCore17RenderThemeIPhone11shadowColorEv
-[WAKWindow layoutTilesNow]
__ZN7WebCore12TiledSurface14layoutTilesNowEv
__ZNK7WebCore11HistoryItem3urlEv
__ZNK7WebCore11HistoryItem11originalURLEv
__ZNK7WebCore11HistoryItem20getTransientPropertyERKNS_6StringE
__ZNK7WebCore11FrameLoader21isQuickRedirectComingEv
__ZN7WebCore22ScriptExecutionContext26canSuspendActiveDOMObjectsEv
__ZN7WebCore11FrameLoader23cachePageForHistoryItemEPNS_11HistoryItemE
__ZN7WebCore10CachedPage6createEPNS_4PageE
__ZN7WebCore10CachedPageC1EPNS_4PageE
__ZN7WebCore10CachedPageC2EPNS_4PageE
__ZN7WebCore11CachedFrameC1EPNS_5FrameE
__ZN7WebCore11CachedFrameC2EPNS_5FrameE
__ZNK7WebCore12EventHandler14mousePressNodeEv
__ZN7WebCore21ScriptCachedFrameDataC1EPNS_5FrameE
__ZN7WebCore21ScriptCachedFrameDataC2EPNS_5FrameE
__ZN7WebCore8Document14setInPageCacheEb
__ZN7WebCore11CachedFrame26setCachedFramePlatformDataEPNS_23CachedFramePlatformDataE
__ZN7WebCore9PageCache3addEN3WTF10PassRefPtrINS_11HistoryItemEEENS2_INS_10CachedPageEEE
__ZN7WebCore9PageCache12addToLRUListEPNS_11HistoryItemE
__ZNK7WebCore8Document17formElementsStateEv
__ZThn68_NK7WebCore17HTMLSelectElement9saveStateERNS_6StringE
__ZNK7WebCore17HTMLSelectElement9saveStateERNS_6StringE
__ZN3WTF6VectorIcLm1024EE6shrinkEm
__ZThn68_N7WebCore31HTMLFormControlElementWithState20toFormControlElementEv
__ZN7WebCore31HTMLFormControlElementWithState20toFormControlElementEv
__ZThn56_NK7WebCore22HTMLFormControlElement4nameEv
__ZThn56_NK7WebCore17HTMLSelectElement4typeEv
__ZNK7WebCore17HTMLSelectElement4typeEv
__ZThn68_NK7WebCore16HTMLInputElement9saveStateERNS_6StringE
__ZNK7WebCore16HTMLInputElement9saveStateERNS_6StringE
__ZNK7WebCore16HTMLInputElement12autoCompleteEv
__ZThn56_NK7WebCore16HTMLInputElement4nameEv
__ZThn56_NK7WebCore16HTMLInputElement4typeEv
__ZNK7WebCore16HTMLInputElement4typeEv
__ZN7WebCore11HistoryItem16setDocumentStateERKN3WTF6VectorINS_6StringELm0EEE
__ZN7WebCore11HistoryItem14setScrollPointERKNS_8IntPointE
__ZN7WebCore14ScrollbarTheme11nativeThemeEv
__ZN7WebCore20ScrollbarThemeIPhoneC1Ev
__ZN7WebCore20ScrollbarThemeIPhoneC2Ev
__ZN7WebCore20ScrollbarThemeIPhone18scrollbarThicknessENS_20ScrollbarControlSizeE
__ZN7WebCore10ScrollView34platformHandleHorizontalAdjustmentERKNS_7IntSizeE
__ZN7WebCore10ScrollView32platformHandleVerticalAdjustmentERKNS_7IntSizeE
__ZN7WebCore5Frame14clearDOMWindowEv
__ZN3WTF7HashSetIPN7WebCore9DOMWindowENS_7PtrHashIS3_EENS_10HashTraitsIS3_EEE3addERKS3_
__ZN3WTF9HashTableIPN7WebCore9DOMWindowES3_NS_17IdentityExtractorIS3_EENS_7PtrHashIS3_EENS_10HashTraitsIS3_EES9_E6expandEv
__ZN3WTF9HashTableIPN7WebCore9DOMWindowES3_NS_17IdentityExtractorIS3_EENS_7PtrHashIS3_EENS_10HashTraitsIS3_EES9_E6rehashEi
__ZN3WTF9HashTableIPN7WebCore9DOMWindowES3_NS_17IdentityExtractorIS3_EENS_7PtrHashIS3_EENS_10HashTraitsIS3_EES9_E13allocateTableEi
__ZN7WebCore7Console15disconnectFrameEv
__ZN7WebCore5Frame20clearFormerDOMWindowEPNS_9DOMWindowE
__ZN3WTF9HashTableIPN7WebCore9DOMWindowES3_NS_17IdentityExtractorIS3_EENS_7PtrHashIS3_EENS_10HashTraitsIS3_EES9_E4findIS3_NS_22IdentityHashTranslatorIS3_S3_S7_EEEENS_17HashTableIteratorIS3_S3_S5_S7_S9_S9_EERKT_
__ZN3WTF9HashTableIPN7WebCore9DOMWindowES3_NS_17IdentityExtractorIS3_EENS_7PtrHashIS3_EENS_10HashTraitsIS3_EES9_E47removeAndInvalidateWithoutEntryConsistencyCheckEPS3_
__ZN3WTF9HashTableIPN7WebCore9DOMWindowES3_NS_17IdentityExtractorIS3_EENS_7PtrHashIS3_EENS_10HashTraitsIS3_EES9_E6removeEPS3_
__ZN7WebCoreL17scriptConstructorERKNS_13QualifiedNameEPNS_8DocumentEPNS_15HTMLFormElementEb
__ZN7WebCore17HTMLScriptElementC1ERKNS_13QualifiedNameEPNS_8DocumentEb
__ZN7WebCore17HTMLScriptElementC2ERKNS_13QualifiedNameEPNS_8DocumentEb
__ZN7WebCore17ScriptElementDataC1EPNS_13ScriptElementEPNS_7ElementE
__ZN7WebCore17ScriptElementDataC2EPNS_13ScriptElementEPNS_7ElementE
__ZN7WebCore17HTMLScriptElement20parseMappedAttributeEPNS_15MappedAttributeE
__ZNK7WebCore17HTMLScriptElement17endTagRequirementEv
__ZNK7WebCore17HTMLScriptElement11tagPriorityEv
__ZN7WebCore17HTMLScriptElement20insertedIntoDocumentEv
__ZNK7WebCore17HTMLScriptElement20sourceAttributeValueEv
__ZN7WebCore13ScriptElement20insertedIntoDocumentERNS_17ScriptElementDataERKNS_6StringE
__ZNK7WebCore17HTMLScriptElement13scriptCharsetEv
__ZNK7WebCore17ScriptElementData13scriptCharsetEv
__ZThn56_NK7WebCore17HTMLScriptElement21charsetAttributeValueEv
__ZNK7WebCore17HTMLScriptElement21charsetAttributeValueEv
__ZN7WebCore13HTMLTokenizer13scriptHandlerENS0_5StateE
__ZNK7WebCore17HTMLScriptElement25shouldExecuteAsJavaScriptEv
__ZNK7WebCore17ScriptElementData25shouldExecuteAsJavaScriptEv
__ZThn56_NK7WebCore17HTMLScriptElement18typeAttributeValueEv
__ZNK7WebCore17HTMLScriptElement18typeAttributeValueEv
__ZThn56_NK7WebCore17HTMLScriptElement22languageAttributeValueEv
__ZNK7WebCore17HTMLScriptElement22languageAttributeValueEv
__ZN7WebCoreL29isSupportedJavaScriptLanguageERKNS_6StringE
__ZN7WebCore10HTMLParser20textCreateErrorCheckEPNS_5TokenERN3WTF6RefPtrINS_4NodeEEE
__ZN7WebCore17HTMLScriptElement8checkDTDEPKNS_4NodeE
__ZN7WebCore17HTMLScriptElement15childrenChangedEbPNS_4NodeES2_i
__ZN7WebCore13ScriptElement15childrenChangedERNS_17ScriptElementDataE
__ZN7WebCore17HTMLScriptElement21finishParsingChildrenEv
__ZN7WebCore13ScriptElement21finishParsingChildrenERNS_17ScriptElementDataERKNS_6StringE
__ZNK7WebCore17ScriptElementData13scriptContentEv
__ZN7WebCore15SegmentedString7prependERKS0_
__ZN7WebCore15SegmentedString7prependERKNS_18SegmentedSubstringE
__ZNK7WebCore6StringcvN3JSC7UStringEEv
__ZNK7WebCore20StringSourceProvider6lengthEv
__ZN7WebCore13HTMLTokenizer15scriptExecutionERKNS_16ScriptSourceCodeENS0_5StateE
__ZN7WebCore11FrameLoader13executeScriptERKNS_16ScriptSourceCodeE
__ZN7WebCore16ScriptController8evaluateERKNS_16ScriptSourceCodeE
__ZN7WebCore16ScriptController10initScriptEv
__ZN7WebCore16JSDOMWindowShellnwEm
__ZN7WebCore15JSDOMWindowBase18commonJSGlobalDataEv
__ZN7WebCore16JSDOMWindowShellC1EN3WTF10PassRefPtrINS_9DOMWindowEEE
__ZN7WebCore16JSDOMWindowShellC2EN3WTF10PassRefPtrINS_9DOMWindowEEE
__ZN7WebCore16JSDOMWindowShell9setWindowEN3WTF10PassRefPtrINS_9DOMWindowEEE
__ZN7WebCore20JSDOMWindowPrototypenwEm
__ZN7WebCore11JSDOMWindowC1EN3WTF10PassRefPtrIN3JSC9StructureEEENS2_INS_9DOMWindowEEEPNS_16JSDOMWindowShellE
__ZN7WebCore11JSDOMWindowC2EN3WTF10PassRefPtrIN3JSC9StructureEEENS2_INS_9DOMWindowEEEPNS_16JSDOMWindowShellE
__ZN7WebCore15JSDOMWindowBaseC2EN3WTF10PassRefPtrIN3JSC9StructureEEENS2_INS_9DOMWindowEEEPNS_16JSDOMWindowShellE
__ZN7WebCore15JSDOMWindowBase19JSDOMWindowBaseDataC1EN3WTF10PassRefPtrINS_9DOMWindowEEEPNS_16JSDOMWindowShellE
__ZN7WebCore15JSDOMWindowBase19JSDOMWindowBaseDataC2EN3WTF10PassRefPtrINS_9DOMWindowEEEPNS_16JSDOMWindowShellE
__ZN7WebCore17JSDOMGlobalObject21JSDOMGlobalObjectDataC2Ev
__ZN7WebCore17JSDOMGlobalObjectC2EN3WTF10PassRefPtrIN3JSC9StructureEEEPNS0_21JSDOMGlobalObjectDataEPNS3_8JSObjectE
__ZN7WebCore15JSDOMWindowBase10globalExecEv
__ZN7WebCore5Frame9keepAliveEv
__ZN3WTF7HashMapINS_6RefPtrIN3JSC7UString3RepEEENS2_16SymbolTableEntryENS2_17IdentifierRepHashENS_10HashTraitsIS5_EENS2_26SymbolTableIndexHashTraitsEE3addEPS4_RKS6_
__ZN7WebCore15JSDOMWindowBase14updateDocumentEv
__ZNK7WebCore9DOMWindow8documentEv
__ZN7WebCore4toJSEPN3JSC9ExecStateEPNS_8DocumentE
__ZN7WebCore25getCachedDOMObjectWrapperERN3JSC12JSGlobalDataEPv
__ZNK3WTF7HashMapIPvPN7WebCore9DOMObjectENS_7PtrHashIS1_EENS_10HashTraitsIS1_EENS7_IS4_EEE3getERKS1_
__ZN7WebCore21getCachedDOMStructureEPN3JSC9ExecStateEPKNS0_9ClassInfoE
__ZNK3WTF7HashMapIPKN3JSC9ClassInfoENS_6RefPtrINS1_9StructureEEENS_7PtrHashIS4_EENS_10HashTraitsIS4_EENSA_IS7_EEE3getERKS4_
__ZN7WebCore14JSHTMLDocument15createPrototypeEPN3JSC9ExecStateE
__ZN7WebCore19JSDocumentPrototype4selfEPN3JSC9ExecStateE
__ZN7WebCore10JSDocument15createPrototypeEPN3JSC9ExecStateE
__ZN7WebCore26JSEventTargetNodePrototype4selfEPN3JSC9ExecStateE
__ZN7WebCore17JSEventTargetNode15createPrototypeEPN3JSC9ExecStateE
__ZN7WebCore15JSNodePrototype4selfEPN3JSC9ExecStateE
__ZN7WebCore6JSNode15createPrototypeEPN3JSC9ExecStateE
__ZN7WebCore17cacheDOMStructureEPN3JSC9ExecStateEN3WTF10PassRefPtrINS0_9StructureEEEPKNS0_9ClassInfoE
__ZN3WTF7HashMapIPKN3JSC9ClassInfoENS_6RefPtrINS1_9StructureEEENS_7PtrHashIS4_EENS_10HashTraitsIS4_EENSA_IS7_EEE3setERKS4_RKS7_
__ZN3WTF9HashTableIPKN3JSC9ClassInfoESt4pairIS4_NS_6RefPtrINS1_9StructureEEEENS_18PairFirstExtractorIS9_EENS_7PtrHashIS4_EENS_14PairHashTraitsINS_10HashTraitsIS4_EENSF_IS8_EEEESG_E13allocateTableEi
__ZN3WTF9HashTableIPKN3JSC9ClassInfoESt4pairIS4_NS_6RefPtrINS1_9StructureEEEENS_18PairFirstExtractorIS9_EENS_7PtrHashIS4_EENS_14PairHashTraitsINS_10HashTraitsIS4_EENSF_IS8_EEEESG_E4findIS4_NS_22IdentityHashTranslatorIS4_S9_SD_EEEENS_17HashTableIteratorIS4_S9_SB_SD_SI_SG_EERKT_
__ZN3WTF9HashTableIPKN3JSC9ClassInfoESt4pairIS4_NS_6RefPtrINS1_9StructureEEEENS_18PairFirstExtractorIS9_EENS_7PtrHashIS4_EENS_14PairHashTraitsINS_10HashTraitsIS4_EENSF_IS8_EEEESG_E15deallocateTableEPS9_i
__ZN3WTF9HashTableIPKN3JSC9ClassInfoESt4pairIS4_NS_6RefPtrINS1_9StructureEEEENS_18PairFirstExtractorIS9_EENS_7PtrHashIS4_EENS_14PairHashTraitsINS_10HashTraitsIS4_EENSF_IS8_EEEESG_E6rehashEi
__ZN3WTF9HashTableIPKN3JSC9ClassInfoESt4pairIS4_NS_6RefPtrINS1_9StructureEEEENS_18PairFirstExtractorIS9_EENS_7PtrHashIS4_EENS_14PairHashTraitsINS_10HashTraitsIS4_EENSF_IS8_EEEESG_E6expandEv
__ZN7WebCore14JSHTMLDocumentC1EN3WTF10PassRefPtrIN3JSC9StructureEEENS2_INS_12HTMLDocumentEEE
__ZN7WebCore14JSHTMLDocumentC2EN3WTF10PassRefPtrIN3JSC9StructureEEENS2_INS_12HTMLDocumentEEE
__ZN7WebCore10JSDocumentC2EN3WTF10PassRefPtrIN3JSC9StructureEEENS2_INS_8DocumentEEE
__ZN7WebCore17JSEventTargetNodeC2EN3WTF10PassRefPtrIN3JSC9StructureEEENS2_INS_15EventTargetNodeEEE
__ZN7WebCore6JSNodeC2EN3WTF10PassRefPtrIN3JSC9StructureEEENS2_INS_4NodeEEE
__ZN7WebCore21cacheDOMObjectWrapperERN3JSC12JSGlobalDataEPvPNS_9DOMObjectE
__ZN3WTF7HashMapIPvPN7WebCore9DOMObjectENS_7PtrHashIS1_EENS_10HashTraitsIS1_EENS7_IS4_EEE3setERKS1_RKS4_
__ZN3WTF9HashTableIPvSt4pairIS1_PN7WebCore9DOMObjectEENS_18PairFirstExtractorIS6_EENS_7PtrHashIS1_EENS_14PairHashTraitsINS_10HashTraitsIS1_EENSC_IS5_EEEESD_E15deallocateTableEPS6_i
__ZN3WTF9HashTableIPvSt4pairIS1_PN7WebCore9DOMObjectEENS_18PairFirstExtractorIS6_EENS_7PtrHashIS1_EENS_14PairHashTraitsINS_10HashTraitsIS1_EENSC_IS5_EEEESD_E13allocateTableEi
__ZN3WTF9HashTableIPvSt4pairIS1_PN7WebCore9DOMObjectEENS_18PairFirstExtractorIS6_EENS_7PtrHashIS1_EENS_14PairHashTraitsINS_10HashTraitsIS1_EENSC_IS5_EEEESD_E6rehashEi
__ZN3WTF9HashTableIPvSt4pairIS1_PN7WebCore9DOMObjectEENS_18PairFirstExtractorIS6_EENS_7PtrHashIS1_EENS_14PairHashTraitsINS_10HashTraitsIS1_EENSC_IS5_EEEESD_E6removeEPS6_
__ZN3WTF9HashTableIPvSt4pairIS1_PN7WebCore9DOMObjectEENS_18PairFirstExtractorIS6_EENS_7PtrHashIS1_EENS_14PairHashTraitsINS_10HashTraitsIS1_EENSC_IS5_EEEESD_E47removeAndInvalidateWithoutEntryConsistencyCheckEPS6_
__ZN3WTF9HashTableIPvSt4pairIS1_PN7WebCore9DOMObjectEENS_18PairFirstExtractorIS6_EENS_7PtrHashIS1_EENS_14PairHashTraitsINS_10HashTraitsIS1_EENSC_IS5_EEEESD_E6expandEv
__ZN3WTF9HashTableIPvSt4pairIS1_PN7WebCore9DOMObjectEENS_18PairFirstExtractorIS6_EENS_7PtrHashIS1_EENS_14PairHashTraitsINS_10HashTraitsIS1_EENSC_IS5_EEEESD_E4findIS1_NS_22IdentityHashTranslatorIS1_S6_SA_EEEENS_17HashTableIteratorIS1_S6_S8_SA_SF_SD_EERKT_
__ZN7WebCore16ScriptController14attachDebuggerEPN3JSC8DebuggerE
__ZN7WebCore16ScriptController18windowScriptObjectEv
__ZN7WebCore16ScriptController17bindingRootObjectEv
__ZN3JSC8Bindings10RootObject6createEPKvPNS_14JSGlobalObjectE
__ZN3JSC8Bindings10RootObjectC1EPKvPNS_14JSGlobalObjectE
__ZN3JSC8Bindings10RootObjectC2EPKvPNS_14JSGlobalObjectE
__ZN3JSC8BindingsL13rootObjectSetEv
__ZN3WTF7HashSetIPN3JSC8Bindings10RootObjectENS_7PtrHashIS4_EENS_10HashTraitsIS4_EEE3addERKS4_
__ZN3WTF9HashTableIPN3JSC8Bindings10RootObjectES4_NS_17IdentityExtractorIS4_EENS_7PtrHashIS4_EENS_10HashTraitsIS4_EESA_E6expandEv
__ZN3WTF9HashTableIPN3JSC8Bindings10RootObjectES4_NS_17IdentityExtractorIS4_EENS_7PtrHashIS4_EENS_10HashTraitsIS4_EESA_E6rehashEi
__ZN3WTF9HashTableIPN3JSC8Bindings10RootObjectES4_NS_17IdentityExtractorIS4_EENS_7PtrHashIS4_EENS_10HashTraitsIS4_EESA_E13allocateTableEi
__ZN3WTF9HashTableIPN3JSC8Bindings10RootObjectES4_NS_17IdentityExtractorIS4_EENS_7PtrHashIS4_EENS_10HashTraitsIS4_EESA_E15deallocateTableEPS4_i
+[WebScriptObject scriptObjectForJSObject:originRootObject:rootObject:]
__ZN7WebCore16createDOMWrapperEPN3JSC8JSObjectEN3WTF10PassRefPtrINS0_8Bindings10RootObjectEEES7_
__ZNK7WebCore16JSDOMWindowShell9classInfoEv
__ZNK7WebCore16JSDOMWindowShell4implEv
+[DOMAbstractView(WebCoreInternal) _wrapAbstractView:]
-[DOMAbstractView(WebCoreInternal) _initWithFrame:]
-[WebScriptObject _hasImp]
-[WebScriptObject _setImp:originRootObject:rootObject:]
__ZN7WebCore12addJSWrapperEP8NSObjectPN3JSC8JSObjectE
__ZN3JSC8Bindings10RootObject9gcProtectEPNS_8JSObjectE
__ZNK3WTF9HashTableIPN3JSC8JSObjectESt4pairIS3_jENS_18PairFirstExtractorIS5_EENS_7PtrHashIS3_EENS_14PairHashTraitsINS_10HashTraitsIS3_EENSB_IjEEEESC_E8containsIS3_NS_22IdentityHashTranslatorIS3_S5_S9_EEEEbRKT_
__ZN3WTF7HashMapIPN3JSC8JSObjectEjNS_7PtrHashIS3_EENS_10HashTraitsIS3_EENS6_IjEEE3addERKS3_RKj
__ZN3WTF9HashTableIPN3JSC8JSObjectESt4pairIS3_jENS_18PairFirstExtractorIS5_EENS_7PtrHashIS3_EENS_14PairHashTraitsINS_10HashTraitsIS3_EENSB_IjEEEESC_E15deallocateTableEPS5_i
__ZN3WTF9HashTableIPN3JSC8JSObjectESt4pairIS3_jENS_18PairFirstExtractorIS5_EENS_7PtrHashIS3_EENS_14PairHashTraitsINS_10HashTraitsIS3_EENSB_IjEEEESC_E5clearEv
__ZN3WTF9HashTableIPN3JSC8JSObjectESt4pairIS3_jENS_18PairFirstExtractorIS5_EENS_7PtrHashIS3_EENS_14PairHashTraitsINS_10HashTraitsIS3_EENSB_IjEEEESC_E13allocateTableEi
__ZN3WTF9HashTableIPN3JSC8JSObjectESt4pairIS3_jENS_18PairFirstExtractorIS5_EENS_7PtrHashIS3_EENS_14PairHashTraitsINS_10HashTraitsIS3_EENSB_IjEEEESC_E6rehashEi
__ZN3WTF9HashTableIPN3JSC8JSObjectESt4pairIS3_jENS_18PairFirstExtractorIS5_EENS_7PtrHashIS3_EENS_14PairHashTraitsINS_10HashTraitsIS3_EENSB_IjEEEESC_E6removeEPS5_
__ZN3WTF9HashTableIPN3JSC8JSObjectESt4pairIS3_jENS_18PairFirstExtractorIS5_EENS_7PtrHashIS3_EENS_14PairHashTraitsINS_10HashTraitsIS3_EENSB_IjEEEESC_E47removeAndInvalidateWithoutEntryConsistencyCheckEPS5_
__ZN3WTF9HashTableIPN3JSC8JSObjectESt4pairIS3_jENS_18PairFirstExtractorIS5_EENS_7PtrHashIS3_EENS_14PairHashTraitsINS_10HashTraitsIS3_EENSB_IjEEEESC_E6expandEv
__ZN3WTF9HashTableIPN3JSC8JSObjectESt4pairIS3_jENS_18PairFirstExtractorIS5_EENS_7PtrHashIS3_EENS_14PairHashTraitsINS_10HashTraitsIS3_EENSB_IjEEEESC_E4findIS3_NS_22IdentityHashTranslatorIS3_S5_S9_EEEENS_17HashTableIteratorIS3_S5_S7_S9_SE_SC_EERKT_
-[WebScriptObject setValue:forKey:]
-[WebScriptObject _isSafeScript]
-[WebScriptObject _rootObject]
__ZNK3JSC8Bindings10RootObject12globalObjectEv
__ZNK7WebCore15JSDOMWindowBase16allowsAccessFromEPKN3JSC14JSGlobalObjectE
-[WebScriptObject _imp]
__ZN3JSC8Bindings23convertObjcValueToValueEPNS_9ExecStateEPvNS0_13ObjcValueTypeEPNS0_10RootObjectE
__ZN3JSC8Bindings17webUndefinedClassEv
__ZN3JSC8Bindings20webScriptObjectClassEv
__ZN3JSC8Bindings12ObjcInstanceC1EP11objc_objectN3WTF10PassRefPtrINS0_10RootObjectEEE
__ZN3JSC8Bindings12ObjcInstanceC2EP11objc_objectN3WTF10PassRefPtrINS0_10RootObjectEEE
__ZN3JSC8Bindings8InstanceC2EN3WTF10PassRefPtrINS0_10RootObjectEEE
__ZN3JSC8Bindings8Instance19createRuntimeObjectEPNS_9ExecStateE
__ZN3JSC16RuntimeObjectImpC1EPNS_9ExecStateEN3WTF10PassRefPtrINS_8Bindings8InstanceEEE
__ZN3JSC16RuntimeObjectImpC2EPNS_9ExecStateEN3WTF10PassRefPtrINS_8Bindings8InstanceEEE
__ZNK3JSC8Bindings8Instance10rootObjectEv
__ZN3JSC8Bindings10RootObject16addRuntimeObjectEPNS_16RuntimeObjectImpE
__ZN3WTF7HashSetIPN3JSC16RuntimeObjectImpENS_7PtrHashIS3_EENS_10HashTraitsIS3_EEE3addERKS3_
__ZN3WTF9HashTableIPN3JSC16RuntimeObjectImpES3_NS_17IdentityExtractorIS3_EENS_7PtrHashIS3_EENS_10HashTraitsIS3_EES9_E6expandEv
__ZN3WTF9HashTableIPN3JSC16RuntimeObjectImpES3_NS_17IdentityExtractorIS3_EENS_7PtrHashIS3_EENS_10HashTraitsIS3_EES9_E6rehashEi
__ZN3WTF9HashTableIPN3JSC16RuntimeObjectImpES3_NS_17IdentityExtractorIS3_EENS_7PtrHashIS3_EENS_10HashTraitsIS3_EES9_E13allocateTableEi
__ZN3WTF9HashTableIPN3JSC16RuntimeObjectImpES3_NS_17IdentityExtractorIS3_EENS_7PtrHashIS3_EENS_10HashTraitsIS3_EES9_E15deallocateTableEPS3_i
__ZN7WebCore16JSDOMWindowShell3putEPN3JSC9ExecStateERKNS1_10IdentifierENS1_10JSValuePtrERNS1_15PutPropertySlotE
__ZN7WebCore11JSDOMWindow3putEPN3JSC9ExecStateERKNS1_10IdentifierENS1_10JSValuePtrERNS1_15PutPropertySlotE
__ZN7WebCore15JSDOMWindowBase3putEPN3JSC9ExecStateERKNS1_10IdentifierENS1_10JSValuePtrERNS1_15PutPropertySlotE
__ZL11_didExecuteP15WebScriptObject
__ZN3JSC8Bindings8Instance18didExecuteFunctionEv
__ZN7WebCore6StringC1ERKN3JSC7UStringE
__ZN7WebCore6StringC2ERKN3JSC7UStringE
__ZNK7WebCore20StringSourceProvider4dataEv
__ZNK7WebCore15JSDOMWindowBase17supportsProfilingEv
__ZN7WebCore11JSDOMWindow18getOwnPropertySlotEPN3JSC9ExecStateERKNS1_10IdentifierERNS1_12PropertySlotE
__ZN7WebCore20jsDOMWindowNavigatorEPN3JSC9ExecStateERKNS0_10IdentifierERKNS0_12PropertySlotE
__ZNK7WebCore9DOMWindow9navigatorEv
__ZN7WebCore9NavigatorC1EPNS_5FrameE
__ZN7WebCore9NavigatorC2EPNS_5FrameE
__ZN7WebCore4toJSEPN3JSC9ExecStateEPNS_9NavigatorE
__ZN7WebCore11JSNavigator15createPrototypeEPN3JSC9ExecStateE
__ZN7WebCore11JSNavigatorC1EN3WTF10PassRefPtrIN3JSC9StructureEEENS2_INS_9NavigatorEEE
__ZN7WebCore11JSNavigatorC2EN3WTF10PassRefPtrIN3JSC9StructureEEENS2_INS_9NavigatorEEE
__ZN7WebCore11JSNavigator18getOwnPropertySlotEPN3JSC9ExecStateERKNS1_10IdentifierERNS1_12PropertySlotE
__ZN7WebCore18jsNavigatorAppNameEPN3JSC9ExecStateERKNS0_10IdentifierERKNS0_12PropertySlotE
__ZNK7WebCore13NavigatorBase7appNameEv
__ZN7WebCore19jsNavigatorPlatformEPN3JSC9ExecStateERKNS0_10IdentifierERKNS0_12PropertySlotE
__ZNK7WebCore13NavigatorBase8platformEv
__ZN7WebCore6StringC1EPK10__CFString
__ZN7WebCore6StringC2EPK10__CFString
__ZN7WebCore14JSHTMLDocument18getOwnPropertySlotEPN3JSC9ExecStateERKNS1_10IdentifierERNS1_12PropertySlotE
__ZN7WebCore14JSHTMLDocument18canGetItemsForNameEPN3JSC9ExecStateEPNS_12HTMLDocumentERKNS1_10IdentifierE
__ZN7WebCore12AtomicString4findERKN3JSC10IdentifierE
__ZN3WTF9HashTableIPN7WebCore10StringImplES3_NS_17IdentityExtractorIS3_EENS1_10StringHashENS_10HashTraitsIS3_EES8_E4findINS1_17HashAndCharactersENS_24HashSetTranslatorAdapterIS3_S8_SB_NS1_27HashAndCharactersTranslatorEEEEENS_17HashTableIteratorIS3_S3_S5_S6_S8_S8_EERKT_
__ZN7WebCore17JSEventTargetNode18getOwnPropertySlotEPN3JSC9ExecStateERKNS1_10IdentifierERNS1_12PropertySlotE
__ZN7WebCore23JSHTMLDocumentPrototype18getOwnPropertySlotEPN3JSC9ExecStateERKNS1_10IdentifierERNS1_12PropertySlotE
__ZN7WebCore36jsHTMLDocumentPrototypeFunctionWriteEPN3JSC9ExecStateEPNS0_8JSObjectENS0_10JSValuePtrERKNS0_7ArgListE
__ZNK3JSC6JSCell8isObjectEPKNS_9ClassInfoE
__ZNK7WebCore14JSHTMLDocument9classInfoEv
__ZN7WebCore14JSHTMLDocument5writeEPN3JSC9ExecStateERKNS1_7ArgListE
__ZN7WebCoreL11writeHelperEPN3JSC9ExecStateERKNS0_7ArgListE
__ZN7WebCore8Document5writeERKNS_6StringEPS0_
__ZN7WebCore15SegmentedString21setExcludeLineNumbersEv
__ZN7WebCoreL15linkConstructorERKNS_13QualifiedNameEPNS_8DocumentEPNS_15HTMLFormElementEb
__ZN7WebCore15HTMLLinkElementC1ERKNS_13QualifiedNameEPNS_8DocumentEb
__ZN7WebCore15HTMLLinkElementC2ERKNS_13QualifiedNameEPNS_8DocumentEb
__ZN7WebCore15HTMLLinkElement20parseMappedAttributeEPNS_15MappedAttributeE
__ZN7WebCore15HTMLLinkElement20tokenizeRelAttributeERKNS_12AtomicStringERbS4_S4_S4_
__ZN7WebCore15HTMLLinkElement7processEv
__ZNK7WebCore15HTMLLinkElement17endTagRequirementEv
__ZNK7WebCore15HTMLLinkElement11tagPriorityEv
__ZN7WebCore15HTMLLinkElement20insertedIntoDocumentEv
__ZN7WebCore8Document26addStyleSheetCandidateNodeEPNS_4NodeEb
__ZN3WTF11ListHashSetIPN7WebCore4NodeENS_7PtrHashIS3_EEE3addERKS3_
__ZN3WTF11ListHashSetIPN7WebCore4NodeENS_7PtrHashIS3_EEE10appendNodeEPNS_15ListHashSetNodeIS3_EE
__ZN7WebCore19MediaQueryEvaluatorC1Eb
__ZN7WebCore19MediaQueryEvaluatorC2Eb
__ZN7WebCore9MediaListC1EPNS_13CSSStyleSheetERKNS_6StringEb
__ZN7WebCore9MediaListC2EPNS_13CSSStyleSheetERKNS_6StringEb
__ZN7WebCore9MediaList12setMediaTextERKNS_6StringERi
__ZN7WebCore9MediaListC1EPNS_13CSSStyleSheetEb
__ZN7WebCore9MediaListC2EPNS_13CSSStyleSheetEb
__ZNK7WebCore6String5splitEtRN3WTF6VectorIS0_Lm0EEE
__ZNK7WebCore6String5splitERKS0_bRN3WTF6VectorIS0_Lm0EEE
__ZN3WTF15deleteAllValuesIPN7WebCore10MediaQueryELm0EEEvRKNS_6VectorIT_XT0_EEE
__ZN3WTF6VectorIPN7WebCore10MediaQueryELm0EEaSERKS4_
__ZN3WTF6VectorIPN7WebCore10MediaQueryELm0EE14shrinkCapacityEm
__ZN7WebCore9MediaList13notifyChangedEv
__ZN7WebCore9MediaListD0Ev
__ZNK7WebCore19MediaQueryEvaluator4evalEPKNS_9MediaListEPNS_16CSSStyleSelectorE
__ZN7WebCore9DocLoader20requestCSSStyleSheetERKNS_6StringES3_
__ZN7WebCore19CachedCSSStyleSheetC1ERKNS_6StringES3_
__ZN7WebCore19CachedCSSStyleSheetC2ERKNS_6StringES3_
__ZN7WebCore14CachedResource4loadEPNS_9DocLoaderE
__ZN7WebCore19CachedCSSStyleSheet9addClientEPNS_20CachedResourceClientE
__ZN7WebCore15HTMLLinkElement21finishParsingChildrenEv
__ZN7WebCore15SegmentedString6appendERKS0_
__ZN7WebCore15SegmentedString6appendERKNS_18SegmentedSubstringE
__ZN7WebCore20StringSourceProviderD0Ev
__ZN7WebCore18setJSDOMWindowNameEPN3JSC9ExecStateEPNS0_8JSObjectENS0_10JSValuePtrE
__ZNK7WebCore15JSDOMWindowBase16allowsAccessFromEPN3JSC9ExecStateE
__ZN7WebCore9DOMWindow7setNameERKNS_6StringE
__ZN7WebCore15JSDOMWindowBase18getOwnPropertySlotEPN3JSC9ExecStateERKNS1_10IdentifierERNS1_12PropertySlotE
__ZN7WebCore12AtomicString3addERKN3JSC10IdentifierE
__ZN3WTF7HashSetIPN7WebCore10StringImplENS1_10StringHashENS_10HashTraitsIS3_EEE3addINS1_17HashAndCharactersENS1_27HashAndCharactersTranslatorEEESt4pairINS_24HashTableIteratorAdapterINS_9HashTableIS3_S3_NS_17IdentityExtractorIS3_EES4_S6_S6_EES3_EEbERKT_
__ZNK7WebCore9FrameTree5childERKNS_12AtomicStringE
__ZN7WebCore20JSDOMWindowPrototype18getOwnPropertySlotEPN3JSC9ExecStateERKNS1_10IdentifierERNS1_12PropertySlotE
__ZN7WebCore15EventTargetNode41setInlineEventListenerForTypeAndAttributeERKNS_12AtomicStringEPNS_9AttributeE
__ZN7WebCore8Document19createEventListenerERKNS_6StringES3_PNS_4NodeE
__ZN7WebCore16ScriptController25createInlineEventListenerERKNS_6StringES3_PNS_4NodeE
__ZN7WebCore19JSLazyEventListenerC1ENS0_21LazyEventListenerTypeERKNS_6StringES4_PNS_17JSDOMGlobalObjectEPNS_4NodeEi
__ZN7WebCore19JSLazyEventListenerC2ENS0_21LazyEventListenerTypeERKNS_6StringES4_PNS_17JSDOMGlobalObjectEPNS_4NodeEi
__ZN7WebCore15JSEventListenerC2EPN3JSC8JSObjectEPNS_17JSDOMGlobalObjectEb
__ZN7WebCore15EventTargetNode29setInlineEventListenerForTypeERKNS_12AtomicStringEN3WTF10PassRefPtrINS_13EventListenerEEE
__ZN7WebCore15EventTargetNode32removeInlineEventListenerForTypeERKNS_12AtomicStringE
__ZN7WebCore8Document42registerDisconnectedNodeWithEventListenersEPNS_4NodeE
__ZN3WTF7HashSetIPN7WebCore4NodeENS_7PtrHashIS3_EENS_10HashTraitsIS3_EEE3addERKS3_
__ZN3WTF9HashTableIPN7WebCore4NodeES3_NS_17IdentityExtractorIS3_EENS_7PtrHashIS3_EENS_10HashTraitsIS3_EES9_E6expandEv
__ZN3WTF9HashTableIPN7WebCore4NodeES3_NS_17IdentityExtractorIS3_EENS_7PtrHashIS3_EENS_10HashTraitsIS3_EES9_E6rehashEi
__ZN3WTF9HashTableIPN7WebCore4NodeES3_NS_17IdentityExtractorIS3_EENS_7PtrHashIS3_EENS_10HashTraitsIS3_EES9_E13allocateTableEi
__ZN7WebCore8Document44unregisterDisconnectedNodeWithEventListenersEPNS_4NodeE
__ZN3WTF9HashTableIPN7WebCore4NodeES3_NS_17IdentityExtractorIS3_EENS_7PtrHashIS3_EENS_10HashTraitsIS3_EES9_E4findIS3_NS_22IdentityHashTranslatorIS3_S3_S7_EEEENS_17HashTableIteratorIS3_S3_S5_S7_S9_S9_EERKT_
__ZN3WTF9HashTableIPN7WebCore4NodeES3_NS_17IdentityExtractorIS3_EENS_7PtrHashIS3_EENS_10HashTraitsIS3_EES9_E47removeAndInvalidateWithoutEntryConsistencyCheckEPS3_
__ZN3WTF9HashTableIPN7WebCore4NodeES3_NS_17IdentityExtractorIS3_EENS_7PtrHashIS3_EENS_10HashTraitsIS3_EES9_E6removeEPS3_
__ZN7WebCore11HTMLElement16addHTMLAlignmentEPNS_15MappedAttributeE
__ZN7WebCore11HTMLElement31addHTMLAlignmentToStyledElementEPNS_13StyledElementEPNS_15MappedAttributeE
__ZN7WebCore10HTMLParser11isHeaderTagERKNS_12AtomicStringE
__ZNK7WebCore10HTMLParser8isInlineEPNS_4NodeE
__ZN7WebCore20HTMLTableCellElementD0Ev
__ZN3WTF9HashTableIPN7WebCore16AtomicStringImplESt4pairIS3_iENS_18PairFirstExtractorIS5_EENS_7PtrHashIS3_EENS_14PairHashTraitsINS_10HashTraitsIS3_EENSB_IiEEEESC_E4findIS3_NS_22IdentityHashTranslatorIS3_S5_S9_EEEENS_17HashTableIteratorIS3_S5_S7_S9_SE_SC_EERKT_
__ZN3WTF9HashTableIPN7WebCore16AtomicStringImplESt4pairIS3_iENS_18PairFirstExtractorIS5_EENS_7PtrHashIS3_EENS_14PairHashTraitsINS_10HashTraitsIS3_EENSB_IiEEEESC_E15deallocateTableEPS5_i
__ZN3WTF9HashTableIPN7WebCore16AtomicStringImplESt4pairIS3_iENS_18PairFirstExtractorIS5_EENS_7PtrHashIS3_EENS_14PairHashTraitsINS_10HashTraitsIS3_EENSB_IiEEEESC_E13allocateTableEi
__ZN3WTF9HashTableIPN7WebCore16AtomicStringImplESt4pairIS3_iENS_18PairFirstExtractorIS5_EENS_7PtrHashIS3_EENS_14PairHashTraitsINS_10HashTraitsIS3_EENSB_IiEEEESC_E6rehashEi
__ZN3WTF9HashTableIPN7WebCore16AtomicStringImplESt4pairIS3_iENS_18PairFirstExtractorIS5_EENS_7PtrHashIS3_EENS_14PairHashTraitsINS_10HashTraitsIS3_EENSB_IiEEEESC_E6removeEPS5_
__ZN3WTF9HashTableIPN7WebCore16AtomicStringImplESt4pairIS3_iENS_18PairFirstExtractorIS5_EENS_7PtrHashIS3_EENS_14PairHashTraitsINS_10HashTraitsIS3_EENSB_IiEEEESC_E47removeAndInvalidateWithoutEntryConsistencyCheckEPS5_
__ZN3WTF9HashTableIPN7WebCore16AtomicStringImplESt4pairIS3_iENS_18PairFirstExtractorIS5_EENS_7PtrHashIS3_EENS_14PairHashTraitsINS_10HashTraitsIS3_EENSB_IiEEEESC_E6expandEv
__ZN3WTF7HashMapIPN7WebCore16AtomicStringImplEiNS_7PtrHashIS3_EENS_10HashTraitsIS3_EENS6_IiEEE3setERKS3_RKi
__ZN7WebCore12InputElement23parseMaxLengthAttributeERNS_16InputElementDataEPNS_15MappedAttributeE
__ZN7WebCore15HTMLFormElement18registerImgElementEPNS_16HTMLImageElementE
__ZN3WTF6VectorIPN7WebCore16HTMLImageElementELm0EE14expandCapacityEmPKS3_
__ZN3WTF6VectorIPN7WebCore16HTMLImageElementELm0EE14expandCapacityEm
__ZN3WTF6VectorIPN7WebCore16HTMLImageElementELm0EE15reserveCapacityEm
__ZN7WebCoreL17iframeConstructorERKNS_13QualifiedNameEPNS_8DocumentEPNS_15HTMLFormElementEb
__ZN7WebCore17HTMLIFrameElementC1ERKNS_13QualifiedNameEPNS_8DocumentEb
__ZN7WebCore17HTMLIFrameElementC2ERKNS_13QualifiedNameEPNS_8DocumentEb
__ZN7WebCore20HTMLFrameElementBaseC2ERKNS_13QualifiedNameEPNS_8DocumentEb
__ZN7WebCore21HTMLFrameOwnerElementC2ERKNS_13QualifiedNameEPNS_8DocumentEb
__ZNK7WebCore17HTMLIFrameElement10mapToEntryERKNS_13QualifiedNameERNS_20MappedAttributeEntryE
__ZN7WebCore17HTMLIFrameElement20parseMappedAttributeEPNS_15MappedAttributeE
__ZN7WebCore20HTMLFrameElementBase20parseMappedAttributeEPNS_15MappedAttributeE
__ZN7WebCore20HTMLFrameElementBase11setLocationERKNS_6StringE
__ZNK7WebCore17HTMLIFrameElement17endTagRequirementEv
__ZNK7WebCore17HTMLIFrameElement11tagPriorityEv
__ZN7WebCore17HTMLIFrameElement20insertedIntoDocumentEv
__ZN7WebCore20HTMLFrameElementBase20insertedIntoDocumentEv
__ZN7WebCore17HTMLIFrameElement6attachEv
__ZN7WebCore20HTMLFrameElementBase6attachEv
__ZN7WebCore13ContainerNode23queuePostAttachCallbackEPFvPNS_4NodeEES2_
__ZN3WTF6VectorISt4pairIPFvPN7WebCore4NodeEENS_6RefPtrIS3_EEELm0EE14expandCapacityEmPKS9_
__ZN3WTF6VectorISt4pairIPFvPN7WebCore4NodeEENS_6RefPtrIS3_EEELm0EE14expandCapacityEm
__ZN3WTF6VectorISt4pairIPFvPN7WebCore4NodeEENS_6RefPtrIS3_EEELm0EE15reserveCapacityEm
__ZN7WebCore13ContainerNode27dispatchPostAttachCallbacksEv
__ZN7WebCore20HTMLFrameElementBase25setNameAndOpenURLCallbackEPNS_4NodeE
__ZN7WebCore20HTMLFrameElementBase17setNameAndOpenURLEv
__ZNK7WebCore9FrameTree15uniqueChildNameERKNS_12AtomicStringE
__ZN7WebCore20HTMLFrameElementBase7openURLEv
__ZNK7WebCore20HTMLFrameElementBase12isURLAllowedERKNS_12AtomicStringE
__ZN7WebCore16equalIgnoringRefERKNS_4KURLES2_
__ZN7WebCore11FrameLoader12requestFrameEPNS_21HTMLFrameOwnerElementERKNS_6StringERKNS_12AtomicStringE
__ZN7WebCore11FrameLoader11completeURLERKNS_6StringE
__ZN7WebCore11FrameLoader12loadSubframeEPNS_21HTMLFrameOwnerElementERKNS_4KURLERKNS_6StringES8_
__ZNK7WebCore20HTMLFrameElementBase13scrollingModeEv
-[WAKView init]
__ZN7WebCore9FrameTree11appendChildEN3WTF10PassRefPtrINS_5FrameEEE
__ZN3WTF6VectorINS_6RefPtrIN7WebCore5FrameEEELm10EE6shrinkEm
__ZNK7WebCore14SecurityOrigin9canAccessEPKS0_
__ZNK7WebCore8Document13inputEncodingEv
__ZN7WebCore11FrameLoader21loadURLIntoChildFrameERKNS_4KURLERKNS_6StringEPNS_5FrameE
__ZN7WebCore14DocumentLoader21popArchiveForSubframeERKNS_6StringE
__ZN7WebCore11FrameLoader7loadURLERKNS_4KURLERKNS_6StringES6_bNS_13FrameLoadTypeEPNS_5EventEN3WTF10PassRefPtrINS_9FormStateEEE
__ZN7WebCore16NavigationActionC1ERKNS_4KURLENS_13FrameLoadTypeEbN3WTF10PassRefPtrINS_5EventEEE
__ZN7WebCore16NavigationActionC2ERKNS_4KURLENS_13FrameLoadTypeEbN3WTF10PassRefPtrINS_5EventEEE
__ZN7WebCoreL14navigationTypeENS_13FrameLoadTypeEbb
__ZN7WebCore11FrameLoader24loadWithNavigationActionERKNS_15ResourceRequestERKNS_16NavigationActionEbNS_13FrameLoadTypeEN3WTF10PassRefPtrINS_9FormStateEEE
__ZN7WebCore5Frame19setInViewSourceModeEb
__ZN3WTF6VectorISt4pairIPFvPN7WebCore4NodeEENS_6RefPtrIS3_EEELm0EE14shrinkCapacityEm
__ZN3WTF6VectorISt4pairIPFvPN7WebCore4NodeEENS_6RefPtrIS3_EEELm0EE6shrinkEm
__ZN7WebCore10HTMLParser24noscriptCreateErrorCheckEPNS_5TokenERN3WTF6RefPtrINS_4NodeEEE
__ZN7WebCore5TimerINS_5FrameEE5firedEv
__ZN7WebCore5Frame21lifeSupportTimerFiredEPNS_5TimerIS0_EE
__ZN7WebCore19CachedCSSStyleSheet4dataEN3WTF10PassRefPtrINS_12SharedBufferEEEb
__ZN7WebCore19TextResourceDecoder18checkForCSSCharsetEPKcmRb
__ZN7WebCore19CachedCSSStyleSheet11checkNotifyEv
__ZThn56_N7WebCore15HTMLLinkElement16setCSSStyleSheetERKNS_6StringES3_PKNS_19CachedCSSStyleSheetE
__ZN7WebCore15HTMLLinkElement16setCSSStyleSheetERKNS_6StringES3_PKNS_19CachedCSSStyleSheetE
__ZNK7WebCore19CachedCSSStyleSheet9sheetTextEb
__ZNK7WebCore19CachedCSSStyleSheet11canUseSheetEb
__ZNK7WebCore11HTMLElement5titleEv
__ZN7WebCore10StyleSheet8setMediaEN3WTF10PassRefPtrINS_9MediaListEEE
__ZN7WebCore13CSSStyleSheet11checkLoadedEv
__ZN7WebCore13CSSStyleSheet9isLoadingEv
__ZN7WebCore9StyleBase12isImportRuleEv
__ZN7WebCore15HTMLLinkElement11sheetLoadedEv
__ZNK7WebCore15HTMLLinkElement9isLoadingEv
__ZN7WebCore8Document18removePendingSheetEv
__ZNK7WebCore15HTMLLinkElement5sheetEv
__ZN3WTF6VectorINS_6RefPtrIN7WebCore10StyleSheetEEELm0EE14expandCapacityEm
__ZN3WTF6VectorINS_6RefPtrIN7WebCore10StyleSheetEEELm0EE15reserveCapacityEm
__ZN7WebCore14StyleSheetList4itemEj
__ZN7WebCore17HTMLOptionElement6detachEv
__ZN7WebCore16HTMLInputElement6detachEv
__ZNK7WebCore12RenderObject10hasStaticYEv
__ZNK7WebCore6String8foldCaseEv
__ZN7WebCore10StringImpl8foldCaseEv
__ZNK7WebCore9RenderBox30offsetForPositionedInContainerEPNS_12RenderObjectE
__ZN3WTF9HashTableIyyNS_17IdentityExtractorIyEEN7WebCore12LinkHashHashENS_10HashTraitsIyEES6_E4findIyNS_22IdentityHashTranslatorIyyS4_EEEENS_17HashTableIteratorIyyS2_S4_S6_S6_EERKT_
__ZN7WebCore11RenderTable11splitColumnEii
__ZN7WebCore18RenderTableSection11splitColumnEii
__ZN7WebCore17HTMLIFrameElement16rendererIsNeededEPNS_11RenderStyleE
__ZN7WebCore17HTMLIFrameElement14createRendererEPNS_11RenderArenaEPNS_11RenderStyleE
__ZN7WebCore16RenderPartObjectC1EPNS_7ElementE
__ZN7WebCore16RenderPartObjectC2EPNS_7ElementE
__ZN7WebCore10RenderPartC2EPNS_7ElementE
__ZN7WebCore12RenderWidgetC2EPNS_4NodeE
__ZN7WebCore14RenderReplacedC2EPNS_4NodeE
__ZN7WebCore10RenderView9addWidgetEPNS_12RenderObjectE
__ZN3WTF7HashSetIPN7WebCore12RenderObjectENS_7PtrHashIS3_EENS_10HashTraitsIS3_EEE3addERKS3_
__ZN3WTF9HashTableIPN7WebCore12RenderObjectES3_NS_17IdentityExtractorIS3_EENS_7PtrHashIS3_EENS_10HashTraitsIS3_EES9_E6expandEv
__ZN3WTF9HashTableIPN7WebCore12RenderObjectES3_NS_17IdentityExtractorIS3_EENS_7PtrHashIS3_EENS_10HashTraitsIS3_EES9_E6rehashEi
__ZN3WTF9HashTableIPN7WebCore12RenderObjectES3_NS_17IdentityExtractorIS3_EENS_7PtrHashIS3_EENS_10HashTraitsIS3_EES9_E13allocateTableEi
__ZN7WebCore12RenderWidget14styleDidChangeENS_15StyleDifferenceEPKNS_11RenderStyleE
__ZN7WebCore10RenderPart9setWidgetEPNS_6WidgetE
__ZNK7WebCore9FrameView11isFrameViewEv
__ZN7WebCore12RenderWidget9setWidgetEPNS_6WidgetE
__ZN7WebCoreL17widgetRendererMapEv
__ZN3WTF7HashMapIPKN7WebCore6WidgetEPNS1_12RenderWidgetENS_7PtrHashIS4_EENS_10HashTraitsIS4_EENS9_IS6_EEE3addERKS4_RKS6_
__ZN7WebCore10ScrollView8addChildEPNS_6WidgetE
__ZN7WebCore10ScrollView9setParentEPS0_
__ZN7WebCore6Widget9setParentEPNS_10ScrollViewE
__ZN3WTF7HashSetIPN7WebCore6WidgetENS_7PtrHashIS3_EENS_10HashTraitsIS3_EEE3addERKS3_
__ZN3WTF9HashTableIPN7WebCore6WidgetES3_NS_17IdentityExtractorIS3_EENS_7PtrHashIS3_EENS_10HashTraitsIS3_EES9_E6expandEv
__ZN3WTF9HashTableIPN7WebCore6WidgetES3_NS_17IdentityExtractorIS3_EENS_7PtrHashIS3_EENS_10HashTraitsIS3_EES9_E6rehashEi
__ZN3WTF9HashTableIPN7WebCore6WidgetES3_NS_17IdentityExtractorIS3_EENS_7PtrHashIS3_EENS_10HashTraitsIS3_EES9_E13allocateTableEi
__ZN7WebCore10ScrollView16platformAddChildEPNS_6WidgetE
__ZN7WebCore6Widget14addToSuperviewEP7WAKView
-[WAKWindow _needsToResetDragMargins]
-[WAKWindow _setNeedsToResetDragMargins:]
__ZN7WebCore16RenderPartObject11viewClearedEv
__ZN7WebCore9FrameView14setMarginWidthEi
__ZN7WebCore9FrameView15setMarginHeightEi
__ZN7WebCore16RenderPartObject12updateWidgetEb
__ZN7WebCore12RenderInline9splitFlowEPNS_12RenderObjectEPNS_11RenderBlockES2_PNS_10RenderFlowE
__ZN7WebCore11RenderBlock17setChildrenInlineEb
__ZN7WebCore12RenderObject12removeLayersEPNS_11RenderLayerE
__ZN7WebCore12RenderInline12splitInlinesEPNS_11RenderBlockES2_S2_PNS_12RenderObjectEPNS_10RenderFlowE
__ZN7WebCore12RenderInline11cloneInlineEPNS_10RenderFlowE
__ZN7WebCore10RenderFlow24addChildWithContinuationEPNS_12RenderObjectES2_
__ZN7WebCore10RenderFlow18continuationBeforeEPNS_12RenderObjectE
__ZN7WebCore13HTMLTokenizer35executeScriptsWaitingForStylesheetsEv
__ZN7WebCore8Document24imageLoadEventTimerFiredEPNS_5TimerIS0_EE
__ZNK7WebCore11RenderImage22usesImageContainerSizeEv
__ZNK7WebCore11CachedImage22usesImageContainerSizeEv
__ZNK7WebCore5Image17usesContainerSizeEv
__ZNK7WebCore11RenderImage20calcAspectRatioWidthEv
__ZNK7WebCore9RenderBox18calcReplacedHeightEv
__ZNK7WebCore11RenderImage22imageHasRelativeHeightEv
__ZNK7WebCore11CachedImage22imageHasRelativeHeightEv
__ZNK7WebCore11RenderImage21calcAspectRatioHeightEv
__ZNK7WebCore9RenderBox17calcReplacedWidthEb
__ZN7WebCore6Loader4Host14cancelRequestsEPNS_9DocLoaderE
__ZN7WebCore6Loader4Host21cancelPendingRequestsERN3WTF5DequeIPNS_7RequestEEEPNS_9DocLoaderE
__ZN7WebCore11FrameLoader49updateHistoryForRedirectWithLockedBackForwardListEv
__ZN7WebCore11HistoryItem12addChildItemEN3WTF10PassRefPtrIS0_EE
__ZNK7WebCore10RenderPart12isRenderPartEv
__ZN7WebCoreL15metaConstructorERKNS_13QualifiedNameEPNS_8DocumentEPNS_15HTMLFormElementEb
__ZN7WebCore15HTMLMetaElementC1ERKNS_13QualifiedNameEPNS_8DocumentE
__ZN7WebCore15HTMLMetaElementC2ERKNS_13QualifiedNameEPNS_8DocumentE
__ZN7WebCore15HTMLMetaElement20parseMappedAttributeEPNS_15MappedAttributeE
__ZN7WebCore15HTMLMetaElement7processEv
__ZNK7WebCore15HTMLMetaElement17endTagRequirementEv
__ZNK7WebCore15HTMLMetaElement11tagPriorityEv
__ZN7WebCore15HTMLMetaElement20insertedIntoDocumentEv
__ZNK7WebCore15HTMLMetaElement4nameEv
__ZN7WebCore8Document16processHttpEquivERKNS_6StringES3_
__ZNK7WebCore12RenderObject23createsAnonymousWrapperEv
__ZNK7WebCore13HTMLBRElement10mapToEntryERKNS_13QualifiedNameERNS_20MappedAttributeEntryE
__ZN7WebCore13HTMLBRElement20parseMappedAttributeEPNS_15MappedAttributeE
__ZN7WebCore8Document31incrementAnimatedImageDataCountEj
__ZN7WebCore8Document22animatedImageDataCountEv
__ZNK7WebCore13HTMLTokenizer14processingDataEv
__ZN7WebCore15HTMLFormElement17handleLocalEventsEPNS_5EventEb
__ZN7WebCore11RenderBlock22insertPositionedObjectEPNS_9RenderBoxE
__ZN3WTF11ListHashSetIPN7WebCore9RenderBoxENS_7PtrHashIS3_EEE3addERKS3_
__ZN3WTF11ListHashSetIPN7WebCore9RenderBoxENS_7PtrHashIS3_EEE10appendNodeEPNS_15ListHashSetNodeIS3_EE
__ZN7WebCore11RenderBlock21adjustPositionedBlockEPNS_9RenderBoxERKNS0_10MarginInfoE
__ZNK7WebCore12RenderObject10hasStaticXEv
__ZN7WebCore16RenderPartObject6layoutEv
__ZNK7WebCore16RenderPartObject26shouldResizeFrameToContentEv
__ZN7WebCore16RenderPartObject9calcWidthEv
__ZN7WebCore14RenderReplaced14calcPrefWidthsEv
__ZN7WebCore16RenderPartObject10calcHeightEv
__ZN7WebCore12RenderWidget6layoutEv
__ZN7WebCore9RenderBox22calcAbsoluteHorizontalEv
__ZNK7WebCore9RenderBox33containingBlockWidthForPositionedEPKNS_12RenderObjectE
__ZN7WebCore9RenderBox28calcAbsoluteHorizontalValuesENS_6LengthEPKS0_NS_13TextDirectionEiiS1_S1_S1_S1_RiS5_S5_S5_
__ZN7WebCore9RenderBox20calcAbsoluteVerticalEv
__ZNK7WebCore9RenderBox34containingBlockHeightForPositionedEPKNS_12RenderObjectE
__ZN7WebCore9RenderBox26calcAbsoluteVerticalValuesENS_6LengthEPKS0_iiS1_S1_S1_S1_RiS4_S4_S4_
__ZN3WTF6VectorIN7WebCore11RenderBlock13FloatWithRectELm0EE14expandCapacityEmPKS3_
__ZN3WTF6VectorIN7WebCore11RenderBlock13FloatWithRectELm0EE14expandCapacityEm
__ZN3WTF6VectorIN7WebCore11RenderBlock13FloatWithRectELm0EE15reserveCapacityEm
__ZN7WebCoreL25inlineFlowRequiresLineBoxEPNS_9RenderBoxE
__ZN7WebCore11RenderBlock20insertFloatingObjectEPNS_9RenderBoxE
__ZN7WebCore21DeprecatedPtrListImplC1EPFvPvE
__ZN7WebCore21DeprecatedPtrListImplC2EPFvPvE
__ZN7WebCore21DeprecatedPtrListImpl6appendEPKv
__ZN7WebCore21DeprecatedPtrListImpl6insertEjPKv
__ZN7WebCore21DeprecatedPtrListImpl4lastEv
__ZNK7WebCore21DeprecatedPtrListImpl7currentEv
__ZNK7WebCore21DeprecatedPtrListImpl7getPrevEv
__ZN7WebCore29DeprecatedPtrListImplIteratorC1ERKNS_21DeprecatedPtrListImplE
__ZN7WebCore29DeprecatedPtrListImplIteratorC2ERKNS_21DeprecatedPtrListImplE
__ZNK7WebCore21DeprecatedPtrListImpl11addIteratorEPNS_29DeprecatedPtrListImplIteratorE
__ZNK7WebCore29DeprecatedPtrListImplIterator7currentEv
__ZN7WebCore29DeprecatedPtrListImplIteratorppEv
__ZN7WebCore29DeprecatedPtrListImplIteratorD1Ev
__ZN7WebCore29DeprecatedPtrListImplIteratorD2Ev
__ZNK7WebCore21DeprecatedPtrListImpl14removeIteratorEPNS_29DeprecatedPtrListImplIteratorE
__ZN7WebCore21DeprecatedPtrListImpl4nextEv
__ZN7WebCore21DeprecatedPtrListImpl5firstEv
__ZN3WTF6VectorIPN7WebCore9RenderBoxELm0EE14expandCapacityEmPKS3_
__ZN3WTF6VectorIPN7WebCore9RenderBoxELm0EE14expandCapacityEm
__ZN3WTF6VectorIPN7WebCore9RenderBoxELm0EE15reserveCapacityEm
__ZN3WTF6VectorIN7WebCore11RenderBlock13FloatWithRectELm0EE6shrinkEm
__ZNK7WebCore11RenderBlock33expandsToEncloseOverhangingFloatsEv
__ZNK7WebCore12RenderObject10isFieldsetEv
__ZN7WebCore11RenderBlock13containsFloatEPNS_12RenderObjectE
__ZN7WebCore11RenderBlock18addIntrudingFloatsEPS0_ii
__ZNK3WTF7HashMapIPN7WebCore12RenderObjectEPNS1_11RenderBlock14FloatingObjectENS_7PtrHashIS3_EENS_10HashTraitsIS3_EENS9_IS6_EEE3getERKS3_
__ZNK7WebCore14RenderReplaced12overflowRectEb
__ZN3WTF10RefCountedIN7WebCore16SharedFontFamilyEE5derefEv
__ZN7WebCore21DeprecatedPtrListImpl5clearEb
__ZN7WebCore17DeprecatedPtrListINS_11RenderBlock14FloatingObjectEE10deleteFuncEPv
__ZN7WebCore21DeprecatedPtrListImpl4takeEv
__ZN7WebCore21DeprecatedPtrListImpl6removeEb
__ZN3WTF7HashMapIPN7WebCore12RenderObjectEPNS1_11RenderBlock14FloatingObjectENS_7PtrHashIS3_EENS_10HashTraitsIS3_EENS9_IS6_EEE3addERKS3_RKS6_
__ZNK7WebCore11RenderLayer27enclosingPositionedAncestorEv
__ZN7WebCore10RenderPart20updateWidgetPositionEv
__ZN7WebCore9FrameView12setFrameRectERKNS_7IntRectE
__ZN7WebCore10ScrollView12setFrameRectERKNS_7IntRectE
__ZN7WebCore6Widget12setFrameRectERKNS_7IntRectE
-[WAKView setFrame:]
-[WAKView setNeedsDisplay:]
__ZN7WebCore12RenderWidget5derefEPNS_11RenderArenaE
__ZN7WebCore11FrameLoader15parentCompletedEv
__ZN7WebCore9FontCache26getSimilarFontPlatformDataERKNS_4FontE
__ZN7WebCoreL24fontDataForGenericFamilyEPNS_8DocumentERKNS_15FontDescriptionERKNS_12AtomicStringE
__ZNK7WebCore10RenderView8viewRectEv
__ZN7WebCoreL13compareZIndexEPNS_11RenderLayerES1_
__ZSt25__unguarded_linear_insertIPPN7WebCore11RenderLayerES2_PFbS2_S2_EEvT_T0_T1_
__ZSt5mergeIPPN7WebCore11RenderLayerES3_S3_PFbS2_S2_EET1_T_S7_T0_S8_S6_T2_
__ZN7WebCore12RenderWidget5paintERNS_12RenderObject9PaintInfoEii
__ZN7WebCore10ScrollView5paintEPNS_15GraphicsContextERKNS_7IntRectE
__ZN7WebCore6Widget5paintEPNS_15GraphicsContextERKNS_7IntRectE
-[WAKView displayRectIgnoringOpacity:]
__ZNK7WebCore11RenderLayer20requiresSlowRepaintsEv
__ZN7WebCore11BitmapImage20frameDurationAtIndexEm
__ZN7WebCore11BitmapImage14cacheFrameInfoEm
__ZN3WTF6VectorIN7WebCore9FrameDataELm0EE6resizeEm
__ZNK7WebCore11RenderLayer11boundingBoxEPKS0_
__ZNK7WebCore11RenderLayer16localBoundingBoxEv
__ZN7WebCore5TimerINS_11BitmapImageEE5firedEv
__ZN7WebCore11BitmapImage16advanceAnimationEPNS_5TimerIS0_EE
__ZN7WebCore11BitmapImage24internalAdvanceAnimationEb
__ZN7WebCore11BitmapImage13stopAnimationEv
__ZN7WebCore5TimerINS_11BitmapImageEED0Ev
__ZThn268_N7WebCore11CachedImage20shouldPauseAnimationEPKNS_5ImageE
__ZN7WebCore11CachedImage20shouldPauseAnimationEPKNS_5ImageE
__ZN7WebCore20CachedResourceClient15willRenderImageEPNS_11CachedImageE
__ZN7WebCore12RenderObject15willRenderImageEPNS_11CachedImageE
__ZN7WebCore11BitmapImage29destroyDecodedDataIfNecessaryEb
__ZThn268_N7WebCore11CachedImage17animationAdvancedEPKNS_5ImageE
__ZN7WebCore11CachedImage17animationAdvancedEPKNS_5ImageE
__ZN7WebCore19JSLazyEventListenerD0Ev
__ZN7WebCore15JSEventListenerD2Ev
__ZN7WebCore30removeQLPreviewConverterForURLEP5NSURL
__ZN7WebCoreL28QLPreviewConverterDictionaryEv
__ZN7WebCore12SharedBufferD1Ev
__ZN7WebCore12SharedBufferD2Ev
__ZN7WebCore9FrameTree11removeChildEPNS_5FrameE
__ZN7WebCore15JSDOMWindowBase5clearEv
__ZN7WebCore15JSDOMWindowBase27clearHelperObjectPropertiesEv
__ZN7WebCore17JSDOMGlobalObject15setCurrentEventEPNS_5EventE
__ZN3WTF7HashSetIPN7WebCore11JSDOMWindowENS_7PtrHashIS3_EENS_10HashTraitsIS3_EEE3addERKS3_
__ZN3WTF9HashTableIPN7WebCore11JSDOMWindowES3_NS_17IdentityExtractorIS3_EENS_7PtrHashIS3_EENS_10HashTraitsIS3_EES9_E6expandEv
__ZN3WTF9HashTableIPN7WebCore11JSDOMWindowES3_NS_17IdentityExtractorIS3_EENS_7PtrHashIS3_EENS_10HashTraitsIS3_EES9_E6rehashEi
__ZN3WTF9HashTableIPN7WebCore11JSDOMWindowES3_NS_17IdentityExtractorIS3_EENS_7PtrHashIS3_EENS_10HashTraitsIS3_EES9_E13allocateTableEi
__ZN7WebCore12gcControllerEv
__ZN7WebCore12GCControllerC1Ev
__ZN7WebCore12GCControllerC2Ev
__ZN7WebCore12GCController18garbageCollectSoonEv
__ZN7WebCore16JSDOMWindowShell15disconnectFrameEv
__ZN7WebCore15JSDOMWindowBase15disconnectFrameEv
__ZN3JSC8Bindings10RootObject10invalidateEv
__ZN3JSC16RuntimeObjectImp10invalidateEv
__ZN3JSC8Bindings12ObjcInstanceD0Ev
__ZN3JSC8Bindings8InstanceD2Ev
__ZN3WTF9HashTableIPN3JSC16RuntimeObjectImpES3_NS_17IdentityExtractorIS3_EENS_7PtrHashIS3_EENS_10HashTraitsIS3_EES9_E5clearEv
__ZN3WTF9HashTableIPN3JSC8Bindings10RootObjectES4_NS_17IdentityExtractorIS4_EENS_7PtrHashIS4_EENS_10HashTraitsIS4_EESA_E4findIS4_NS_22IdentityHashTranslatorIS4_S4_S8_EEEENS_17HashTableIteratorIS4_S4_S6_S8_SA_SA_EERKT_
__ZN3WTF9HashTableIPN3JSC8Bindings10RootObjectES4_NS_17IdentityExtractorIS4_EENS_7PtrHashIS4_EENS_10HashTraitsIS4_EESA_E47removeAndInvalidateWithoutEntryConsistencyCheckEPS4_
__ZN3WTF9HashTableIPN3JSC8Bindings10RootObjectES4_NS_17IdentityExtractorIS4_EENS_7PtrHashIS4_EENS_10HashTraitsIS4_EESA_E6removeEPS4_
-[WebScriptObject _setOriginRootObject:andRootObject:]
__ZN3JSC8Bindings10RootObjectD1Ev
__ZN3JSC8Bindings10RootObjectD2Ev
__ZN7WebCore11FrameLoader22scheduleCheckCompletedEv
__ZN7WebCore10FontFamilyD2Ev
__ZN7WebCore15RenderTableCell7destroyEv
__ZN7WebCore15RenderTableCellD0Ev
__ZN7WebCore14RenderTableRow7destroyEv
__ZN7WebCore18RenderTableSection15removeChildNodeEPNS_12RenderObjectEb
__ZN7WebCore14RenderTableRowD0Ev
__ZN7WebCore11RenderImageD0Ev
__ZN7WebCore14RenderReplacedD2Ev
__ZN7WebCore18RenderTableSection7destroyEv
__ZN7WebCore11RenderTable15removeChildNodeEPNS_12RenderObjectEb
__ZN7WebCore18RenderTableSectionD0Ev
__ZN7WebCore18RenderTableSection9clearGridEv
__ZN3WTF6VectorIN7WebCore18RenderTableSection10CellStructELm0EE6shrinkEm
__ZN3WTF6VectorIN7WebCore18RenderTableSection9RowStructELm0EE6shrinkEm
__ZN7WebCore11RenderTableD0Ev
__ZN7WebCore15AutoTableLayoutD0Ev
__ZN3WTF6VectorIPN7WebCore15RenderTableCellELm4EE6shrinkEm
__ZN3WTF6VectorIN7WebCore15AutoTableLayout6LayoutELm4EE6shrinkEm
__ZN3WTF6VectorIN7WebCore11RenderTable12ColumnStructELm0EE6shrinkEm
__ZN7WebCore18RenderTextFragment7destroyEv
__ZN7WebCore18RenderTextFragmentD0Ev
__ZN7WebCore12RenderButton11removeChildEPNS_12RenderObjectE
__ZN7WebCore12RenderButtonD0Ev
__ZN7WebCore17RenderFlexibleBoxD2Ev
__ZN7WebCore21DeprecatedPtrListImplD1Ev
__ZN7WebCore21DeprecatedPtrListImplD2Ev
__ZN3WTF6VectorIPN7WebCore9RenderBoxELm0EE6shrinkEm
__ZN7WebCore14RenderMenuList11removeChildEPNS_12RenderObjectE
__ZN7WebCore14RenderMenuListD0Ev
__ZN7WebCore27RenderTextControlInnerBlockD0Ev
__ZN7WebCore27RenderTextControlSingleLineD0Ev
__ZN7WebCore17RenderTextControlD2Ev
__ZN7WebCore27TextControlInnerTextElementD0Ev
__ZN7WebCore14HTMLDivElementD2Ev
__ZN7WebCore12RenderWidget7destroyEv
__ZN7WebCore10ScrollView11removeChildEPNS_6WidgetE
__ZN3WTF9HashTableIPN7WebCore6WidgetES3_NS_17IdentityExtractorIS3_EENS_7PtrHashIS3_EENS_10HashTraitsIS3_EES9_E4findIS3_NS_22IdentityHashTranslatorIS3_S3_S7_EEEENS_17HashTableIteratorIS3_S3_S5_S7_S9_S9_EERKT_
__ZN3WTF9HashTableIPN7WebCore6WidgetES3_NS_17IdentityExtractorIS3_EENS_7PtrHashIS3_EENS_10HashTraitsIS3_EES9_E47removeAndInvalidateWithoutEntryConsistencyCheckEPS3_
__ZN3WTF9HashTableIPN7WebCore6WidgetES3_NS_17IdentityExtractorIS3_EENS_7PtrHashIS3_EENS_10HashTraitsIS3_EES9_E6removeEPS3_
__ZN7WebCore10ScrollView19platformRemoveChildEPNS_6WidgetE
__ZN7WebCore6Widget19removeFromSuperviewEv
__ZN7WebCoreL23safeRemoveFromSuperviewEP7WAKView
__ZN3WTF9HashTableIPKN7WebCore6WidgetESt4pairIS4_PNS1_12RenderWidgetEENS_18PairFirstExtractorIS8_EENS_7PtrHashIS4_EENS_14PairHashTraitsINS_10HashTraitsIS4_EENSE_IS7_EEEESF_E4findIS4_NS_22IdentityHashTranslatorIS4_S8_SC_EEEENS_17HashTableIteratorIS4_S8_SA_SC_SH_SF_EERKT_
__ZN3WTF9HashTableIPKN7WebCore6WidgetESt4pairIS4_PNS1_12RenderWidgetEENS_18PairFirstExtractorIS8_EENS_7PtrHashIS4_EENS_14PairHashTraitsINS_10HashTraitsIS4_EENSE_IS7_EEEESF_E15deallocateTableEPS8_i
__ZN3WTF9HashTableIPKN7WebCore6WidgetESt4pairIS4_PNS1_12RenderWidgetEENS_18PairFirstExtractorIS8_EENS_7PtrHashIS4_EENS_14PairHashTraitsINS_10HashTraitsIS4_EENSE_IS7_EEEESF_E13allocateTableEi
__ZN3WTF9HashTableIPKN7WebCore6WidgetESt4pairIS4_PNS1_12RenderWidgetEENS_18PairFirstExtractorIS8_EENS_7PtrHashIS4_EENS_14PairHashTraitsINS_10HashTraitsIS4_EENSE_IS7_EEEESF_E6rehashEi
__ZN3WTF9HashTableIPKN7WebCore6WidgetESt4pairIS4_PNS1_12RenderWidgetEENS_18PairFirstExtractorIS8_EENS_7PtrHashIS4_EENS_14PairHashTraitsINS_10HashTraitsIS4_EENSE_IS7_EEEESF_E6removeEPS8_
__ZN3WTF9HashTableIPKN7WebCore6WidgetESt4pairIS4_PNS1_12RenderWidgetEENS_18PairFirstExtractorIS8_EENS_7PtrHashIS4_EENS_14PairHashTraitsINS_10HashTraitsIS4_EENSE_IS7_EEEESF_E47removeAndInvalidateWithoutEntryConsistencyCheckEPS8_
__ZN3WTF9HashTableIPKN7WebCore6WidgetESt4pairIS4_PNS1_12RenderWidgetEENS_18PairFirstExtractorIS8_EENS_7PtrHashIS4_EENS_14PairHashTraitsINS_10HashTraitsIS4_EENSE_IS7_EEEESF_E6expandEv
__ZN7WebCore16RenderPartObjectD0Ev
__ZN7WebCore9FrameView20removeWidgetToUpdateEPNS_16RenderPartObjectE
__ZN7WebCore10RenderPartD2Ev
__ZN7WebCore12RenderWidgetD2Ev
__ZN7WebCore12RenderWidget12deleteWidgetEv
__ZN3WTF11ListHashSetIPN7WebCore9RenderBoxENS_7PtrHashIS3_EEE14deleteAllNodesEv
__ZN7WebCore9Navigator15disconnectFrameEv
__ZN7WebCoreL16findTextEncodingEPKci
__ZN3WTF6VectorIcLm64EE6shrinkEm
__ZNK7WebCore12TextEncoding26closestByteBasedEquivalentEv
__ZNK7WebCore6String8toDoubleEPb
__ZN7WebCore10StringImpl8toDoubleEPb
__ZN7WebCore11FrameLoader23scheduleHTTPRedirectionEdRKNS_6StringE
__ZN7WebCore11FrameLoader19scheduleRedirectionEPNS_20ScheduledRedirectionE
__ZN7WebCore11FrameLoader16isLocationChangeERKNS_20ScheduledRedirectionE
__ZNK7WebCore16HTMLInputElement7altTextEv
__ZN7WebCore19inputElementAltTextEv
__ZN7WebCore11RenderImage14resetAnimationEv
__ZNK7WebCore13HTMLHRElement10mapToEntryERKNS_13QualifiedNameERNS_20MappedAttributeEntryE
__ZN7WebCore13HTMLHRElement20parseMappedAttributeEPNS_15MappedAttributeE
__ZN7WebCore10HTMLParser19mapCreateErrorCheckEPNS_5TokenERN3WTF6RefPtrINS_4NodeEEE
__ZN7WebCore14HTMLMapElementC1ERKNS_13QualifiedNameEPNS_8DocumentE
__ZN7WebCore14HTMLMapElementC2ERKNS_13QualifiedNameEPNS_8DocumentE
__ZN7WebCore14HTMLMapElement20parseMappedAttributeEPNS_15MappedAttributeE
__ZN7WebCore8Document14removeImageMapEPNS_14HTMLMapElementE
__ZN7WebCore8Document11addImageMapEPNS_14HTMLMapElementE
__ZN3WTF7HashMapIPN7WebCore16AtomicStringImplEPNS1_14HTMLMapElementENS_7PtrHashIS3_EENS_10HashTraitsIS3_EENS8_IS5_EEE3addERKS3_RKS5_
__ZNK7WebCore14HTMLMapElement17endTagRequirementEv
__ZNK7WebCore14HTMLMapElement11tagPriorityEv
__ZN7WebCore14HTMLMapElement8checkDTDEPKNS_4NodeE
__ZN7WebCoreL15areaConstructorERKNS_13QualifiedNameEPNS_8DocumentEPNS_15HTMLFormElementEb
__ZN7WebCore15HTMLAreaElementC1ERKNS_13QualifiedNameEPNS_8DocumentE
__ZN7WebCore15HTMLAreaElementC2ERKNS_13QualifiedNameEPNS_8DocumentE
__ZN7WebCore15HTMLAreaElement20parseMappedAttributeEPNS_15MappedAttributeE
__ZN7WebCore14newCoordsArrayERKNS_6StringERi
__ZN7WebCoreL14countCharacterEPKtjt
__ZN7WebCoreL11parseLengthEPKtj
__ZN7WebCore21charactersToIntStrictEPKtmPbi
__ZNK7WebCore15HTMLAreaElement17endTagRequirementEv
__ZNK7WebCore15HTMLAreaElement11tagPriorityEv
__ZN7WebCore16MIMETypeRegistry29isSupportedJavaScriptMIMETypeERKNS_6StringE
-[DOMAbstractView(Frame) _disconnectFrame]
-[DOMAbstractView dealloc]
__ZN7WebCore15removeJSWrapperEPN3JSC8JSObjectE
__ZN7WebCore5TimerINS_12GCControllerEE5firedEv
__ZN7WebCore12GCController12gcTimerFiredEPNS_5TimerIS0_EE
__ZN7WebCore16JSDOMWindowShell4markEv
__ZN7WebCore11JSDOMWindow4markEv
__ZN7WebCore17JSDOMGlobalObject4markEv
__ZN7WebCore20markDOMObjectWrapperERN3JSC12JSGlobalDataEPv
__ZN7WebCore10JSDocument4markEv
__ZN7WebCore6JSNode4markEv
__ZN7WebCore23markDOMNodesForDocumentEPNS_8DocumentE
__ZN7WebCore27markActiveObjectsForContextERN3JSC12JSGlobalDataEPNS_22ScriptExecutionContextE
__ZN7WebCore20JSDOMWindowPrototypeD1Ev
__ZN7WebCore11JSDOMWindowD1Ev
__ZN7WebCore15JSDOMWindowBaseD2Ev
__ZN3WTF9HashTableIPN7WebCore11JSDOMWindowES3_NS_17IdentityExtractorIS3_EENS_7PtrHashIS3_EENS_10HashTraitsIS3_EES9_E4findIS3_NS_22IdentityHashTranslatorIS3_S3_S7_EEEENS_17HashTableIteratorIS3_S3_S5_S7_S9_S9_EERKT_
__ZN3WTF9HashTableIPN7WebCore11JSDOMWindowES3_NS_17IdentityExtractorIS3_EENS_7PtrHashIS3_EENS_10HashTraitsIS3_EES9_E47removeAndInvalidateWithoutEntryConsistencyCheckEPS3_
__ZN3WTF9HashTableIPN7WebCore11JSDOMWindowES3_NS_17IdentityExtractorIS3_EENS_7PtrHashIS3_EENS_10HashTraitsIS3_EES9_E6removeEPS3_
__ZN7WebCore17JSDOMGlobalObjectD2Ev
__ZN7WebCore15JSDOMWindowBase19JSDOMWindowBaseDataD0Ev
__ZN3WTF9HashTableIPN3JSC8JSObjectESt4pairIS3_PN7WebCore26JSUnprotectedEventListenerEENS_18PairFirstExtractorIS8_EENS_7PtrHashIS3_EENS_14PairHashTraitsINS_10HashTraitsIS3_EENSE_IS7_EEEESF_E15deallocateTableEPS8_i
__ZN3WTF9HashTableIPN3JSC8JSObjectESt4pairIS3_PN7WebCore26JSUnprotectedEventListenerEENS_18PairFirstExtractorIS8_EENS_7PtrHashIS3_EENS_14PairHashTraitsINS_10HashTraitsIS3_EENSE_IS7_EEEESF_E4findIS3_NS_22IdentityHashTranslatorIS3_S8_SC_EEEENS_17HashTableIteratorIS3_S8_SA_SC_SH_SF_EERKT_
__ZN3WTF9HashTableIPN3JSC8JSObjectESt4pairIS3_PN7WebCore26JSUnprotectedEventListenerEENS_18PairFirstExtractorIS8_EENS_7PtrHashIS3_EENS_14PairHashTraitsINS_10HashTraitsIS3_EENSE_IS7_EEEESF_E13allocateTableEi
__ZN3WTF9HashTableIPN3JSC8JSObjectESt4pairIS3_PN7WebCore26JSUnprotectedEventListenerEENS_18PairFirstExtractorIS8_EENS_7PtrHashIS3_EENS_14PairHashTraitsINS_10HashTraitsIS3_EENSE_IS7_EEEESF_E6rehashEi
__ZN3WTF9HashTableIPN3JSC8JSObjectESt4pairIS3_PN7WebCore26JSUnprotectedEventListenerEENS_18PairFirstExtractorIS8_EENS_7PtrHashIS3_EENS_14PairHashTraitsINS_10HashTraitsIS3_EENSE_IS7_EEEESF_E6removeEPS8_
__ZN3WTF9HashTableIPN3JSC8JSObjectESt4pairIS3_PN7WebCore26JSUnprotectedEventListenerEENS_18PairFirstExtractorIS8_EENS_7PtrHashIS3_EENS_14PairHashTraitsINS_10HashTraitsIS3_EENSE_IS7_EEEESF_E47removeAndInvalidateWithoutEntryConsistencyCheckEPS8_
__ZN3WTF9HashTableIPN3JSC8JSObjectESt4pairIS3_PN7WebCore26JSUnprotectedEventListenerEENS_18PairFirstExtractorIS8_EENS_7PtrHashIS3_EENS_14PairHashTraitsINS_10HashTraitsIS3_EENSE_IS7_EEEESF_E6expandEv
__ZN3WTF9HashTableIPN3JSC8JSObjectESt4pairIS3_PN7WebCore15JSEventListenerEENS_18PairFirstExtractorIS8_EENS_7PtrHashIS3_EENS_14PairHashTraitsINS_10HashTraitsIS3_EENSE_IS7_EEEESF_E15deallocateTableEPS8_i
__ZN3WTF9HashTableIPN3JSC8JSObjectESt4pairIS3_PN7WebCore15JSEventListenerEENS_18PairFirstExtractorIS8_EENS_7PtrHashIS3_EENS_14PairHashTraitsINS_10HashTraitsIS3_EENSE_IS7_EEEESF_E4findIS3_NS_22IdentityHashTranslatorIS3_S8_SC_EEEENS_17HashTableIteratorIS3_S8_SA_SC_SH_SF_EERKT_
__ZN3WTF9HashTableIPN3JSC8JSObjectESt4pairIS3_PN7WebCore15JSEventListenerEENS_18PairFirstExtractorIS8_EENS_7PtrHashIS3_EENS_14PairHashTraitsINS_10HashTraitsIS3_EENSE_IS7_EEEESF_E13allocateTableEi
__ZN3WTF9HashTableIPN3JSC8JSObjectESt4pairIS3_PN7WebCore15JSEventListenerEENS_18PairFirstExtractorIS8_EENS_7PtrHashIS3_EENS_14PairHashTraitsINS_10HashTraitsIS3_EENSE_IS7_EEEESF_E6rehashEi
__ZN3WTF9HashTableIPN3JSC8JSObjectESt4pairIS3_PN7WebCore15JSEventListenerEENS_18PairFirstExtractorIS8_EENS_7PtrHashIS3_EENS_14PairHashTraitsINS_10HashTraitsIS3_EENSE_IS7_EEEESF_E6removeEPS8_
__ZN3WTF9HashTableIPN3JSC8JSObjectESt4pairIS3_PN7WebCore15JSEventListenerEENS_18PairFirstExtractorIS8_EENS_7PtrHashIS3_EENS_14PairHashTraitsINS_10HashTraitsIS3_EENSE_IS7_EEEESF_E47removeAndInvalidateWithoutEntryConsistencyCheckEPS8_
__ZN3WTF9HashTableIPN3JSC8JSObjectESt4pairIS3_PN7WebCore15JSEventListenerEENS_18PairFirstExtractorIS8_EENS_7PtrHashIS3_EENS_14PairHashTraitsINS_10HashTraitsIS3_EENSE_IS7_EEEESF_E6expandEv
__ZN3WTF9HashTableIPKN3JSC9ClassInfoESt4pairIS4_PNS1_8JSObjectEENS_18PairFirstExtractorIS8_EENS_7PtrHashIS4_EENS_14PairHashTraitsINS_10HashTraitsIS4_EENSE_IS7_EEEESF_E15deallocateTableEPS8_i
__ZN3WTF9HashTableIPKN3JSC9ClassInfoESt4pairIS4_PNS1_8JSObjectEENS_18PairFirstExtractorIS8_EENS_7PtrHashIS4_EENS_14PairHashTraitsINS_10HashTraitsIS4_EENSE_IS7_EEEESF_E13allocateTableEi
__ZN3WTF9HashTableIPKN3JSC9ClassInfoESt4pairIS4_PNS1_8JSObjectEENS_18PairFirstExtractorIS8_EENS_7PtrHashIS4_EENS_14PairHashTraitsINS_10HashTraitsIS4_EENSE_IS7_EEEESF_E6rehashEi
__ZN3WTF9HashTableIPKN3JSC9ClassInfoESt4pairIS4_PNS1_8JSObjectEENS_18PairFirstExtractorIS8_EENS_7PtrHashIS4_EENS_14PairHashTraitsINS_10HashTraitsIS4_EENSE_IS7_EEEESF_E6expandEv
__ZN3WTF9HashTableIPKN3JSC9ClassInfoESt4pairIS4_PNS1_8JSObjectEENS_18PairFirstExtractorIS8_EENS_7PtrHashIS4_EENS_14PairHashTraitsINS_10HashTraitsIS4_EENSE_IS7_EEEESF_E4findIS4_NS_22IdentityHashTranslatorIS4_S8_SC_EEEENS_17HashTableIteratorIS4_S8_SA_SC_SH_SF_EERKT_
__ZN3JSC14JSGlobalObject18JSGlobalObjectDataD2Ev
__ZN3WTF9HashTableIPN3JSC16ProgramCodeBlockES3_NS_17IdentityExtractorIS3_EENS_7PtrHashIS3_EENS_10HashTraitsIS3_EES9_E15deallocateTableEPS3_i
__ZN3WTF9HashTableINS_6RefPtrIN3JSC7UString3RepEEESt4pairIS5_NS2_16SymbolTableEntryEENS_18PairFirstExtractorIS8_EENS2_17IdentifierRepHashENS_14PairHashTraitsINS_10HashTraitsIS5_EENS2_26SymbolTableIndexHashTraitsEEESE_E15deallocateTableEPS8_i
__ZN3WTF9HashTableINS_6RefPtrIN3JSC7UString3RepEEESt4pairIS5_NS2_16SymbolTableEntryEENS_18PairFirstExtractorIS8_EENS2_17IdentifierRepHashENS_14PairHashTraitsINS_10HashTraitsIS5_EENS2_26SymbolTableIndexHashTraitsEEESE_E13allocateTableEi
__ZN3WTF9HashTableINS_6RefPtrIN3JSC7UString3RepEEESt4pairIS5_NS2_16SymbolTableEntryEENS_18PairFirstExtractorIS8_EENS2_17IdentifierRepHashENS_14PairHashTraitsINS_10HashTraitsIS5_EENS2_26SymbolTableIndexHashTraitsEEESE_E4findIPS4_NS_29RefPtrHashMapRawKeyTranslatorISJ_S8_SG_SB_EEEENS_17HashTableIteratorIS5_S8_SA_SB_SG_SE_EERKT_
__ZN3WTF9HashTableINS_6RefPtrIN3JSC7UString3RepEEESt4pairIS5_NS2_16SymbolTableEntryEENS_18PairFirstExtractorIS8_EENS2_17IdentifierRepHashENS_14PairHashTraitsINS_10HashTraitsIS5_EENS2_26SymbolTableIndexHashTraitsEEESE_E6rehashEi
__ZN3WTF9HashTableINS_6RefPtrIN3JSC7UString3RepEEESt4pairIS5_NS2_16SymbolTableEntryEENS_18PairFirstExtractorIS8_EENS2_17IdentifierRepHashENS_14PairHashTraitsINS_10HashTraitsIS5_EENS2_26SymbolTableIndexHashTraitsEEESE_E6expandEv
__ZN3WTF9HashTableINS_6RefPtrIN3JSC7UString3RepEEESt4pairIS5_NS2_16SymbolTableEntryEENS_18PairFirstExtractorIS8_EENS2_17IdentifierRepHashENS_14PairHashTraitsINS_10HashTraitsIS5_EENS2_26SymbolTableIndexHashTraitsEEESE_E4findIS5_NS_22IdentityHashTranslatorIS5_S8_SB_EEEENS_17HashTableIteratorIS5_S8_SA_SB_SG_SE_EERKT_
__ZN7WebCore15JSNodePrototypeD1Ev
__ZN7WebCore26JSEventTargetNodePrototypeD1Ev
__ZN7WebCore19JSDocumentPrototypeD1Ev
__ZN7WebCore23JSHTMLDocumentPrototypeD1Ev
__ZN7WebCore14JSHTMLDocumentD1Ev
__ZN7WebCore10JSDocumentD2Ev
__ZN7WebCore15forgetDOMObjectERN3JSC12JSGlobalDataEPv
__ZN3WTF7HashMapIPvPN7WebCore9DOMObjectENS_7PtrHashIS1_EENS_10HashTraitsIS1_EENS7_IS4_EEE4takeERKS1_
__ZN7WebCore6JSNodeD2Ev
__ZN7WebCore13forgetDOMNodeEPNS_8DocumentEPNS_4NodeE
__ZN3WTF7HashMapIPN7WebCore4NodeEPNS1_6JSNodeENS_7PtrHashIS3_EENS_10HashTraitsIS3_EENS8_IS5_EEE4takeERKS3_
__ZN7WebCore7CommentD0Ev
__ZN7WebCore15HTMLHeadElementD0Ev
__ZN7WebCore17HTMLScriptElementD0Ev
__ZN7WebCore17ScriptElementDataD1Ev
__ZN7WebCore17ScriptElementDataD2Ev
__ZN7WebCore17ScriptElementData15stopLoadRequestEv
__ZN7WebCore15HTMLLinkElementD0Ev
__ZN7WebCore5Cache27removeFromLiveResourcesSizeEPNS_14CachedResourceE
__ZN7WebCore19CachedCSSStyleSheet17allClientsRemovedEv
__ZNK7WebCore14CachedResource21isSafeToMakePurgeableEv
__ZN7WebCore16HTMLTitleElementD0Ev
__ZN7WebCore17HTMLIFrameElementD0Ev
__ZN7WebCore21HTMLFrameOwnerElementD2Ev
__ZN7WebCore13HTMLBRElementD0Ev
__ZN7WebCore16HTMLTableElementD0Ev
__ZN7WebCore15HTMLFormElementD0Ev
__ZN7WebCore15FormDataBuilderD1Ev
__ZN7WebCore15FormDataBuilderD2Ev
__ZN3WTF6VectorIPN7WebCore22HTMLFormControlElementELm0EE6shrinkEm
__ZN7WebCore15HTMLFontElementD0Ev
__ZN7WebCore23HTMLTableSectionElementD0Ev
__ZN7WebCore19HTMLTableRowElementD0Ev
__ZN7WebCore16HTMLImageElementD0Ev
__ZN7WebCore15HTMLFormElement16removeImgElementEPNS_16HTMLImageElementE
__ZN7WebCore15HTMLImageLoaderD1Ev
__ZN7WebCore15HTMLImageLoaderD2Ev
__ZN7WebCore11ImageLoaderD2Ev
__ZN7WebCore8Document27decrementTotalImageDataSizeEPNS_11CachedImageE
__ZN7WebCore11CachedImage17allClientsRemovedEv
__ZN7WebCore11BitmapImage14resetAnimationEv
__ZN7WebCore8Document11removeImageEPNS_11ImageLoaderE
__ZN7WebCore17HTMLSelectElementD0Ev
__ZN3WTF6VectorIPN7WebCore11HTMLElementELm0EE6shrinkEm
__ZN7WebCore31HTMLFormControlElementWithStateD2Ev
__ZN7WebCore27FormControlElementWithState37unregisterFormControlElementWithStateEPS0_PNS_8DocumentE
__ZN3WTF11ListHashSetIPN7WebCore27FormControlElementWithStateENS_7PtrHashIS3_EEE15unlinkAndDeleteEPNS_15ListHashSetNodeIS3_EE
__ZN7WebCore22HTMLFormControlElementD2Ev
__ZN7WebCore20HTMLParagraphElementD0Ev
__ZN7WebCore17HTMLOptionElementD0Ev
__ZN7WebCore17OptionElementDataD1Ev
__ZN7WebCore17OptionElementDataD2Ev
__ZN3WTF6VectorIPN7WebCore16HTMLImageElementELm0EE6shrinkEm
__ZN7WebCore16HTMLInputElementD0Ev
__ZN7WebCore16HTMLInputElement23needsActivationCallbackEv
__ZN7WebCore22HTMLFormControlElement14removeFromFormEv
__ZN7WebCore16InputElementDataD1Ev
__ZN7WebCore16InputElementDataD2Ev
__ZN7WebCore14CachedResource16deleteIfPossibleEv
__ZN3WTF6VectorINS_6RefPtrIN7WebCore10StyleSheetEEELm0EE6shrinkEm
__ZN3JSC16RuntimeObjectImpD1Ev
__ZN3JSC16RuntimeObjectImpD2Ev
__ZN7WebCore20JSNavigatorPrototypeD1Ev
__ZN7WebCore11JSNavigatorD1Ev
__ZN7WebCore11JSNavigatorD2Ev
__ZN7WebCore9NavigatorD0Ev
__ZN7WebCore13NavigatorBaseD2Ev
__ZN7WebCore16JSDOMWindowShellD1Ev
__ZN7WebCore16JSDOMWindowShellD2Ev
__ZN7WebCore15HTMLMetaElementD0Ev
__ZThn32_N7WebCore16HTMLInputElement23preDispatchEventHandlerEPNS_5EventE
__ZN7WebCore16HTMLInputElement23preDispatchEventHandlerEPNS_5EventE
__ZThn32_N7WebCore16HTMLInputElement24postDispatchEventHandlerEPNS_5EventEPv
__ZN7WebCore16HTMLInputElement24postDispatchEventHandlerEPNS_5EventEPv
__ZN7WebCore16HTMLInputElement19defaultEventHandlerEPNS_5EventE
__ZNK7WebCore5Event12isMouseEventEv
__ZNK7WebCore5Event25isBeforeTextInsertedEventEv
__ZN7WebCore9InlineBox10deleteLineEPNS_11RenderArenaE
__ZN7WebCore9RenderBox19setInlineBoxWrapperEPNS_9InlineBoxE
__ZN7WebCore11FrameLoader21startRedirectionTimerEv
__ZNK7WebCore9TimerBase16nextFireIntervalEv
__ZN7WebCore11FrameLoader16clientRedirectedERKNS_4KURLEddbb
__ZNK7WebCore4Page34inLowQualityImageInterpolationModeEv
__ZN3WTF7HashMapIPN7WebCore11RenderImageEPNS1_20RenderImageScaleDataENS_7PtrHashIS3_EENS_10HashTraitsIS3_EENS8_IS5_EEE3setERKS3_RKS5_
__ZN3WTF9HashTableIPN7WebCore11RenderImageESt4pairIS3_PNS1_20RenderImageScaleDataEENS_18PairFirstExtractorIS7_EENS_7PtrHashIS3_EENS_14PairHashTraitsINS_10HashTraitsIS3_EENSD_IS6_EEEESE_E15deallocateTableEPS7_i
__ZN3WTF9HashTableIPN7WebCore11RenderImageESt4pairIS3_PNS1_20RenderImageScaleDataEENS_18PairFirstExtractorIS7_EENS_7PtrHashIS3_EENS_14PairHashTraitsINS_10HashTraitsIS3_EENSD_IS6_EEEESE_E13allocateTableEi
__ZN3WTF9HashTableIPN7WebCore11RenderImageESt4pairIS3_PNS1_20RenderImageScaleDataEENS_18PairFirstExtractorIS7_EENS_7PtrHashIS3_EENS_14PairHashTraitsINS_10HashTraitsIS3_EENSD_IS6_EEEESE_E6rehashEi
__ZN3WTF9HashTableIPN7WebCore11RenderImageESt4pairIS3_PNS1_20RenderImageScaleDataEENS_18PairFirstExtractorIS7_EENS_7PtrHashIS3_EENS_14PairHashTraitsINS_10HashTraitsIS3_EENSD_IS6_EEEESE_E6removeEPS7_
__ZN3WTF9HashTableIPN7WebCore11RenderImageESt4pairIS3_PNS1_20RenderImageScaleDataEENS_18PairFirstExtractorIS7_EENS_7PtrHashIS3_EENS_14PairHashTraitsINS_10HashTraitsIS3_EENSD_IS6_EEEESE_E47removeAndInvalidateWithoutEntryConsistencyCheckEPS7_
__ZN3WTF9HashTableIPN7WebCore11RenderImageESt4pairIS3_PNS1_20RenderImageScaleDataEENS_18PairFirstExtractorIS7_EENS_7PtrHashIS3_EENS_14PairHashTraitsINS_10HashTraitsIS3_EENSD_IS6_EEEESE_E6expandEv
__ZN3WTF9HashTableIPN7WebCore11RenderImageESt4pairIS3_PNS1_20RenderImageScaleDataEENS_18PairFirstExtractorIS7_EENS_7PtrHashIS3_EENS_14PairHashTraitsINS_10HashTraitsIS3_EENSD_IS6_EEEESE_E4findIS3_NS_22IdentityHashTranslatorIS3_S7_SB_EEEENS_17HashTableIteratorIS3_S7_S9_SB_SG_SE_EERKT_
__ZNK7WebCore11BitmapImage10solidColorEv
__ZN7WebCore5Image18fillWithSolidColorEPNS_15GraphicsContextERKNS_9FloatRectERKNS_5ColorENS_17CompositeOperatorE
__ZNK3WTF7HashMapIPN7WebCore11RenderImageEPNS1_20RenderImageScaleDataENS_7PtrHashIS3_EENS_10HashTraitsIS3_EENS8_IS5_EEE3getERKS3_
__ZN7WebCore11FrameLoader33clientRedirectCancelledOrFinishedEb
__ZN7WebCore10HTMLParser24framesetCreateErrorCheckEPNS_5TokenERN3WTF6RefPtrINS_4NodeEEE
__ZN7WebCoreL19framesetConstructorERKNS_13QualifiedNameEPNS_8DocumentEPNS_15HTMLFormElementEb
__ZN7WebCore19HTMLFrameSetElementC1ERKNS_13QualifiedNameEPNS_8DocumentE
__ZN7WebCore19HTMLFrameSetElementC2ERKNS_13QualifiedNameEPNS_8DocumentE
__ZNK7WebCore19HTMLFrameSetElement10mapToEntryERKNS_13QualifiedNameERNS_20MappedAttributeEntryE
__ZN7WebCore19HTMLFrameSetElement20parseMappedAttributeEPNS_15MappedAttributeE
__ZN7WebCore14newLengthArrayERKNS_6StringERi
__ZNK7WebCore19HTMLFrameSetElement17endTagRequirementEv
__ZNK7WebCore19HTMLFrameSetElement11tagPriorityEv
__ZN7WebCore19HTMLFrameSetElement6attachEv
__ZN7WebCore19HTMLFrameSetElement16rendererIsNeededEPNS_11RenderStyleE
__ZNK7WebCore11RenderStyle16isStyleAvailableEv
__ZN7WebCore19HTMLFrameSetElement14createRendererEPNS_11RenderArenaEPNS_11RenderStyleE
__ZN7WebCore14RenderFrameSetC1EPNS_19HTMLFrameSetElementE
__ZN7WebCore14RenderFrameSetC2EPNS_19HTMLFrameSetElementE
__ZN7WebCore14RenderFrameSet8GridAxisC1Ev
__ZN7WebCore14RenderFrameSet8GridAxisC2Ev
__ZN7WebCore19HTMLFrameSetElement8checkDTDEPKNS_4NodeE
__ZNK7WebCore14RenderFrameSet10isFrameSetEv
__ZN7WebCoreL16frameConstructorERKNS_13QualifiedNameEPNS_8DocumentEPNS_15HTMLFormElementEb
__ZN7WebCore16HTMLFrameElementC1ERKNS_13QualifiedNameEPNS_8DocumentEb
__ZN7WebCore16HTMLFrameElementC2ERKNS_13QualifiedNameEPNS_8DocumentEb
__ZN7WebCore16HTMLFrameElement20parseMappedAttributeEPNS_15MappedAttributeE
__ZNK7WebCore16HTMLFrameElement17endTagRequirementEv
__ZNK7WebCore16HTMLFrameElement11tagPriorityEv
__ZN7WebCore16HTMLFrameElement6attachEv
__ZN7WebCore16HTMLFrameElement16rendererIsNeededEPNS_11RenderStyleE
__ZN7WebCore16HTMLFrameElement14createRendererEPNS_11RenderArenaEPNS_11RenderStyleE
__ZN7WebCore11RenderFrameC1EPNS_16HTMLFrameElementE
__ZN7WebCore11RenderFrameC2EPNS_16HTMLFrameElementE
__ZNK7WebCore14RenderFrameSet14isChildAllowedEPNS_12RenderObjectEPNS_11RenderStyleE
__ZNK7WebCore11RenderFrame7isFrameEv
__ZN3WTF6VectorIPN7WebCore5FrameELm16EE6shrinkEm
__ZN7WebCore11RenderFrame11viewClearedEv
__ZNK7WebCore12RenderWidget8isWidgetEv
__ZN7WebCore17HTMLAnchorElement7setHrefERKNS_12AtomicStringE
__ZN7WebCore11CachedImage17stopAnimatedImageEv
__ZN7WebCore11BitmapImage21disableImageAnimationEv
__ZN7WebCore14RenderFrameSet6layoutEv
__ZN7WebCore14RenderFrameSet8GridAxis6resizeEi
__ZN3WTF6VectorIbLm0EE6resizeEm
__ZN3WTF6VectorIbLm0EE14expandCapacityEm
__ZN3WTF6VectorIbLm0EE15reserveCapacityEm
__ZN7WebCore14RenderFrameSet10layOutAxisERNS0_8GridAxisEPKNS_6LengthEi
__ZNK7WebCore14RenderFrameSet15flattenFramesetEv
__ZN7WebCore14RenderFrameSet28positionFramesWithFlatteningEv
__ZN7WebCore11RenderFrame20layoutWithFlatteningEbb
__ZN7WebCore10RenderView14calcPrefWidthsEv
__ZNK7WebCore5Frame10isFrameSetEv
__ZN7WebCore11RenderBlock19adjustFloatingBlockERKNS0_10MarginInfoE
__ZNK7WebCore9RenderBox12overflowRectEb
__ZN7WebCore14RenderFrameSet15computeEdgeInfoEv
__ZN3WTF6VectorIbLm0EE4fillERKbm
__ZSt4fillIPbbEvT_S1_RKT0_
__ZNK7WebCore11RenderFrame8edgeInfoEv
__ZN3WTF6VectorIbLm0EEaSERKS1_
__ZN3WTF6VectorIbLm0EE6shrinkEm
__ZN7WebCore14RenderFrameSet16fillFromEdgeInfoERKNS_13FrameEdgeInfoEii
__ZNK7WebCore9RenderBox12maxTopMarginEb
__ZNK7WebCore9RenderBox21isSelfCollapsingBlockEv
__ZNK7WebCore9RenderBox16isTopMarginQuirkEv
__ZNK7WebCore9RenderBox15maxBottomMarginEb
__ZN7WebCore12RenderObject14containsFloatsEv
__ZNK7WebCore9RenderBox11overflowTopEb
__ZNK7WebCore9RenderBox14overflowHeightEb
__ZNK7WebCore9RenderBox13overflowWidthEb
__ZNK7WebCore9RenderBox12overflowLeftEb
__ZN7WebCore14RenderFrameSet5paintERNS_12RenderObject9PaintInfoEii
__ZN3WTF7HashMapIPN7WebCore11RenderImageEPNS1_20RenderImageScaleDataENS_7PtrHashIS3_EENS_10HashTraitsIS3_EENS8_IS5_EEE4takeERKS3_
__ZN7WebCore11RenderFrameD0Ev
__ZN7WebCore15HTMLImageLoaderD0Ev
__ZN7WebCore14RenderFrameSetD0Ev
__ZN7WebCoreL14preConstructorERKNS_13QualifiedNameEPNS_8DocumentEPNS_15HTMLFormElementEb
__ZN7WebCore14HTMLPreElementC1ERKNS_13QualifiedNameEPNS_8DocumentE
__ZN7WebCore14HTMLPreElementC2ERKNS_13QualifiedNameEPNS_8DocumentE
__ZNK7WebCore14HTMLPreElement17endTagRequirementEv
__ZNK7WebCore14HTMLPreElement11tagPriorityEv
__ZN7WebCore19HTMLFrameSetElementD0Ev
__ZN7WebCore16HTMLFrameElementD0Ev
__ZN7WebCore12SharedBuffer6appendEPKci
__ZN7WebCore12SharedBuffer25maybeTransferPlatformDataEv
__ZN7WebCore9PageCache6removeEPNS_11HistoryItemE
__ZN7WebCore9PageCache11autoreleaseEN3WTF10PassRefPtrINS_10CachedPageEEE
__ZN3WTF7HashSetINS_6RefPtrIN7WebCore10CachedPageEEENS_7PtrHashIS4_EENS_10HashTraitsIS4_EEE3addERKS4_
__ZN7WebCore9PageCache17removeFromLRUListEPNS_11HistoryItemE
__ZN7WebCoreL16styleConstructorERKNS_13QualifiedNameEPNS_8DocumentEPNS_15HTMLFormElementEb
__ZN7WebCore16HTMLStyleElementC1ERKNS_13QualifiedNameEPNS_8DocumentEb
__ZN7WebCore16HTMLStyleElementC2ERKNS_13QualifiedNameEPNS_8DocumentEb
__ZN7WebCore12StyleElementC2Ev
__ZN7WebCore16HTMLStyleElement20parseMappedAttributeEPNS_15MappedAttributeE
__ZNK7WebCore16HTMLStyleElement17endTagRequirementEv
__ZNK7WebCore16HTMLStyleElement11tagPriorityEv
__ZN7WebCore16HTMLStyleElement20insertedIntoDocumentEv
__ZN7WebCore16HTMLStyleElement8checkDTDEPKNS_4NodeE
__ZN7WebCore16HTMLStyleElement15childrenChangedEbPNS_4NodeES2_i
__ZN7WebCore16HTMLStyleElement21finishParsingChildrenEv
__ZN7WebCore12StyleElement7processEPNS_7ElementE
__ZN7WebCore12StyleElement11createSheetEPNS_7ElementERKNS_6StringE
__ZThn56_NK7WebCore16HTMLStyleElement4typeEv
__ZNK7WebCore16HTMLStyleElement4typeEv
__ZThn56_NK7WebCore16HTMLStyleElement5mediaEv
__ZNK7WebCore16HTMLStyleElement5mediaEv
__ZThn56_N7WebCore16HTMLStyleElement10setLoadingEb
__ZN7WebCore16HTMLStyleElement10setLoadingEb
__ZN7WebCore16HTMLStyleElement11sheetLoadedEv
__ZNK7WebCore16HTMLStyleElement9isLoadingEv
__ZN7WebCore16HTMLStyleElement5sheetEv
__ZN7WebCore12StyleElement5sheetEPNS_7ElementE
__ZN7WebCore16jsDocumentImagesEPN3JSC9ExecStateERKNS0_10IdentifierERKNS0_12PropertySlotE
__ZN7WebCore8Document6imagesEv
__ZN7WebCore4toJSEPN3JSC9ExecStateEPNS_14HTMLCollectionE
__ZN7WebCore16JSHTMLCollection15createPrototypeEPN3JSC9ExecStateE
__ZN7WebCore16JSHTMLCollectionC1EN3WTF10PassRefPtrIN3JSC9StructureEEENS2_INS_14HTMLCollectionEEE
__ZN7WebCore16JSHTMLCollectionC2EN3WTF10PassRefPtrIN3JSC9StructureEEENS2_INS_14HTMLCollectionEEE
__ZL20jsDOMWindowBaseImagePN3JSC9ExecStateERKNS_10IdentifierERKNS_12PropertySlotE
__ZNK3WTF7HashMapIPKN3JSC9ClassInfoEPNS1_8JSObjectENS_7PtrHashIS4_EENS_10HashTraitsIS4_EENS9_IS6_EEE3getERKS4_
__ZNK7WebCore15JSDOMWindowBase22scriptExecutionContextEv
__ZN7WebCore18JSImageConstructorC1EPN3JSC9ExecStateEPNS_22ScriptExecutionContextE
__ZN7WebCore18JSImageConstructorC2EPN3JSC9ExecStateEPNS_22ScriptExecutionContextE
__ZN7WebCore27JSHTMLImageElementPrototype4selfEPN3JSC9ExecStateE
__ZN7WebCore18JSHTMLImageElement15createPrototypeEPN3JSC9ExecStateE
__ZN7WebCore22JSHTMLElementPrototype4selfEPN3JSC9ExecStateE
__ZN7WebCore13JSHTMLElement15createPrototypeEPN3JSC9ExecStateE
__ZN7WebCore18JSElementPrototype4selfEPN3JSC9ExecStateE
__ZN7WebCore9JSElement15createPrototypeEPN3JSC9ExecStateE
__ZN3WTF7HashMapIPKN3JSC9ClassInfoEPNS1_8JSObjectENS_7PtrHashIS4_EENS_10HashTraitsIS4_EENS9_IS6_EEE3setERKS4_RKS6_
__ZN7WebCore18JSImageConstructor16getConstructDataERN3JSC13ConstructDataE
__ZN7WebCoreL14constructImageEPN3JSC9ExecStateEPNS0_8JSObjectERKNS0_7ArgListE
__ZN7WebCore4toJSEPN3JSC9ExecStateEPNS_4NodeE
__ZN7WebCore23getCachedDOMNodeWrapperEPNS_8DocumentEPNS_4NodeE
__ZNK3WTF7HashMapIPN7WebCore4NodeEPNS1_6JSNodeENS_7PtrHashIS3_EENS_10HashTraitsIS3_EENS8_IS5_EEE3getERKS3_
__ZN7WebCore19createJSHTMLWrapperEPN3JSC9ExecStateEN3WTF10PassRefPtrINS_11HTMLElementEEE
__ZN3WTF7HashMapIPN7WebCore16AtomicStringImplEPFPNS1_6JSNodeEPN3JSC9ExecStateENS_10PassRefPtrINS1_11HTMLElementEEEENS_7PtrHashIS3_EENS_10HashTraitsIS3_EENSG_ISD_EEE3setERKS3_RKSD_
__ZN3WTF9HashTableIPN7WebCore16AtomicStringImplESt4pairIS3_PFPNS1_6JSNodeEPN3JSC9ExecStateENS_10PassRefPtrINS1_11HTMLElementEEEEENS_18PairFirstExtractorISF_EENS_7PtrHashIS3_EENS_14PairHashTraitsINS_10HashTraitsIS3_EENSL_ISE_EEEESM_E15deallocateTableEPSF_i
__ZN3WTF9HashTableIPN7WebCore16AtomicStringImplESt4pairIS3_PFPNS1_6JSNodeEPN3JSC9ExecStateENS_10PassRefPtrINS1_11HTMLElementEEEEENS_18PairFirstExtractorISF_EENS_7PtrHashIS3_EENS_14PairHashTraitsINS_10HashTraitsIS3_EENSL_ISE_EEEESM_E13allocateTableEi
__ZN3WTF9HashTableIPN7WebCore16AtomicStringImplESt4pairIS3_PFPNS1_6JSNodeEPN3JSC9ExecStateENS_10PassRefPtrINS1_11HTMLElementEEEEENS_18PairFirstExtractorISF_EENS_7PtrHashIS3_EENS_14PairHashTraitsINS_10HashTraitsIS3_EENSL_ISE_EEEESM_E6rehashEi
__ZN3WTF9HashTableIPN7WebCore16AtomicStringImplESt4pairIS3_PFPNS1_6JSNodeEPN3JSC9ExecStateENS_10PassRefPtrINS1_11HTMLElementEEEEENS_18PairFirstExtractorISF_EENS_7PtrHashIS3_EENS_14PairHashTraitsINS_10HashTraitsIS3_EENSL_ISE_EEEESM_E6expandEv
__ZN3WTF9HashTableIPN7WebCore16AtomicStringImplESt4pairIS3_PFPNS1_6JSNodeEPN3JSC9ExecStateENS_10PassRefPtrINS1_11HTMLElementEEEEENS_18PairFirstExtractorISF_EENS_7PtrHashIS3_EENS_14PairHashTraitsINS_10HashTraitsIS3_EENSL_ISE_EEEESM_E4findIS3_NS_22IdentityHashTranslatorIS3_SF_SJ_EEEENS_17HashTableIteratorIS3_SF_SH_SJ_SO_SM_EERKT_
__ZNK3WTF7HashMapIPN7WebCore16AtomicStringImplEPFPNS1_6JSNodeEPN3JSC9ExecStateENS_10PassRefPtrINS1_11HTMLElementEEEENS_7PtrHashIS3_EENS_10HashTraitsIS3_EENSG_ISD_EEE3getERKS3_
__ZN7WebCoreL29createHTMLImageElementWrapperEPN3JSC9ExecStateEN3WTF10PassRefPtrINS_11HTMLElementEEE
__ZN7WebCore18JSHTMLImageElementC1EN3WTF10PassRefPtrIN3JSC9StructureEEENS2_INS_16HTMLImageElementEEE
__ZN7WebCore18JSHTMLImageElementC2EN3WTF10PassRefPtrIN3JSC9StructureEEENS2_INS_16HTMLImageElementEEE
__ZN7WebCore13JSHTMLElementC2EN3WTF10PassRefPtrIN3JSC9StructureEEENS2_INS_11HTMLElementEEE
__ZN7WebCore9JSElementC2EN3WTF10PassRefPtrIN3JSC9StructureEEENS2_INS_7ElementEEE
__ZN7WebCore19cacheDOMNodeWrapperEPNS_8DocumentEPNS_4NodeEPNS_6JSNodeE
__ZN3WTF7HashMapIPN7WebCore4NodeEPNS1_6JSNodeENS_7PtrHashIS3_EENS_10HashTraitsIS3_EENS8_IS5_EEE3setERKS3_RKS5_
__ZN7WebCore18JSHTMLImageElement3putEPN3JSC9ExecStateERKNS1_10IdentifierENS1_10JSValuePtrERNS1_15PutPropertySlotE
__ZN7WebCore24setJSHTMLImageElementSrcEPN3JSC9ExecStateEPNS0_8JSObjectENS0_10JSValuePtrE
__ZN7WebCore26valueToStringWithNullCheckEPN3JSC9ExecStateENS0_10JSValuePtrE
__ZN7WebCore16HTMLImageElement6setSrcERKNS_6StringE
__ZN7WebCore13StyledElement19addCSSImagePropertyEPNS_15MappedAttributeEiRKNS_6StringE
__ZN7WebCore26CSSMutableStyleDeclaration16setImagePropertyEiRKNS_6StringEb
__ZN7WebCore13ScriptElement21handleSourceAttributeERNS_17ScriptElementDataERKNS_6StringE
__ZNK7WebCore17ScriptElementData18ignoresLoadRequestEv
__ZN7WebCore9DocLoader13requestScriptERKNS_6StringES3_
__ZN7WebCore12CachedScriptC1ERKNS_6StringES3_
__ZN7WebCore12CachedScriptC2ERKNS_6StringES3_
__ZN3WTF5DequeIN7WebCore20CachedResourceHandleINS1_12CachedScriptEEEE14expandCapacityEv
__ZN7WebCore12CachedScript9addClientEPNS_20CachedResourceClientE
__ZN7WebCore14PreloadScannerC1EPNS_8DocumentE
__ZN7WebCore14PreloadScannerC2EPNS_8DocumentE
__ZN7WebCore14PreloadScanner5beginEv
__ZN7WebCore14PreloadScanner5resetEv
__ZN3WTF6VectorItLm32EE14shrinkCapacityEm
__ZN3WTF6VectorItLm16EE14shrinkCapacityEm
__ZN7WebCore14PreloadScanner5writeERKNS_15SegmentedStringE
__ZN7WebCore14PreloadScanner8tokenizeERKNS_15SegmentedStringE
__ZN7WebCore14PreloadScanner16processAttributeEv
__ZN7WebCore14PreloadScanner7emitTagEv
__ZN3WTF5DequeIN7WebCore18SegmentedSubstringEE14expandCapacityEv
__ZN3WTF6VectorItLm32EE6shrinkEm
__ZN7WebCore14PreloadScanner13consumeEntityERNS_15SegmentedStringERb
__ZN3WTF6VectorIcLm10EE6shrinkEm
__ZN3WTF6VectorItLm10EE6shrinkEm
__ZNK7WebCore14PreloadScanner12scanningBodyEv
__ZN7WebCore9DocLoader7preloadENS_14CachedResource4TypeERKNS_6StringES5_b
__ZN7WebCore9DocLoader14requestPreloadENS_14CachedResource4TypeERKNS_6StringES5_
__ZNK3WTF9HashTableIPNS_15ListHashSetNodeIPN7WebCore14CachedResourceEEES6_NS_17IdentityExtractorIS6_EENS_28ListHashSetNodeHashFunctionsIS4_NS_7PtrHashIS4_EEEENS_10HashTraitsIS6_EESE_E8containsIS4_NS_21ListHashSetTranslatorIS4_SB_EEEEbRKT_
__ZN3WTF11ListHashSetIPN7WebCore14CachedResourceENS_7PtrHashIS3_EEE3addERKS3_
__ZN3WTF11ListHashSetIPN7WebCore14CachedResourceENS_7PtrHashIS3_EEE10appendNodeEPNS_15ListHashSetNodeIS3_EE
__ZN7WebCore18JSImageConstructor4markEv
__ZN7WebCore16JSHTMLCollectionD1Ev
__ZN7WebCore16JSHTMLCollectionD2Ev
__ZN7WebCore12CachedScript4dataEN3WTF10PassRefPtrINS_12SharedBufferEEEb
__ZN7WebCore12CachedScript11checkNotifyEv
__ZThn8_N7WebCore13HTMLTokenizer14notifyFinishedEPNS_14CachedResourceE
__ZN7WebCore13HTMLTokenizer14notifyFinishedEPNS_14CachedResourceE
__ZNK7WebCore26CachedScriptSourceProvider6lengthEv
__ZN7WebCore12CachedScript6scriptEv
__ZNK7WebCore12TextEncoding6decodeEPKcmbRb
__ZNK7WebCore26CachedScriptSourceProvider4dataEv
__ZNK7WebCore15JSDOMWindowBase12toThisObjectEPN3JSC9ExecStateE
__ZNK7WebCore15JSDOMWindowBase5shellEv
__ZN7WebCore21jsNavigatorAppVersionEPN3JSC9ExecStateERKNS0_10IdentifierERKNS0_12PropertySlotE
__ZNK7WebCore11JSNavigator10appVersionEPN3JSC9ExecStateE
__ZNK7WebCore9Navigator10appVersionEv
__ZNK7WebCore13NavigatorBase10appVersionEv
__ZNK7WebCore9Navigator9userAgentEv
__ZNK7WebCore11FrameLoader9userAgentERKNS_4KURLE
__ZN7WebCore20jsNavigatorUserAgentEPN3JSC9ExecStateERKNS0_10IdentifierERKNS0_12PropertySlotE
__ZN7WebCore10HTMLParser39handleResidualStyleCloseTagAcrossBlocksEPNS_13HTMLStackElemE
__ZN7WebCore11HTMLElement9cloneNodeEb
__ZN7WebCore13StyledElement26copyNonAttributePropertiesEPKNS_7ElementE
__ZN7WebCore10HTMLParser19moveOneBlockToStackERPNS_13HTMLStackElemE
__ZN7WebCore12NamedAttrMap13setAttributesERKS0_
__ZN3WTF6VectorINS_6RefPtrIN7WebCore9AttributeEEELm0EE6resizeEm
__ZNK7WebCore15MappedAttribute5cloneEv
__ZNK7WebCore20HTMLParagraphElement10mapToEntryERKNS_13QualifiedNameERNS_20MappedAttributeEntryE
__ZN7WebCore20HTMLParagraphElement20parseMappedAttributeEPNS_15MappedAttributeE
__ZN7WebCore10HTMLParser29nestedPCloserCreateErrorCheckEPNS_5TokenERN3WTF6RefPtrINS_4NodeEEE
__ZN7WebCoreL13liConstructorERKNS_13QualifiedNameEPNS_8DocumentEPNS_15HTMLFormElementEb
__ZN7WebCore13HTMLLIElementC1ERKNS_13QualifiedNameEPNS_8DocumentE
__ZN7WebCore13HTMLLIElementC2ERKNS_13QualifiedNameEPNS_8DocumentE
__ZNK7WebCore13HTMLLIElement17endTagRequirementEv
__ZNK7WebCore13HTMLLIElement11tagPriorityEv
__ZN7WebCore13HTMLLIElement6attachEv
__ZN7WebCore14RenderListItemC1EPNS_4NodeE
__ZN7WebCore14RenderListItemC2EPNS_4NodeE
__ZN7WebCore14RenderListItem14styleDidChangeENS_15StyleDifferenceEPKNS_11RenderStyleE
__ZN7WebCore16RenderListMarkerC1EPNS_14RenderListItemE
__ZN7WebCore16RenderListMarkerC2EPNS_14RenderListItemE
__ZN7WebCore16RenderListMarker15styleWillChangeENS_15StyleDifferenceEPKNS_11RenderStyleE
__ZN7WebCore16RenderListMarker14styleDidChangeENS_15StyleDifferenceEPKNS_11RenderStyleE
__ZNK7WebCore14RenderListItem10isListItemEv
__ZN7WebCoreL23updateListMarkerNumbersEPNS_12RenderObjectE
__ZN7WebCore14RenderListItem18clearExplicitValueEv
__ZN7WebCore14RenderListItem11updateValueEv
__ZNK3WTF9HashTableIPN7WebCore16AtomicStringImplESt4pairIS3_iENS_18PairFirstExtractorIS5_EENS_7PtrHashIS3_EENS_14PairHashTraitsINS_10HashTraitsIS3_EENSB_IiEEEESC_E8containsIS3_NS_22IdentityHashTranslatorIS3_S5_S9_EEEEbRKT_
__ZN7WebCore14JSHTMLDocument10nameGetterEPN3JSC9ExecStateERKNS1_10IdentifierERKNS1_12PropertySlotE
__ZN7WebCore6StringC1ERKN3JSC10IdentifierE
__ZN7WebCore6StringC2ERKN3JSC10IdentifierE
__ZN7WebCore8Document18documentNamedItemsERKNS_6StringE
__ZN7WebCore18HTMLNameCollectionC1EN3WTF10PassRefPtrINS_8DocumentEEENS_14HTMLCollection4TypeERKNS_6StringE
__ZN7WebCore18HTMLNameCollectionC2EN3WTF10PassRefPtrINS_8DocumentEEENS_14HTMLCollection4TypeERKNS_6StringE
__ZN7WebCore8Document18nameCollectionInfoENS_14HTMLCollection4TypeERKNS_12AtomicStringE
__ZN3WTF9HashTableIPN7WebCore16AtomicStringImplESt4pairIS3_PNS1_14HTMLCollection14CollectionInfoEENS_18PairFirstExtractorIS8_EENS_7PtrHashIS3_EENS_14PairHashTraitsINS_10HashTraitsIS3_EENSE_IS7_EEEESF_E4findIS3_NS_22IdentityHashTranslatorIS3_S8_SC_EEEENS_17HashTableIteratorIS3_S8_SA_SC_SH_SF_EERKT_
__ZN3WTF9HashTableIPN7WebCore16AtomicStringImplESt4pairIS3_PNS1_14HTMLCollection14CollectionInfoEENS_18PairFirstExtractorIS8_EENS_7PtrHashIS3_EENS_14PairHashTraitsINS_10HashTraitsIS3_EENSE_IS7_EEEESF_E15deallocateTableEPS8_i
__ZN3WTF9HashTableIPN7WebCore16AtomicStringImplESt4pairIS3_PNS1_14HTMLCollection14CollectionInfoEENS_18PairFirstExtractorIS8_EENS_7PtrHashIS3_EENS_14PairHashTraitsINS_10HashTraitsIS3_EENSE_IS7_EEEESF_E13allocateTableEi
__ZN3WTF9HashTableIPN7WebCore16AtomicStringImplESt4pairIS3_PNS1_14HTMLCollection14CollectionInfoEENS_18PairFirstExtractorIS8_EENS_7PtrHashIS3_EENS_14PairHashTraitsINS_10HashTraitsIS3_EENSE_IS7_EEEESF_E6rehashEi
__ZN3WTF9HashTableIPN7WebCore16AtomicStringImplESt4pairIS3_PNS1_14HTMLCollection14CollectionInfoEENS_18PairFirstExtractorIS8_EENS_7PtrHashIS3_EENS_14PairHashTraitsINS_10HashTraitsIS3_EENSE_IS7_EEEESF_E6expandEv
__ZN3WTF7HashMapIPN7WebCore16AtomicStringImplEPNS1_14HTMLCollection14CollectionInfoENS_7PtrHashIS3_EENS_10HashTraitsIS3_EENS9_IS6_EEE3addERKS3_RKS6_
__ZN7WebCore14HTMLCollectionC2EN3WTF10PassRefPtrINS_4NodeEEENS0_4TypeEPNS0_14CollectionInfoE
__ZNK7WebCore18HTMLNameCollection9itemAfterEPNS_7ElementE
__ZNK7WebCore14HTMLCollection9firstItemEv
__ZN7WebCoreL28createHTMLFormElementWrapperEPN3JSC9ExecStateEN3WTF10PassRefPtrINS_11HTMLElementEEE
__ZN7WebCore17JSHTMLFormElement15createPrototypeEPN3JSC9ExecStateE
__ZN7WebCore17JSHTMLFormElementC1EN3WTF10PassRefPtrIN3JSC9StructureEEENS2_INS_15HTMLFormElementEEE
__ZN7WebCore17JSHTMLFormElementC2EN3WTF10PassRefPtrIN3JSC9StructureEEENS2_INS_15HTMLFormElementEEE
__ZN7WebCore18HTMLNameCollectionD0Ev
__ZN7WebCore14HTMLCollectionD2Ev
__ZN7WebCore17JSHTMLFormElement18getOwnPropertySlotEPN3JSC9ExecStateERKNS1_10IdentifierERNS1_12PropertySlotE
__ZN7WebCore17JSHTMLFormElement18canGetItemsForNameEPN3JSC9ExecStateEPNS_15HTMLFormElementERKNS1_10IdentifierE
__ZN7WebCore15HTMLFormElement16getNamedElementsERKNS_12AtomicStringERN3WTF6VectorINS4_6RefPtrINS_4NodeEEELm0EEE
__ZN7WebCore15HTMLFormElement8elementsEv
__ZN7WebCore18HTMLFormCollection6createEN3WTF10PassRefPtrINS_15HTMLFormElementEEE
__ZN7WebCore18HTMLFormCollectionC1EN3WTF10PassRefPtrINS_15HTMLFormElementEEE
__ZN7WebCore18HTMLFormCollectionC2EN3WTF10PassRefPtrINS_15HTMLFormElementEEE
__ZNK7WebCore14HTMLCollection10namedItemsERKNS_12AtomicStringERN3WTF6VectorINS4_6RefPtrINS_4NodeEEELm0EEE
__ZNK7WebCore18HTMLFormCollection15updateNameCacheEv
__ZNK7WebCore16HTMLInputElement14isEnumeratableEv
__ZNK3WTF7HashMapIPN7WebCore16AtomicStringImplEPNS_6VectorIPNS1_7ElementELm0EEENS_7PtrHashIS3_EENS_10HashTraitsIS3_EENSB_IS8_EEE3getERKS3_
__ZN3WTF7HashMapIPN7WebCore16AtomicStringImplEPNS_6VectorIPNS1_7ElementELm0EEENS_7PtrHashIS3_EENS_10HashTraitsIS3_EENSB_IS8_EEE3addERKS3_RKS8_
__ZN3WTF6VectorIPN7WebCore7ElementELm0EE14expandCapacityEm
__ZN3WTF6VectorIPN7WebCore7ElementELm0EE15reserveCapacityEm
__ZN7WebCore18HTMLFormCollectionD0Ev
__ZN7WebCore15HTMLFormElement15elementForAliasERKNS_12AtomicStringE
__ZN7WebCore15HTMLFormElement15addElementAliasEPNS_22HTMLFormControlElementERKNS_12AtomicStringE
__ZN3WTF7HashMapINS_6RefPtrIN7WebCore16AtomicStringImplEEENS1_INS2_22HTMLFormControlElementEEENS_7PtrHashIS4_EENS_10HashTraitsIS4_EENS9_IS6_EEE3setEPS3_RKS6_
__ZN3WTF9HashTableINS_6RefPtrIN7WebCore16AtomicStringImplEEESt4pairIS4_NS1_INS2_22HTMLFormControlElementEEEENS_18PairFirstExtractorIS8_EENS_7PtrHashIS4_EENS_14PairHashTraitsINS_10HashTraitsIS4_EENSE_IS7_EEEESF_E13allocateTableEi
__ZN3WTF9HashTableINS_6RefPtrIN7WebCore16AtomicStringImplEEESt4pairIS4_NS1_INS2_22HTMLFormControlElementEEEENS_18PairFirstExtractorIS8_EENS_7PtrHashIS4_EENS_14PairHashTraitsINS_10HashTraitsIS4_EENSE_IS7_EEEESF_E15deallocateTableEPS8_i
__ZN3WTF9HashTableINS_6RefPtrIN7WebCore16AtomicStringImplEEESt4pairIS4_NS1_INS2_22HTMLFormControlElementEEEENS_18PairFirstExtractorIS8_EENS_7PtrHashIS4_EENS_14PairHashTraitsINS_10HashTraitsIS4_EENSE_IS7_EEEESF_E4findIS4_NS_22IdentityHashTranslatorIS4_S8_SC_EEEENS_17HashTableIteratorIS4_S8_SA_SC_SH_SF_EERKT_
__ZN3WTF9HashTableINS_6RefPtrIN7WebCore16AtomicStringImplEEESt4pairIS4_NS1_INS2_22HTMLFormControlElementEEEENS_18PairFirstExtractorIS8_EENS_7PtrHashIS4_EENS_14PairHashTraitsINS_10HashTraitsIS4_EENSE_IS7_EEEESF_E6rehashEi
__ZN3WTF9HashTableINS_6RefPtrIN7WebCore16AtomicStringImplEEESt4pairIS4_NS1_INS2_22HTMLFormControlElementEEEENS_18PairFirstExtractorIS8_EENS_7PtrHashIS4_EENS_14PairHashTraitsINS_10HashTraitsIS4_EENSE_IS7_EEEESF_E6expandEv
__ZN7WebCore17JSHTMLFormElement10nameGetterEPN3JSC9ExecStateERKNS1_10IdentifierERKNS1_12PropertySlotE
__ZNK3WTF7HashMapINS_6RefPtrIN7WebCore16AtomicStringImplEEENS1_INS2_22HTMLFormControlElementEEENS_7PtrHashIS4_EENS_10HashTraitsIS4_EENS9_IS6_EEE3getEPS3_
__ZN7WebCoreL29createHTMLInputElementWrapperEPN3JSC9ExecStateEN3WTF10PassRefPtrINS_11HTMLElementEEE
__ZN7WebCore18JSHTMLInputElement15createPrototypeEPN3JSC9ExecStateE
__ZN7WebCore18JSHTMLInputElementC1EN3WTF10PassRefPtrIN3JSC9StructureEEENS2_INS_16HTMLInputElementEEE
__ZN7WebCore18JSHTMLInputElementC2EN3WTF10PassRefPtrIN3JSC9StructureEEENS2_INS_16HTMLInputElementEEE
__ZN7WebCore16jsDocumentCookieEPN3JSC9ExecStateERKNS0_10IdentifierERKNS0_12PropertySlotE
__ZNK7WebCore8Document6cookieEv
__ZN7WebCore7cookiesEPKNS_8DocumentERKNS_4KURLE
__ZN7WebCoreL13filterCookiesEP7NSArray
__ZN7WebCore18JSHTMLInputElement3putEPN3JSC9ExecStateERKNS1_10IdentifierENS1_10JSValuePtrERNS1_15PutPropertySlotE
__ZN7WebCore26setJSHTMLInputElementValueEPN3JSC9ExecStateEPNS0_8JSObjectENS0_10JSValuePtrE
__ZN7WebCore16HTMLInputElement8setValueERKNS_6StringE
__ZN7WebCore12InputElement27updatePlaceholderVisibilityERNS_16InputElementDataEPNS_8DocumentEb
__ZThn72_NK7WebCore16HTMLInputElement16placeholderValueEv
__ZNK7WebCore16HTMLInputElement16placeholderValueEv
__ZN7WebCore12RenderObject16setStyleInternalEN3WTF10PassRefPtrINS_11RenderStyleEEE
__ZN7WebCore16HTMLInputElement14cacheSelectionEii
__ZN7WebCore5Frame22formElementDidSetValueEPNS_7ElementE
__ZN7WebCore14JSHTMLDocument3putEPN3JSC9ExecStateERKNS1_10IdentifierENS1_10JSValuePtrERNS1_15PutPropertySlotE
__ZN7WebCore10JSDocument3putEPN3JSC9ExecStateERKNS1_10IdentifierENS1_10JSValuePtrERNS1_15PutPropertySlotE
__ZN7WebCore17JSEventTargetNode3putEPN3JSC9ExecStateERKNS1_10IdentifierENS1_10JSValuePtrERNS1_15PutPropertySlotE
__ZN7WebCore6JSNode3putEPN3JSC9ExecStateERKNS1_10IdentifierENS1_10JSValuePtrERNS1_15PutPropertySlotE
__ZN7WebCore15FormDataBuilder17parseEncodingTypeERKNS_6StringE
__ZN7WebCore26CachedScriptSourceProviderD0Ev
__ZN7WebCore12CachedScript17allClientsRemovedEv
__ZN7WebCore5TimerINS_12CachedScriptEE5firedEv
__ZN7WebCore12CachedScript29decodedDataDeletionTimerFiredEPNS_5TimerIS0_EE
__ZN7WebCore12CachedScript18destroyDecodedDataEv
__ZN7WebCore14PreloadScannerD1Ev
__ZN7WebCore14PreloadScannerD2Ev
__ZN7WebCore14RenderListItem14calcPrefWidthsEv
__ZN7WebCore14RenderListItem20updateMarkerLocationEv
__ZN7WebCoreL23getParentOfFirstLineBoxEPNS_11RenderBlockEPNS_12RenderObjectE
__ZN7WebCore11RenderBlock32generatesLineBoxesForInlineChildEPNS_12RenderObjectE
__ZN7WebCore16RenderListMarker14calcPrefWidthsEv
__ZNK7WebCore16RenderListMarker7isImageEv
__ZN7WebCore14listMarkerTextENS_14EListStyleTypeEi
__ZN7WebCore16RenderListMarker13updateMarginsEv
__ZNK7WebCore16RenderListMarker8isInsideEv
__ZN7WebCore14RenderListItem6layoutEv
__ZN7WebCore16RenderListMarker6layoutEv
__ZNK7WebCore16RenderListMarker12isListMarkerEv
__ZN7WebCore16RenderListMarker15createInlineBoxEbbb
__ZN7WebCore13ListMarkerBoxC1EPNS_12RenderObjectE
__ZN7WebCore13ListMarkerBoxC2EPNS_12RenderObjectE
__ZNK7WebCore13ListMarkerBox6isTextEv
__ZNK7WebCore16RenderListMarker14selectionStateEv
__ZNK7WebCore9RenderBox13intrinsicSizeEv
__ZNK7WebCore16RenderListMarker10lineHeightEbb
__ZNK7WebCore16RenderListMarker16baselinePositionEbb
__ZN7WebCore14RenderListItem18positionListMarkerEv
__ZN7WebCore11RenderBlock9lineCountEv
__ZN7WebCoreL16shouldCheckLinesEPNS_12RenderObjectE
__ZN7WebCore13ListMarkerBoxD0Ev
__ZN7WebCore14RenderListItem5paintERNS_12RenderObject9PaintInfoEii
__ZN7WebCore16RenderListMarker5paintERNS_12RenderObject9PaintInfoEii
__ZN7WebCore16RenderListMarker21getRelativeMarkerRectEv
__ZN7WebCore15GraphicsContext11drawEllipseERKNS_7IntRectE
__ZN7WebCore5TimerINS_9PageCacheEE5firedEv
__ZN7WebCore9PageCache39releaseAutoreleasedPagesNowOrRescheduleEPNS_5TimerIS0_EE
__ZN7WebCore11FrameLoader23timeOfLastCompletedLoadEv
__ZN7WebCore12userIdleTimeEv
__ZN7WebCore9PageCache27releaseAutoreleasedPagesNowEv
__ZN3WTF9HashTableINS_6RefPtrIN7WebCore10CachedPageEEES4_NS_17IdentityExtractorIS4_EENS_7PtrHashIS4_EENS_10HashTraitsIS4_EESA_E4swapERSB_
__ZN3WTF9HashTableINS_6RefPtrIN7WebCore10CachedPageEEES4_NS_17IdentityExtractorIS4_EENS_7PtrHashIS4_EENS_10HashTraitsIS4_EESA_E13allocateTableEi
__ZN3WTF9HashTableINS_6RefPtrIN7WebCore10CachedPageEEES4_NS_17IdentityExtractorIS4_EENS_7PtrHashIS4_EENS_10HashTraitsIS4_EESA_E15deallocateTableEPS4_i
__ZN3WTF9HashTableINS_6RefPtrIN7WebCore10CachedPageEEES4_NS_17IdentityExtractorIS4_EENS_7PtrHashIS4_EENS_10HashTraitsIS4_EESA_E6rehashEi
__ZN3WTF9HashTableINS_6RefPtrIN7WebCore10CachedPageEEES4_NS_17IdentityExtractorIS4_EENS_7PtrHashIS4_EENS_10HashTraitsIS4_EESA_E6expandEv
__ZN3WTF9HashTableINS_6RefPtrIN7WebCore10CachedPageEEES4_NS_17IdentityExtractorIS4_EENS_7PtrHashIS4_EENS_10HashTraitsIS4_EESA_E4findIS4_NS_22IdentityHashTranslatorIS4_S4_S8_EEEENS_17HashTableIteratorIS4_S4_S6_S8_SA_SA_EERKT_
__ZN7WebCore10CachedPage5clearEv
__ZN7WebCore11CachedFrame5clearEv
__ZN7WebCore9FrameView10clearFrameEv
__ZN7WebCore13HTMLHRElementD0Ev
__ZN7WebCore21ScriptCachedFrameData5clearEv
__ZN7WebCore10CachedPageD1Ev
__ZN7WebCore10CachedPageD2Ev
__ZN7WebCore11CachedFrameD1Ev
__ZN7WebCore11CachedFrameD2Ev
__ZN7WebCore21ScriptCachedFrameDataD1Ev
__ZN7WebCore21ScriptCachedFrameDataD2Ev
__ZN7WebCore11JSNavigator4markEv
__ZN7WebCore18JSHTMLInputElementD1Ev
__ZN7WebCore17JSHTMLFormElementD1Ev
__ZN7WebCoreL13ulConstructorERKNS_13QualifiedNameEPNS_8DocumentEPNS_15HTMLFormElementEb
__ZN7WebCore16HTMLUListElementC1ERKNS_13QualifiedNameEPNS_8DocumentE
__ZN7WebCore16HTMLUListElementC2ERKNS_13QualifiedNameEPNS_8DocumentE
__ZNK7WebCore16HTMLUListElement17endTagRequirementEv
__ZNK7WebCore16HTMLUListElement11tagPriorityEv
__ZN7WebCore16HTMLImageElement19removedFromDocumentEv
__ZN7WebCore12HTMLDocument15removeNamedItemERKNS_12AtomicStringE
__ZN7WebCoreL17removeItemFromMapERN3WTF7HashMapIPNS_16AtomicStringImplEiNS0_7PtrHashIS3_EENS0_10HashTraitsIS3_EENS6_IiEEEERKNS_12AtomicStringE
__ZN7WebCore12HTMLDocument20removeExtraNamedItemERKNS_12AtomicStringE
__ZN7WebCore17SubresourceLoader7didFailERKNS_13ResourceErrorE
__ZN7WebCore6Loader4Host7didFailEPNS_17SubresourceLoaderERKNS_13ResourceErrorE
__ZN7WebCore6Loader4Host7didFailEPNS_17SubresourceLoaderEb
__ZN7WebCore11CachedImage5errorEv
__ZN7WebCore11CachedImage5clearEv
__ZN7WebCore11CachedImage18destroyDecodedDataEv
__ZN7WebCore11RenderImage22setImageSizeForAltTextEPNS_11CachedImageE
__ZN7WebCoreL11brokenImageEv
__ZN7WebCore5Image20loadPlatformResourceEPKc
__ZN7WebCore5Cache5evictEPNS_14CachedResourceE
__ZNK7WebCore9DocLoader20removeCachedResourceEPNS_14CachedResourceE
__ZN7WebCore14ResourceLoader7didFailERKNS_13ResourceErrorE
__ZN7WebCoreL36shouldSkipWhitespaceAfterStartObjectEPNS_11RenderBlockEPNS_12RenderObjectE
__ZN7WebCore9InlineBox14adjustPositionEii
__ZN7WebCore13InlineFlowBox25adjustMaxAscentAndDescentERiS1_ii
__ZN7WebCore15GraphicsContext9drawImageEPNS_5ImageERKNS_8IntPointENS_17CompositeOperatorE
__ZN7WebCore15GraphicsContext9drawImageEPNS_5ImageERKNS_8IntPointERKNS_7IntRectENS_17CompositeOperatorE
__ZN7WebCore11BitmapImage22frameIsCompleteAtIndexEm
__ZN7WebCore16HTMLInputElement37registerForActivationCallbackIfNeededEv
__ZN7WebCore8Document38registerForDocumentActivationCallbacksEPNS_7ElementE
__ZN3WTF7HashSetIPN7WebCore7ElementENS_7PtrHashIS3_EENS_10HashTraitsIS3_EEE3addERKS3_
__ZN3WTF9HashTableIPN7WebCore7ElementES3_NS_17IdentityExtractorIS3_EENS_7PtrHashIS3_EENS_10HashTraitsIS3_EES9_E6expandEv
__ZN3WTF9HashTableIPN7WebCore7ElementES3_NS_17IdentityExtractorIS3_EENS_7PtrHashIS3_EENS_10HashTraitsIS3_EES9_E6rehashEi
__ZN3WTF9HashTableIPN7WebCore7ElementES3_NS_17IdentityExtractorIS3_EENS_7PtrHashIS3_EENS_10HashTraitsIS3_EES9_E13allocateTableEi
__ZN7WebCore14RenderListItem7destroyEv
__ZN7WebCore16RenderListMarkerD0Ev
__ZN7WebCore14RenderListItemD0Ev
__ZN7WebCore11RenderLayer11removeChildEPS0_
__ZN7WebCore21RenderLayerCompositor18layerWillBeRemovedEPNS_11RenderLayerES2_
__ZNK7WebCore11RenderLayer25enclosingCompositingLayerEb
__ZN7WebCore11RenderLayer28dirtyVisibleDescendantStatusEv
__ZN7WebCore15HTMLFormElement19removedFromDocumentEv
__ZN7WebCore22HTMLFormControlElement15removedFromTreeEb
__ZNK7WebCore13HTMLTokenizer15isHTMLTokenizerEv
__ZN7WebCore7Element26documentWillBecomeInactiveEv
__ZN7WebCore21DeprecatedPtrListImpl4prevEv
__ZN7WebCore9InlineBox11extractLineEv
__ZN7WebCoreeqERKNS_11BidiContextES2_
__ZN7WebCore13InlineFlowBox10attachLineEv
__ZN7WebCore10RenderFlow13attachLineBoxEPNS_13InlineFlowBoxE
__ZN7WebCore13InlineTextBox10attachLineEv
__ZN7WebCore10RenderText13attachTextBoxEPNS_13InlineTextBoxE
__ZN7WebCore9InlineBox10attachLineEv
__ZN7WebCore13RootInlineBox14adjustPositionEii
__ZN7WebCore13InlineFlowBox14adjustPositionEii
__ZNK7WebCore9RenderBox15borderFitAdjustERiS1_
__ZN7WebCore14HTMLMapElementD0Ev
__ZN7WebCore15HTMLAreaElementD0Ev
__ZN7WebCore17HTMLAnchorElementD2Ev
__ZN7WebCore11CachedImageD0Ev
__ZN7WebCore14CachedResourceD2Ev
__ZN7WebCore16HTMLUListElementD0Ev
__ZN7WebCore13HTMLLIElementD0Ev
__ZNK7WebCore4Node17isEventTargetNodeEv
__ZN7WebCore12DocumentTypeD0Ev
__ZN7WebCore14HTMLPreElementD0Ev
__ZN7WebCore27JSHTMLInputElementPrototypeD1Ev
__ZN7WebCore26JSHTMLFormElementPrototypeD1Ev
__ZN7WebCore18JSHTMLImageElementD1Ev
__ZN3WTF9HashTableIPN7WebCore11CachedImageESt4pairIS3_jENS_18PairFirstExtractorIS5_EENS_7PtrHashIS3_EENS_14PairHashTraitsINS_10HashTraitsIS3_EENSB_IjEEEESC_E4findIS3_NS_22IdentityHashTranslatorIS3_S5_S9_EEEENS_17HashTableIteratorIS3_S5_S7_S9_SE_SC_EERKT_
__ZN3WTF9HashTableIPN7WebCore11CachedImageESt4pairIS3_jENS_18PairFirstExtractorIS5_EENS_7PtrHashIS3_EENS_14PairHashTraitsINS_10HashTraitsIS3_EENSB_IjEEEESC_E15deallocateTableEPS5_i
__ZN3WTF9HashTableIPN7WebCore11CachedImageESt4pairIS3_jENS_18PairFirstExtractorIS5_EENS_7PtrHashIS3_EENS_14PairHashTraitsINS_10HashTraitsIS3_EENSB_IjEEEESC_E5clearEv
__ZN3WTF9HashTableIPN7WebCore11CachedImageESt4pairIS3_jENS_18PairFirstExtractorIS5_EENS_7PtrHashIS3_EENS_14PairHashTraitsINS_10HashTraitsIS3_EENSB_IjEEEESC_E13allocateTableEi
__ZN3WTF9HashTableIPN7WebCore11CachedImageESt4pairIS3_jENS_18PairFirstExtractorIS5_EENS_7PtrHashIS3_EENS_14PairHashTraitsINS_10HashTraitsIS3_EENSB_IjEEEESC_E6rehashEi
__ZN3WTF9HashTableIPN7WebCore11CachedImageESt4pairIS3_jENS_18PairFirstExtractorIS5_EENS_7PtrHashIS3_EENS_14PairHashTraitsINS_10HashTraitsIS3_EENSB_IjEEEESC_E6removeEPS5_
__ZN3WTF9HashTableIPN7WebCore11CachedImageESt4pairIS3_jENS_18PairFirstExtractorIS5_EENS_7PtrHashIS3_EENS_14PairHashTraitsINS_10HashTraitsIS3_EENSB_IjEEEESC_E47removeAndInvalidateWithoutEntryConsistencyCheckEPS5_
__ZN3WTF9HashTableIPN7WebCore11CachedImageESt4pairIS3_jENS_18PairFirstExtractorIS5_EENS_7PtrHashIS3_EENS_14PairHashTraitsINS_10HashTraitsIS3_EENSB_IjEEEESC_E6expandEv
__ZN7WebCore27JSHTMLImageElementPrototypeD1Ev
__ZN7WebCore22JSHTMLElementPrototypeD1Ev
__ZN7WebCore18JSElementPrototypeD1Ev
__ZN7WebCore18JSImageConstructorD1Ev
__ZN7WebCore25JSHTMLCollectionPrototypeD1Ev
__ZN7WebCore16HTMLStyleElementD0Ev
__ZN3WTF6VectorIPN7WebCore7ElementELm0EE6shrinkEm
__ZNK7WebCore12RenderObject15canHaveChildrenEv
__ZN3WTF11ListHashSetIPN7WebCore4NodeENS_7PtrHashIS3_EEE12insertBeforeERKS3_S8_
__ZN3WTF9HashTableIPNS_15ListHashSetNodeIPN7WebCore4NodeEEES6_NS_17IdentityExtractorIS6_EENS_28ListHashSetNodeHashFunctionsIS4_NS_7PtrHashIS4_EEEENS_10HashTraitsIS6_EESE_E4findIS4_NS_21ListHashSetTranslatorIS4_SB_EEEENS_17HashTableIteratorIS6_S6_S8_SC_SE_SE_EERKT_
__ZN3WTF9HashTableIPNS_15ListHashSetNodeIPN7WebCore4NodeEEES6_NS_17IdentityExtractorIS6_EENS_28ListHashSetNodeHashFunctionsIS4_NS_7PtrHashIS4_EEEENS_10HashTraitsIS6_EESE_E4findIS6_NS_22IdentityHashTranslatorIS6_S6_SC_EEEENS_17HashTableIteratorIS6_S6_S8_SC_SE_SE_EERKT_
__ZN3WTF9HashTableIPNS_15ListHashSetNodeIPN7WebCore4NodeEEES6_NS_17IdentityExtractorIS6_EENS_28ListHashSetNodeHashFunctionsIS4_NS_7PtrHashIS4_EEEENS_10HashTraitsIS6_EESE_E15deallocateTableEPS6_i
__ZN3WTF9HashTableIPNS_15ListHashSetNodeIPN7WebCore4NodeEEES6_NS_17IdentityExtractorIS6_EENS_28ListHashSetNodeHashFunctionsIS4_NS_7PtrHashIS4_EEEENS_10HashTraitsIS6_EESE_E13allocateTableEi
__ZN3WTF9HashTableIPNS_15ListHashSetNodeIPN7WebCore4NodeEEES6_NS_17IdentityExtractorIS6_EENS_28ListHashSetNodeHashFunctionsIS4_NS_7PtrHashIS4_EEEENS_10HashTraitsIS6_EESE_E6rehashEi
__ZN3WTF9HashTableIPNS_15ListHashSetNodeIPN7WebCore4NodeEEES6_NS_17IdentityExtractorIS6_EENS_28ListHashSetNodeHashFunctionsIS4_NS_7PtrHashIS4_EEEENS_10HashTraitsIS6_EESE_E6removeEPS6_
__ZN3WTF9HashTableIPNS_15ListHashSetNodeIPN7WebCore4NodeEEES6_NS_17IdentityExtractorIS6_EENS_28ListHashSetNodeHashFunctionsIS4_NS_7PtrHashIS4_EEEENS_10HashTraitsIS6_EESE_E19removeAndInvalidateEPS6_
__ZN3WTF9HashTableIPNS_15ListHashSetNodeIPN7WebCore4NodeEEES6_NS_17IdentityExtractorIS6_EENS_28ListHashSetNodeHashFunctionsIS4_NS_7PtrHashIS4_EEEENS_10HashTraitsIS6_EESE_E6expandEv
__ZN3WTF11ListHashSetIPN7WebCore4NodeENS_7PtrHashIS3_EEE12insertBeforeENS_19ListHashSetIteratorIS3_S5_EERKS3_
__ZN3WTF11ListHashSetIPN7WebCore4NodeENS_7PtrHashIS3_EEE16insertNodeBeforeEPNS_15ListHashSetNodeIS3_EES9_
__ZN7WebCore15HTMLFormElement17removeFormElementEPNS_22HTMLFormControlElementE
__ZN7WebCore8Document40unregisterForDocumentActivationCallbacksEPNS_7ElementE
__ZN3WTF9HashTableIPN7WebCore7ElementES3_NS_17IdentityExtractorIS3_EENS_7PtrHashIS3_EENS_10HashTraitsIS3_EES9_E4findIS3_NS_22IdentityHashTranslatorIS3_S3_S7_EEEENS_17HashTableIteratorIS3_S3_S5_S7_S9_S9_EERKT_
__ZN3WTF9HashTableIPN7WebCore7ElementES3_NS_17IdentityExtractorIS3_EENS_7PtrHashIS3_EENS_10HashTraitsIS3_EES9_E47removeAndInvalidateWithoutEntryConsistencyCheckEPS3_
__ZN3WTF9HashTableIPN7WebCore7ElementES3_NS_17IdentityExtractorIS3_EENS_7PtrHashIS3_EENS_10HashTraitsIS3_EES9_E6removeEPS3_
__ZN3WTF6VectorIN7WebCore9DocLoader14PendingPreloadELm0EE14expandCapacityEmPKS3_
__ZN3WTF6VectorIN7WebCore9DocLoader14PendingPreloadELm0EE14expandCapacityEm
__ZN3WTF6VectorIN7WebCore9DocLoader14PendingPreloadELm0EE15reserveCapacityEm
__ZN7WebCore20JSNavigatorPrototype18getOwnPropertySlotEPN3JSC9ExecStateERKNS1_10IdentifierERNS1_12PropertySlotE
__ZN7WebCore19setJSDocumentCookieEPN3JSC9ExecStateEPNS0_8JSObjectENS0_10JSValuePtrE
__ZN7WebCore8Document9setCookieERKNS_6StringE
__ZN7WebCore10setCookiesEPNS_8DocumentERKNS_4KURLES4_RKNS_6StringE
__ZN7WebCoreL18headingConstructorERKNS_13QualifiedNameEPNS_8DocumentEPNS_15HTMLFormElementEb
__ZN7WebCore18HTMLHeadingElementC1ERKNS_13QualifiedNameEPNS_8DocumentE
__ZN7WebCore18HTMLHeadingElementC2ERKNS_13QualifiedNameEPNS_8DocumentE
__ZNK7WebCore18HTMLHeadingElement17endTagRequirementEv
__ZNK7WebCore18HTMLHeadingElement11tagPriorityEv
__ZN7WebCore18HTMLHeadingElement8checkDTDEPKNS_4NodeE
__ZN7WebCoreleERNS_11CSSRuleDataES1_
__ZN3WTF6VectorIPN7WebCore11CSSRuleDataELm0EE15reserveCapacityEm
__ZN3WTF6VectorIPN7WebCore11CSSRuleDataELm0EE6shrinkEm
__ZNK7WebCore16HTMLUListElement10mapToEntryERKNS_13QualifiedNameERNS_20MappedAttributeEntryE
__ZN7WebCore16HTMLUListElement20parseMappedAttributeEPNS_15MappedAttributeE
__ZN3WTF6VectorIN7WebCore9DocLoader14PendingPreloadELm0EE14shrinkCapacityEm
__ZN3WTF6VectorIN7WebCore9DocLoader14PendingPreloadELm0EE6shrinkEm
__ZN7WebCore21setJSDOMWindowOnerrorEPN3JSC9ExecStateEPNS0_8JSObjectENS0_10JSValuePtrE
__ZN7WebCore17JSDOMGlobalObject27findOrCreateJSEventListenerEPN3JSC9ExecStateENS1_10JSValuePtrEb
__ZN7WebCore17JSDOMGlobalObject19findJSEventListenerEN3JSC10JSValuePtrEb
__ZNK3WTF7HashMapIPN3JSC8JSObjectEPN7WebCore15JSEventListenerENS_7PtrHashIS3_EENS_10HashTraitsIS3_EENS9_IS6_EEE3getERKS3_
__ZN7WebCore15JSEventListenerC1EPN3JSC8JSObjectEPNS_17JSDOMGlobalObjectEb
__ZN7WebCore17JSDOMGlobalObject22jsInlineEventListenersEv
__ZN3WTF7HashMapIPN3JSC8JSObjectEPN7WebCore15JSEventListenerENS_7PtrHashIS3_EENS_10HashTraitsIS3_EENS9_IS6_EEE3setERKS3_RKS6_
__ZN7WebCore9DOMWindow10setOnerrorEN3WTF10PassRefPtrINS_13EventListenerEEE
__ZN7WebCore8Document35setWindowInlineEventListenerForTypeERKNS_12AtomicStringEN3WTF10PassRefPtrINS_13EventListenerEEE
__ZN7WebCore8Document38removeWindowInlineEventListenerForTypeERKNS_12AtomicStringE
__ZN7WebCore8Document22addWindowEventListenerERKNS_12AtomicStringEN3WTF10PassRefPtrINS_13EventListenerEEEb
__ZN7WebCore8Document25removeWindowEventListenerERKNS_12AtomicStringEPNS_13EventListenerEb
__ZN7WebCore11RenderBlock29removePercentHeightDescendantEPNS_9RenderBoxE
__ZN3WTF6VectorItLm512EE14expandCapacityEmPKt
__ZN3WTF6VectorItLm512EE14expandCapacityEm
__ZN3WTF6VectorItLm512EE15reserveCapacityEm
__ZN7WebCore19JSDocumentPrototype18getOwnPropertySlotEPN3JSC9ExecStateERKNS1_10IdentifierERNS1_12PropertySlotE
__ZN7WebCore26JSEventTargetNodePrototype18getOwnPropertySlotEPN3JSC9ExecStateERKNS1_10IdentifierERNS1_12PropertySlotE
__ZN7WebCore15JSNodePrototype18getOwnPropertySlotEPN3JSC9ExecStateERKNS1_10IdentifierERNS1_12PropertySlotE
__ZN7WebCore38jsDOMWindowPrototypeFunctionSetTimeoutEPN3JSC9ExecStateEPNS0_8JSObjectENS0_10JSValuePtrERKNS0_7ArgListE
__ZN7WebCore13toJSDOMWindowEN3JSC10JSValuePtrE
__ZN7WebCore11JSDOMWindow10setTimeoutEPN3JSC9ExecStateERKNS1_7ArgListE
__ZN7WebCoreL20setTimeoutOrIntervalEPN3JSC9ExecStateEPNS_11JSDOMWindowERKNS0_7ArgListEb
__ZN7WebCore15JSDOMWindowBase14installTimeoutERKN3JSC7UStringEib
__ZN7WebCore15JSDOMWindowBase14installTimeoutEPNS_15ScheduledActionEib
__ZN7WebCore8DOMTimer7installEPNS_22ScriptExecutionContextEPNS_15ScheduledActionEib
__ZN7WebCore8DOMTimerC1EPNS_22ScriptExecutionContextEPNS_15ScheduledActionEib
__ZN7WebCore8DOMTimerC2EPNS_22ScriptExecutionContextEPNS_15ScheduledActionEib
__ZN7WebCore15ActiveDOMObjectC2EPNS_22ScriptExecutionContextEPv
__ZN7WebCore22ScriptExecutionContext22createdActiveDOMObjectEPNS_15ActiveDOMObjectEPv
__ZN3WTF7HashMapIPN7WebCore15ActiveDOMObjectEPvNS_7PtrHashIS3_EENS_10HashTraitsIS3_EENS7_IS4_EEE3addERKS3_RKS4_
__ZN7WebCore8Document10addTimeoutEiPNS_8DOMTimerE
__ZN3WTF7HashMapIiPN7WebCore8DOMTimerENS_7IntHashIjEENS_10HashTraitsIiEENS6_IS3_EEE3setERKiRKS3_
__ZN7WebCore8Document11findTimeoutEi
__ZNK3WTF7HashMapIiPN7WebCore8DOMTimerENS_7IntHashIjEENS_10HashTraitsIiEENS6_IS3_EEE3getERKi
__ZThn28_NK7WebCore8DOMTimer18hasPendingActivityEv
__ZNK7WebCore8DOMTimer18hasPendingActivityEv
__ZN7WebCore8DOMTimer5firedEv
__ZN7WebCore8DOMTimerD0Ev
__ZN7WebCore8Document13removeTimeoutEi
__ZN7WebCore15ActiveDOMObjectD2Ev
__ZN7WebCore22ScriptExecutionContext24destroyedActiveDOMObjectEPNS_15ActiveDOMObjectE
__ZN3WTF9HashTableIPN7WebCore15ActiveDOMObjectESt4pairIS3_PvENS_18PairFirstExtractorIS6_EENS_7PtrHashIS3_EENS_14PairHashTraitsINS_10HashTraitsIS3_EENSC_IS5_EEEESD_E4findIS3_NS_22IdentityHashTranslatorIS3_S6_SA_EEEENS_17HashTableIteratorIS3_S6_S8_SA_SF_SD_EERKT_
__ZN3WTF9HashTableIPN7WebCore15ActiveDOMObjectESt4pairIS3_PvENS_18PairFirstExtractorIS6_EENS_7PtrHashIS3_EENS_14PairHashTraitsINS_10HashTraitsIS3_EENSC_IS5_EEEESD_E15deallocateTableEPS6_i
__ZN3WTF9HashTableIPN7WebCore15ActiveDOMObjectESt4pairIS3_PvENS_18PairFirstExtractorIS6_EENS_7PtrHashIS3_EENS_14PairHashTraitsINS_10HashTraitsIS3_EENSC_IS5_EEEESD_E13allocateTableEi
__ZN3WTF9HashTableIPN7WebCore15ActiveDOMObjectESt4pairIS3_PvENS_18PairFirstExtractorIS6_EENS_7PtrHashIS3_EENS_14PairHashTraitsINS_10HashTraitsIS3_EENSC_IS5_EEEESD_E6rehashEi
__ZN3WTF9HashTableIPN7WebCore15ActiveDOMObjectESt4pairIS3_PvENS_18PairFirstExtractorIS6_EENS_7PtrHashIS3_EENS_14PairHashTraitsINS_10HashTraitsIS3_EENSC_IS5_EEEESD_E6removeEPS6_
__ZN3WTF9HashTableIPN7WebCore15ActiveDOMObjectESt4pairIS3_PvENS_18PairFirstExtractorIS6_EENS_7PtrHashIS3_EENS_14PairHashTraitsINS_10HashTraitsIS3_EENSC_IS5_EEEESD_E47removeAndInvalidateWithoutEntryConsistencyCheckEPS6_
__ZN3WTF9HashTableIPN7WebCore15ActiveDOMObjectESt4pairIS3_PvENS_18PairFirstExtractorIS6_EENS_7PtrHashIS3_EENS_14PairHashTraitsINS_10HashTraitsIS3_EENSC_IS5_EEEESD_E6expandEv
_WebThreadContainsObservedContentModifier
__ZNK3WTF9HashTableIPvSt4pairIS1_S1_ENS_18PairFirstExtractorIS3_EENS_7PtrHashIS1_EENS_14PairHashTraitsINS_10HashTraitsIS1_EESA_EESA_E8containsIS1_NS_22IdentityHashTranslatorIS1_S3_S7_EEEEbRKT_
__ZN7WebCore15ScheduledAction7executeEPNS_22ScriptExecutionContextE
__ZThn44_NK7WebCore8Document10isDocumentEv
__ZNK7WebCore8Document10isDocumentEv
__ZN7WebCore15ScheduledAction7executeEPNS_8DocumentE
__ZN7WebCore13toJSDOMWindowEPNS_5FrameE
__ZN7WebCore11FrameLoader13executeScriptERKNS_6StringEb
__ZThn28_NK7WebCore8DOMTimer10canSuspendEv
__ZNK7WebCore8DOMTimer10canSuspendEv
__ZThn28_N7WebCore8DOMTimer7suspendEv
__ZN7WebCore8DOMTimer7suspendEv
__ZN7WebCoreL19basefontConstructorERKNS_13QualifiedNameEPNS_8DocumentEPNS_15HTMLFormElementEb
__ZN7WebCore19HTMLBaseFontElementC1ERKNS_13QualifiedNameEPNS_8DocumentE
__ZN7WebCore19HTMLBaseFontElementC2ERKNS_13QualifiedNameEPNS_8DocumentE
__ZNK7WebCore19HTMLBaseFontElement17endTagRequirementEv
__ZNK7WebCore19HTMLBaseFontElement11tagPriorityEv
__ZNK7WebCore18RenderTextFragment12originalTextEv
__ZN7WebCore18RenderTextFragment15setTextInternalEN3WTF10PassRefPtrINS_10StringImplEEE
__ZN7WebCore18RenderTextFragment17previousCharacterEv
__ZN7WebCore10RenderText17previousCharacterEv
__ZNK7WebCore12RenderObject18previousInPreOrderEv
__ZN7WebCore10StringImpl10capitalizeEt
__ZN7WebCore17wordBreakIteratorEPKti
__ZN7WebCore14textBreakFirstEPNS_17TextBreakIteratorE
__ZN7WebCore9RenderBox20calcPercentageHeightERKNS_6LengthE
__ZN7WebCore15JSEventListenerD0Ev
__ZNK7WebCore23JSAbstractEventListener8isInlineEv
__ZN7WebCore18HTMLHeadingElementD0Ev
__ZNK7WebCore14CachedResource9wasPurgedEv
__ZN7WebCore11BitmapImageD0Ev
__ZN3WTF6VectorIN7WebCore9FrameDataELm0EE6shrinkEm
__ZN7WebCore9FrameData5clearEb
__ZN7WebCore11ImageSourceD1Ev
__ZN7WebCore11ImageSourceD2Ev
__ZN7WebCore11ImageSource5clearEbmPNS_12SharedBufferEb
__ZN7WebCore5ImageD2Ev
__ZN3WTF6VectorIN7WebCore5Cache7LRUListELm32EE6resizeEm
__ZN7WebCore15PurgeableBuffer6createEPKcm
__ZN7WebCore15PurgeableBufferC1EPcm
__ZN7WebCore15PurgeableBufferC2EPcm
__ZN7WebCore15PurgeableBuffer13makePurgeableEb
__ZNK7WebCore15RenderTableCell16baselinePositionEbb
__ZNK7WebCore11RenderBlock25getBaselineOfFirstLineBoxEv
__ZN7WebCore15RenderTableCell15setOverrideSizeEi
__ZN7WebCore9FloatRectC1ERK6CGRect
__ZN7WebCore9FloatRectC2ERK6CGRect
__ZNK7WebCore13HTMLLIElement10mapToEntryERKNS_13QualifiedNameERNS_20MappedAttributeEntryE
__ZN7WebCore13HTMLLIElement20parseMappedAttributeEPNS_15MappedAttributeE
__ZThn28_N7WebCore8DOMTimer4stopEv
__ZN7WebCore8DOMTimer4stopEv
__ZN7WebCore19HTMLBaseFontElementD0Ev
__ZNK7WebCore15PurgeableBuffer9wasPurgedEv
__ZThn28_N7WebCore8DOMTimer16contextDestroyedEv
__ZN7WebCore8DOMTimer16contextDestroyedEv
__ZN7WebCore15ActiveDOMObject16contextDestroyedEv
__ZNK3WTF9HashTableIPN7WebCore16AtomicStringImplESt4pairIS3_PNS1_7ElementEENS_18PairFirstExtractorIS7_EENS_7PtrHashIS3_EENS_14PairHashTraitsINS_10HashTraitsIS3_EENSD_IS6_EEEESE_E8containsIS3_NS_22IdentityHashTranslatorIS3_S7_SB_EEEEbRKT_
__ZN7WebCore16JSDOMWindowShell18getOwnPropertySlotEPN3JSC9ExecStateERKNS1_10IdentifierERNS1_12PropertySlotE
__ZN7WebCore19jsDOMWindowLocationEPN3JSC9ExecStateERKNS0_10IdentifierERKNS0_12PropertySlotE
__ZNK7WebCore9DOMWindow8locationEv
__ZN7WebCore8LocationC1EPNS_5FrameE
__ZN7WebCore8LocationC2EPNS_5FrameE
__ZN7WebCore4toJSEPN3JSC9ExecStateEPNS_8LocationE
__ZN7WebCore10JSLocation15createPrototypeEPN3JSC9ExecStateE
__ZN7WebCore10JSLocationC1EN3WTF10PassRefPtrIN3JSC9StructureEEENS2_INS_8LocationEEE
__ZN7WebCore10JSLocationC2EN3WTF10PassRefPtrIN3JSC9StructureEEENS2_INS_8LocationEEE
__ZN7WebCore10JSLocation18getOwnPropertySlotEPN3JSC9ExecStateERKNS1_10IdentifierERNS1_12PropertySlotE
__ZN7WebCore10JSLocation24customGetOwnPropertySlotEPN3JSC9ExecStateERKNS1_10IdentifierERNS1_12PropertySlotE
__ZN7WebCore21allowsAccessFromFrameEPN3JSC9ExecStateEPNS_5FrameERNS_6StringE
__ZN7WebCore18jsLocationHostnameEPN3JSC9ExecStateERKNS0_10IdentifierERKNS0_12PropertySlotE
__ZNK7WebCore8Location8hostnameEv
__ZN7WebCore18jsLocationPathnameEPN3JSC9ExecStateERKNS0_10IdentifierERKNS0_12PropertySlotE
__ZNK7WebCore8Location8pathnameEv
__ZN7WebCore16jsLocationSearchEPN3JSC9ExecStateERKNS0_10IdentifierERKNS0_12PropertySlotE
__ZNK7WebCore8Location6searchEv
__ZNK7WebCore4KURL5queryEv
__ZN7WebCore18jsDocumentReferrerEPN3JSC9ExecStateERKNS0_10IdentifierERKNS0_12PropertySlotE
__ZNK7WebCore8Document8referrerEv
__ZNK7WebCore11FrameLoader8referrerEv
__ZNK7WebCore6String11toIntStrictEPbi
__ZN7WebCore10StringImpl11toIntStrictEPbi
__ZN7WebCore4Node21setTabIndexExplicitlyEs
__ZN7WebCore8Location15disconnectFrameEv
__ZN7WebCore13jsDocumentURLEPN3JSC9ExecStateERKNS0_10IdentifierERKNS0_12PropertySlotE
__ZN7WebCore30htmlParserDocumentWriteMessageEv
__ZN7WebCore10JSLocationD1Ev
__ZN7WebCore10JSLocationD2Ev
__ZNK7WebCore12NamedAttrMap14mapsEquivalentEPKS0_
__ZN7WebCore18MainResourceLoader15handleEmptyLoadERKNS_4KURLEb
__ZN7WebCoreL16labelConstructorERKNS_13QualifiedNameEPNS_8DocumentEPNS_15HTMLFormElementEb
__ZN7WebCore16HTMLLabelElementC1ERKNS_13QualifiedNameEPNS_8DocumentE
__ZN7WebCore16HTMLLabelElementC2ERKNS_13QualifiedNameEPNS_8DocumentE
__ZNK7WebCore16HTMLLabelElement11tagPriorityEv
__ZN7WebCore17HTMLScriptElement19removedFromDocumentEv
__ZN7WebCore13ScriptElement19removedFromDocumentERNS_17ScriptElementDataE
__ZN7WebCore8Document17removeElementByIdERKNS_12AtomicStringEPNS_7ElementE
__ZN3WTF7HashMapIPN7WebCore16AtomicStringImplEjNS_7PtrHashIS3_EENS_10HashTraitsIS3_EENS6_IjEEE3addERKS3_RKj
__ZN7WebCore9FontValueD0Ev
__ZN7WebCore16HTMLLabelElementD0Ev
__ZN7WebCore5TimerINS_11CachedImageEE5firedEv
__ZN7WebCore11CachedImage29decodedDataDeletionTimerFiredEPNS_5TimerIS0_EE
__ZN7WebCoreL14isTableRelatedEPNS_4NodeE
__ZN7WebCoreL11isTablePartEPNS_4NodeE
__ZN7WebCore15jsDOMWindowSelfEPN3JSC9ExecStateERKNS0_10IdentifierERKNS0_12PropertySlotE
__ZNK7WebCore9DOMWindow4selfEv
__ZN7WebCore4toJSEPN3JSC9ExecStateEPNS_9DOMWindowE
__ZN7WebCore19JSLocationPrototypeD1Ev
__ZN7WebCoreL11appendASCIIERKNS_6StringEPKcmRN3WTF6VectorIcLm512EEE
__ZN7WebCore13InlineFlowBox15paintFillLayersERKNS_12RenderObject9PaintInfoERKNS_5ColorEPKNS_9FillLayerEiiiiiiNS_17CompositeOperatorE
__ZN7WebCore13InlineFlowBox14paintFillLayerERKNS_12RenderObject9PaintInfoERKNS_5ColorEPKNS_9FillLayerEiiiiiiNS_17CompositeOperatorE
__ZN7WebCore17jsHTMLDocumentAllEPN3JSC9ExecStateERKNS0_10IdentifierERKNS0_12PropertySlotE
__ZNK7WebCore14JSHTMLDocument3allEPN3JSC9ExecStateE
__ZN7WebCore8Document3allEv
__ZNK7WebCore19JSHTMLAllCollection9toBooleanEPN3JSC9ExecStateE
__ZN7WebCore19JSHTMLAllCollectionD1Ev
__ZN7WebCore11RenderBlock20removeFloatingObjectEPNS_9RenderBoxE
__ZN7WebCore15PurgeableBufferD1Ev
__ZN7WebCore15PurgeableBufferD2Ev
__ZN7WebCore38jsHTMLDocumentPrototypeFunctionWritelnEPN3JSC9ExecStateEPNS0_8JSObjectENS0_10JSValuePtrERKNS0_7ArgListE
__ZN7WebCore14JSHTMLDocument7writelnEPN3JSC9ExecStateERKNS1_7ArgListE
__ZN7WebCoreL21blockquoteConstructorERKNS_13QualifiedNameEPNS_8DocumentEPNS_15HTMLFormElementEb
__ZN7WebCore21HTMLBlockquoteElementC1ERKNS_13QualifiedNameEPNS_8DocumentE
__ZN7WebCore21HTMLBlockquoteElementC2ERKNS_13QualifiedNameEPNS_8DocumentE
__ZNK7WebCore21HTMLBlockquoteElement17endTagRequirementEv
__ZNK7WebCore21HTMLBlockquoteElement11tagPriorityEv
__ZN7WebCore19jsNavigatorLanguageEPN3JSC9ExecStateERKNS0_10IdentifierERKNS0_12PropertySlotE
__ZNK7WebCore9Navigator8languageEv
__ZN7WebCore15defaultLanguageEv
__ZN7WebCore18jsNavigatorPluginsEPN3JSC9ExecStateERKNS0_10IdentifierERKNS0_12PropertySlotE
__ZNK7WebCore9Navigator7pluginsEv
__ZN7WebCore11PluginArrayC1EPNS_5FrameE
__ZN7WebCore11PluginArrayC2EPNS_5FrameE
__ZN7WebCore4toJSEPN3JSC9ExecStateEPNS_11PluginArrayE
__ZN7WebCore13JSPluginArray15createPrototypeEPN3JSC9ExecStateE
__ZN7WebCore13JSPluginArrayC1EN3WTF10PassRefPtrIN3JSC9StructureEEENS2_INS_11PluginArrayEEE
__ZN7WebCore13JSPluginArrayC2EN3WTF10PassRefPtrIN3JSC9StructureEEENS2_INS_11PluginArrayEEE
__ZN7WebCore13JSPluginArray18getOwnPropertySlotEPN3JSC9ExecStateERKNS1_10IdentifierERNS1_12PropertySlotE
__ZN7WebCore19jsPluginArrayLengthEPN3JSC9ExecStateERKNS0_10IdentifierERKNS0_12PropertySlotE
__ZNK7WebCore11PluginArray6lengthEv
__ZNK7WebCore11PluginArray13getPluginDataEv
__ZNK7WebCore4Page10pluginDataEv
__ZN7WebCore10PluginDataC1EPKNS_4PageE
__ZN7WebCore10PluginDataC2EPKNS_4PageE
__ZN7WebCore10PluginData11initPluginsEv
__ZN3WTF6VectorIPN7WebCore13MimeClassInfoELm0EE14expandCapacityEmPKS3_
__ZN3WTF6VectorIPN7WebCore13MimeClassInfoELm0EE14expandCapacityEm
__ZN3WTF6VectorIPN7WebCore13MimeClassInfoELm0EE15reserveCapacityEm
__ZN3WTF6VectorIPN7WebCore10PluginInfoELm0EE14expandCapacityEmPKS3_
__ZN3WTF6VectorIPN7WebCore10PluginInfoELm0EE14expandCapacityEm
__ZN3WTF6VectorIPN7WebCore10PluginInfoELm0EE15reserveCapacityEm
__ZN7WebCore13JSPluginArray18getOwnPropertySlotEPN3JSC9ExecStateEjRNS1_12PropertySlotE
__ZN7WebCore13JSPluginArray11indexGetterEPN3JSC9ExecStateERKNS1_10IdentifierERKNS1_12PropertySlotE
__ZN7WebCore11PluginArray4itemEj
__ZN7WebCore6PluginC1EPNS_10PluginDataEj
__ZN7WebCore6PluginC2EPNS_10PluginDataEj
__ZN7WebCore4toJSEPN3JSC9ExecStateEPNS_6PluginE
__ZN7WebCore8JSPlugin15createPrototypeEPN3JSC9ExecStateE
__ZN7WebCore8JSPluginC1EN3WTF10PassRefPtrIN3JSC9StructureEEENS2_INS_6PluginEEE
__ZN7WebCore8JSPluginC2EN3WTF10PassRefPtrIN3JSC9StructureEEENS2_INS_6PluginEEE
__ZN7WebCore8JSPlugin18getOwnPropertySlotEPN3JSC9ExecStateERKNS1_10IdentifierERNS1_12PropertySlotE
__ZN7WebCore12jsPluginNameEPN3JSC9ExecStateERKNS0_10IdentifierERKNS0_12PropertySlotE
__ZNK7WebCore6Plugin4nameEv
__ZN7WebCore39jsNavigatorPrototypeFunctionJavaEnabledEPN3JSC9ExecStateEPNS0_8JSObjectENS0_10JSValuePtrERKNS0_7ArgListE
__ZNK7WebCore11JSNavigator9classInfoEv
__ZNK7WebCore9Navigator11javaEnabledEv
__ZN7WebCore17jsDOMWindowScreenEPN3JSC9ExecStateERKNS0_10IdentifierERKNS0_12PropertySlotE
__ZNK7WebCore9DOMWindow6screenEv
__ZN7WebCore6ScreenC1EPNS_5FrameE
__ZN7WebCore6ScreenC2EPNS_5FrameE
__ZN7WebCore4toJSEPN3JSC9ExecStateEPNS_6ScreenE
__ZN7WebCore8JSScreen15createPrototypeEPN3JSC9ExecStateE
__ZN7WebCore8JSScreenC1EN3WTF10PassRefPtrIN3JSC9StructureEEENS2_INS_6ScreenEEE
__ZN7WebCore8JSScreenC2EN3WTF10PassRefPtrIN3JSC9StructureEEENS2_INS_6ScreenEEE
__ZN7WebCore8JSScreen18getOwnPropertySlotEPN3JSC9ExecStateERKNS1_10IdentifierERNS1_12PropertySlotE
__ZN7WebCore13jsScreenWidthEPN3JSC9ExecStateERKNS0_10IdentifierERKNS0_12PropertySlotE
__ZNK7WebCore6Screen5widthEv
__ZN7WebCore10screenRectEPNS_6WidgetE
_WKScreenGetMainScreenFrame
_WKScreenGetZeroScreenFrame
__ZN7WebCore14jsScreenHeightEPN3JSC9ExecStateERKNS0_10IdentifierERKNS0_12PropertySlotE
__ZNK7WebCore6Screen6heightEv
__ZN7WebCore18jsScreenPixelDepthEPN3JSC9ExecStateERKNS0_10IdentifierERKNS0_12PropertySlotE
__ZNK7WebCore6Screen10pixelDepthEv
__ZN7WebCore11screenDepthEPNS_6WidgetE
__ZN7WebCore6Screen15disconnectFrameEv
__ZN7WebCoreL13dlConstructorERKNS_13QualifiedNameEPNS_8DocumentEPNS_15HTMLFormElementEb
__ZN7WebCore16HTMLDListElementC1ERKNS_13QualifiedNameEPNS_8DocumentE
__ZN7WebCore16HTMLDListElementC2ERKNS_13QualifiedNameEPNS_8DocumentE
__ZNK7WebCore16HTMLDListElement17endTagRequirementEv
__ZNK7WebCore16HTMLDListElement11tagPriorityEv
__ZN7WebCore10HTMLParser18dtCreateErrorCheckEPNS_5TokenERN3WTF6RefPtrINS_4NodeEEE
__ZN7WebCore10HTMLParser18ddCreateErrorCheckEPNS_5TokenERN3WTF6RefPtrINS_4NodeEEE
__ZN7WebCore8JSScreenD1Ev
__ZN7WebCore8JSScreenD2Ev
__ZN7WebCore8JSPluginD1Ev
__ZN7WebCore8JSPluginD2Ev
__ZN7WebCore6PluginD1Ev
__ZN7WebCore6PluginD2Ev
__ZN7WebCore13JSPluginArrayD1Ev
__ZN7WebCore13JSPluginArrayD2Ev
__ZN7WebCore11PluginArrayD1Ev
__ZN7WebCore9CSSParser31createFloatingMediaQueryExpListEv
__ZN7WebCore9CSSParser29sinkFloatingMediaQueryExpListEPN3WTF6VectorIPNS_13MediaQueryExpELm0EEE
__ZN7WebCore9CSSParser24createFloatingMediaQueryENS_10MediaQuery10RestrictorERKNS_6StringEPN3WTF6VectorIPNS_13MediaQueryExpELm0EEE
__ZN7WebCore10MediaQueryC1ENS0_10RestrictorERKNS_6StringEPN3WTF6VectorIPNS_13MediaQueryExpELm0EEE
__ZN7WebCore10MediaQueryC2ENS0_10RestrictorERKNS_6StringEPN3WTF6VectorIPNS_13MediaQueryExpELm0EEE
__ZN7WebCore9CSSParser15createMediaListEv
__ZN7WebCore9CSSParser22sinkFloatingMediaQueryEPNS_10MediaQueryE
__ZN7WebCore9MediaList16appendMediaQueryEPNS_10MediaQueryE
__ZN3WTF6VectorIPN7WebCore10MediaQueryELm0EE14expandCapacityEmPKS3_
__ZN3WTF6VectorIPN7WebCore10MediaQueryELm0EE14expandCapacityEm
__ZN3WTF6VectorIPN7WebCore10MediaQueryELm0EE15reserveCapacityEm
__ZN7WebCore9CSSParser14createRuleListEv
__ZN7WebCore11CSSRuleListC1Ev
__ZN7WebCore11CSSRuleListC2Ev
__ZN3WTF6VectorINS_6RefPtrIN7WebCore11CSSRuleListEEELm0EE14expandCapacityEm
__ZN3WTF6VectorINS_6RefPtrIN7WebCore11CSSRuleListEEELm0EE15reserveCapacityEm
__ZN7WebCore11CSSRuleList6appendEPNS_7CSSRuleE
__ZN3WTF6VectorINS_6RefPtrIN7WebCore7CSSRuleEEELm0EE14expandCapacityEm
__ZN3WTF6VectorINS_6RefPtrIN7WebCore7CSSRuleEEELm0EE15reserveCapacityEm
__ZN7WebCore9CSSParser15createMediaRuleEPNS_9MediaListEPNS_11CSSRuleListE
__ZN7WebCore12CSSMediaRuleC1EPNS_13CSSStyleSheetEN3WTF10PassRefPtrINS_9MediaListEEENS4_INS_11CSSRuleListEEE
__ZN7WebCore12CSSMediaRuleC2EPNS_13CSSStyleSheetEN3WTF10PassRefPtrINS_9MediaListEEENS4_INS_11CSSRuleListEEE
__ZN3WTF6VectorINS_6RefPtrIN7WebCore11CSSRuleListEEELm0EE6shrinkEm
__ZN7WebCore9StyleBase11isStyleRuleEv
__ZN7WebCore12CSSMediaRule11isMediaRuleEv
__ZNK7WebCore19MediaQueryEvaluator14mediaTypeMatchERKNS_6StringE
__ZN7WebCoreL15applyRestrictorENS_10MediaQuery10RestrictorEb
__ZNK7WebCore11CSSRuleList6lengthEv
__ZN7WebCore11CSSRuleList4itemEj
__ZN7WebCore16CSSStyleSelector16mapFillXPositionEPNS_9FillLayerEPNS_8CSSValueE
__ZN7WebCore16CSSStyleSelector16mapFillYPositionEPNS_9FillLayerEPNS_8CSSValueE
__ZN7WebCore16CSSStyleSelector17mapFillAttachmentEPNS_9FillLayerEPNS_8CSSValueE
__ZN7WebCore9FrameView20addSlowRepaintObjectEv
__ZNK7WebCore12RenderObject8viewRectEv
__ZN7WebCore10HTMLParser28tableSectionCreateErrorCheckEPNS_5TokenERN3WTF6RefPtrINS_4NodeEEE
__ZN7WebCoreL23tableSectionConstructorERKNS_13QualifiedNameEPNS_8DocumentEPNS_15HTMLFormElementEb
__ZN7WebCore14RenderFrameSet17paintColumnBorderERKNS_12RenderObject9PaintInfoERKNS_7IntRectE
__ZN7WebCore14RenderFrameSet14paintRowBorderERKNS_12RenderObject9PaintInfoERKNS_7IntRectE
__ZN7WebCoreL15borderFillColorEv
__ZN7WebCoreL20borderStartEdgeColorEv
__ZN7WebCoreL18borderEndEdgeColorEv
__ZNK7WebCore16CSSStyleSelector15smallerFontSizeEfb
__ZN7WebCore16HTMLImageElement8setWidthEi
__ZN7WebCore16HTMLImageElement9setHeightEi
__ZN7WebCore16HTMLDListElementD0Ev
__ZN7WebCore12CSSMediaRuleD0Ev
__ZN7WebCore11CSSRuleListD1Ev
__ZN7WebCore11CSSRuleListD2Ev
__ZN3WTF6VectorINS_6RefPtrIN7WebCore7CSSRuleEEELm0EE6shrinkEm
__ZN7WebCore10MediaQueryD1Ev
__ZN7WebCore10MediaQueryD2Ev
__ZN3WTF15deleteAllValuesIPN7WebCore13MediaQueryExpELm0EEEvRKNS_6VectorIT_XT0_EEE
__ZN3WTF6VectorIPN7WebCore10MediaQueryELm0EE6shrinkEm
__ZN7WebCore9FontCache21purgeInactiveFontDataEi
__ZN7WebCore14SimpleFontDataD0Ev
__ZN7WebCore14SimpleFontData15platformDestroyEv
__ZN7WebCore17GlyphPageTreeNode17pruneTreeFontDataEPKNS_14SimpleFontDataE
__ZN7WebCore17GlyphPageTreeNode13pruneFontDataEPKNS_14SimpleFontDataEj
__ZN7WebCore17GlyphPageTreeNodeD1Ev
__ZN7WebCore17GlyphPageTreeNodeD2Ev
__ZN3WTF20deleteAllPairSecondsIPN7WebCore17GlyphPageTreeNodeEKNS_7HashMapIPKNS1_8FontDataES3_NS_7PtrHashIS7_EENS_10HashTraitsIS7_EENSA_IS3_EEEEEEvRT0_
__ZN3WTF20deleteAllPairSecondsIPN7WebCore13GlyphWidthMap14GlyphWidthPageEKNS_7HashMapIiS4_NS_7IntHashIjEENS_10HashTraitsIiEENS8_IS4_EEEEEEvRT0_
__ZN7WebCore8FontDataD2Ev
__ZN3WTF6VectorIN7WebCore24FontPlatformDataCacheKeyELm0EE15reserveCapacityEm
__ZNK3WTF9HashTableIN7WebCore16FontPlatformDataESt4pairIS2_S3_IPNS1_14SimpleFontDataEjEENS_18PairFirstExtractorIS7_EENS1_20FontDataCacheKeyHashENS_14PairHashTraitsINS1_22FontDataCacheKeyTraitsENS_10HashTraitsIS6_EEEESC_E8containsIS2_NS_22IdentityHashTranslatorIS2_S7_SA_EEEEbRKT_
__ZN3WTF7HashMapIN7WebCore24FontPlatformDataCacheKeyEPNS1_16FontPlatformDataENS1_28FontPlatformDataCacheKeyHashENS1_30FontPlatformDataCacheKeyTraitsENS_10HashTraitsIS4_EEE4takeERKS2_
__ZN3WTF7HashMapIN7WebCore24FontPlatformDataCacheKeyEPNS1_16FontPlatformDataENS1_28FontPlatformDataCacheKeyHashENS1_30FontPlatformDataCacheKeyTraitsENS_10HashTraitsIS4_EEE3setERKS2_RKS4_
__ZN3WTF6VectorIN7WebCore24FontPlatformDataCacheKeyELm0EE6shrinkEm
__ZN7WebCore21HTMLBlockquoteElementD0Ev
__ZN7WebCore18jsDocumentLocationEPN3JSC9ExecStateERKNS0_10IdentifierERKNS0_12PropertySlotE
__ZNK7WebCore10JSDocument8locationEPN3JSC9ExecStateE
__ZNK3JSC8JSObject11toPrimitiveEPNS_9ExecStateENS_22PreferredPrimitiveTypeE
__ZN7WebCore19JSLocationPrototype18getOwnPropertySlotEPN3JSC9ExecStateERKNS1_10IdentifierERNS1_12PropertySlotE
__ZN7WebCore35jsLocationPrototypeFunctionToStringEPN3JSC9ExecStateEPNS0_8JSObjectENS0_10JSValuePtrERKNS0_7ArgListE
__ZNK7WebCore10JSLocation9classInfoEv
__ZN7WebCore10JSLocation8toStringEPN3JSC9ExecStateERKNS1_7ArgListE
__ZN7WebCore21allowsAccessFromFrameEPN3JSC9ExecStateEPNS_5FrameE
__ZNK7WebCore8Location8toStringEv
__ZNK7WebCore4KURL7hasPathEv
__ZNK7WebCore4KURL9prettyURLEv
__ZN7WebCore11HistoryItemD1Ev
__ZN7WebCore11HistoryItemD2Ev
__ZN7WebCore12IconDatabase21releaseIconForPageURLERKNS_6StringE
__ZN7WebCore8Document18focusedNodeRemovedEv
__ZN7WebCore12RenderObject10moveLayersEPNS_11RenderLayerES2_
__ZN7WebCore9FrameView13scheduleEventEN3WTF10PassRefPtrINS_5EventEEENS2_INS_15EventTargetNodeEEE
__ZN3WTF6VectorIPN7WebCore14ScheduledEventELm0EE14expandCapacityEmPKS3_
__ZN3WTF6VectorIPN7WebCore14ScheduledEventELm0EE14expandCapacityEm
__ZN3WTF6VectorIPN7WebCore14ScheduledEventELm0EE15reserveCapacityEm
__ZN3WTF6VectorIPN7WebCore14ScheduledEventELm0EEC1ERKS4_
__ZN3WTF6VectorIPN7WebCore14ScheduledEventELm0EEC2ERKS4_
__ZN3WTF6VectorIPN7WebCore14ScheduledEventELm0EE14shrinkCapacityEm
__ZN3WTF6VectorIPN7WebCore14ScheduledEventELm0EE6shrinkEm
__ZN7WebCore14ResourceLoader15willSendRequestEPNS_14ResourceHandleERNS_15ResourceRequestERKNS_16ResourceResponseE
-[NSHTTPURLResponse(WebCoreURLResponse) _webcore_MIMEType]
__ZN7WebCore27protocolHostAndPortAreEqualERKNS_4KURLES2_
__ZNK7WebCore11FrameLoader14initialRequestEv
__ZN7WebCore11FrameLoader50didReceiveServerRedirectForProvisionalLoadForFrameEv
__ZN7WebCore14ResourceHandle16setDefersLoadingEb
-[NSURLConnectionIPhone forwardInvocation:]
-[WebCoreResourceHandleAsDelegate connection:canAuthenticateAgainstProtectionSpace:]
__ZN7WebCore4coreEP20NSURLProtectionSpace
__ZN7WebCore15ProtectionSpaceC1ERKNS_6StringEiNS_25ProtectionSpaceServerTypeES3_NS_35ProtectionSpaceAuthenticationSchemeE
__ZN7WebCore15ProtectionSpaceC2ERKNS_6StringEiNS_25ProtectionSpaceServerTypeES3_NS_35ProtectionSpaceAuthenticationSchemeE
__ZN7WebCore14ResourceHandle37canAuthenticateAgainstProtectionSpaceERKNS_15ProtectionSpaceE
__ZN7WebCore14ResourceLoader37canAuthenticateAgainstProtectionSpaceEPNS_14ResourceHandleERKNS_15ProtectionSpaceE
__ZN7WebCore14ResourceLoader37canAuthenticateAgainstProtectionSpaceERKNS_15ProtectionSpaceE
__ZN7WebCore11FrameLoader37canAuthenticateAgainstProtectionSpaceEPNS_14ResourceLoaderERKNS_15ProtectionSpaceE
__ZN7WebCore3macERKNS_15ProtectionSpaceE
__ZNK7WebCore15ProtectionSpace10serverTypeEv
__ZNK7WebCore15ProtectionSpace20authenticationSchemeEv
__ZNK7WebCore15ProtectionSpace4hostEv
__ZNK7WebCore15ProtectionSpace4portEv
__ZNK7WebCore15ProtectionSpace5realmEv
__ZN7WebCore11HistoryItem14addRedirectURLERKNS_6StringE
__ZN3WTF6VectorIN7WebCore6StringELm0EE6resizeEm
__ZN7WebCore13HTMLTokenizer26parseProcessingInstructionERNS_15SegmentedStringENS0_5StateE
__ZN7WebCore8Document15processViewportERKNS_6StringE
__ZN7WebCore8Document16processArgumentsERKNS_6StringEPvPFvS3_S3_PS0_S4_E
__ZN7WebCoreL11isSeparatorEt
__ZN7WebCoreL18setViewportFeatureERKNS_6StringES2_PNS_8DocumentEPv
__ZNK7WebCore6String7toFloatEPb
__ZN7WebCore10StringImpl7toFloatEPb
__ZN7WebCore17charactersToFloatEPKtmPb
__ZNK7WebCore5Frame30dictionaryForViewportArgumentsERKNS_17ViewportArgumentsE
__ZNK3WTF7HashMapIPN7WebCore16AtomicStringImplEPNS1_6Loader4HostENS_7PtrHashIS3_EENS_10HashTraitsIS3_EENS9_IS6_EEE3getERKS3_
__ZN3WTF7HashMapIPN7WebCore16AtomicStringImplEPNS1_6Loader4HostENS_7PtrHashIS3_EENS_10HashTraitsIS3_EENS9_IS6_EEE3addERKS3_RKS6_
__ZN3WTF9HashTableIPN7WebCore16AtomicStringImplESt4pairIS3_PNS1_6Loader4HostEENS_18PairFirstExtractorIS8_EENS_7PtrHashIS3_EENS_14PairHashTraitsINS_10HashTraitsIS3_EENSE_IS7_EEEESF_E15deallocateTableEPS8_i
__ZN3WTF9HashTableIPN7WebCore16AtomicStringImplESt4pairIS3_PNS1_6Loader4HostEENS_18PairFirstExtractorIS8_EENS_7PtrHashIS3_EENS_14PairHashTraitsINS_10HashTraitsIS3_EENSE_IS7_EEEESF_E13allocateTableEi
__ZN3WTF9HashTableIPN7WebCore16AtomicStringImplESt4pairIS3_PNS1_6Loader4HostEENS_18PairFirstExtractorIS8_EENS_7PtrHashIS3_EENS_14PairHashTraitsINS_10HashTraitsIS3_EENSE_IS7_EEEESF_E6rehashEi
__ZN3WTF9HashTableIPN7WebCore16AtomicStringImplESt4pairIS3_PNS1_6Loader4HostEENS_18PairFirstExtractorIS8_EENS_7PtrHashIS3_EENS_14PairHashTraitsINS_10HashTraitsIS3_EENSE_IS7_EEEESF_E6removeEPS8_
__ZN3WTF9HashTableIPN7WebCore16AtomicStringImplESt4pairIS3_PNS1_6Loader4HostEENS_18PairFirstExtractorIS8_EENS_7PtrHashIS3_EENS_14PairHashTraitsINS_10HashTraitsIS3_EENSE_IS7_EEEESF_E47removeAndInvalidateWithoutEntryConsistencyCheckEPS8_
__ZN3WTF9HashTableIPN7WebCore16AtomicStringImplESt4pairIS3_PNS1_6Loader4HostEENS_18PairFirstExtractorIS8_EENS_7PtrHashIS3_EENS_14PairHashTraitsINS_10HashTraitsIS3_EENSE_IS7_EEEESF_E6expandEv
__ZN3WTF9HashTableIPN7WebCore16AtomicStringImplESt4pairIS3_PNS1_6Loader4HostEENS_18PairFirstExtractorIS8_EENS_7PtrHashIS3_EENS_14PairHashTraitsINS_10HashTraitsIS3_EENSE_IS7_EEEESF_E4findIS3_NS_22IdentityHashTranslatorIS3_S8_SC_EEEENS_17HashTableIteratorIS3_S8_SA_SC_SH_SF_EERKT_
__ZN3WTF6VectorIPN7WebCore6Loader4HostELm0EE14expandCapacityEm
__ZN3WTF6VectorIPN7WebCore6Loader4HostELm0EE15reserveCapacityEm
__ZN3WTF6VectorIPN7WebCore6Loader4HostELm0EE6shrinkEm
__ZN7WebCore17JSScreenPrototypeD1Ev
__ZN7WebCore17JSPluginPrototypeD1Ev
__ZN7WebCore22JSPluginArrayPrototypeD1Ev
__ZN7WebCore14RenderReplaced29clippedOverflowRectForRepaintEPNS_9RenderBoxE
__ZNK7WebCore14RenderReplaced18localSelectionRectEb
__ZN7WebCore9InlineBox11nodeAtPointERKNS_14HitTestRequestERNS_13HitTestResultEiiii
__ZN7WebCore27RenderTextControlSingleLine11nodeAtPointERKNS_14HitTestRequestERNS_13HitTestResultEiiiiNS_13HitTestActionE
__ZN7WebCore27RenderTextControlInnerBlock11nodeAtPointERKNS_14HitTestRequestERNS_13HitTestResultEiiiiNS_13HitTestActionE
__ZN7WebCore16HTMLInputElement29willRespondToMouseClickEventsEv
-[DOMNode(UIKitExtensions) absoluteQuads]
__ZN7WebCore9RenderBox13absoluteQuadsERN3WTF6VectorINS_9FloatQuadELm0EEEb
-[DOMDocument getComputedStyle:pseudoElement:]
__ZNK7WebCore9DOMWindow16getComputedStyleEPNS_7ElementERKNS_6StringE
-[DOMCSSStyleDeclaration getPropertyValue:]
__ZN7WebCore19CSSStyleDeclaration16getPropertyValueERKNS_6StringE
__ZNK7WebCore27CSSComputedStyleDeclaration16getPropertyValueEi
-[DOMNode(DOMNodeExtensions) absoluteQuad]
__ZN7WebCoreL19wkQuadFromFloatQuadERKNS_9FloatQuadE
-[WKQuadObject initWithQuad:]
-[WKQuadObject quad]
-[DOMNode(UIKitExtensions) borderRadii]
-[WAKView convertSize:toView:]
-[DOMCSSStyleDeclaration getPropertyCSSValue:]
__ZN7WebCore19CSSStyleDeclaration19getPropertyCSSValueERKNS_6StringE
+[DOMCSSValue(WebCoreInternal) _wrapCSSValue:]
-[DOMCSSValue(WebCoreInternal) _initWithCSSValue:]
-[DOMCSSPrimitiveValue getRGBColorValue]
__ZNK7WebCore17CSSPrimitiveValue16getRGBColorValueERi
+[DOMRGBColor initialize]
+[DOMRGBColor(WebCoreInternal) _wrapRGBColor:]
-[DOMRGBColor(WebCoreInternal) _initWithRGB:]
__ZN7WebCore33createWrapperCacheWithIntegerKeysEv
-[DOMRGBColor red]
+[DOMCSSPrimitiveValue(WebCoreInternal) _wrapCSSPrimitiveValue:]
-[DOMCSSPrimitiveValue getFloatValue:]
__ZN7WebCore17CSSPrimitiveValue14getDoubleValueEtRi
-[DOMRGBColor green]
-[DOMRGBColor blue]
-[DOMRGBColor alpha]
-[DOMCSSValue dealloc]
-[DOMRGBColor dealloc]
-[WAKWindow sendGSEvent:contentChange:]
_WKBeginObservingContentChanges
_WebThreadClearObservedContentModifiers
-[WAKWindow sendGSEvent:]
_WKWindowSendEvent
_WKViewHitTest
__ZL15hitTestCallbackP6WKView7CGPointPv
-[WAKView hitTest:]
__WKViewHitTest
_WKEventGetCurrentEvent
__WKViewHandleEvent
__ZL13eventCallbackP6WKViewP9__GSEventPv
-[WAKView _handleEvent:]
__ZN7WebCore12EventHandler10mouseMovedEP9__GSEvent
__ZN7WebCore18PlatformMouseEventC1EP9__GSEvent
__ZN7WebCore18PlatformMouseEventC2EP9__GSEvent
__ZN7WebCore13pointForEventEP9__GSEvent
__ZN7WebCore19globalPointForEventEP9__GSEvent
__ZN7WebCore12EventHandler10mouseMovedERKNS_18PlatformMouseEventE
__ZN7WebCore12EventHandler20handleMouseMoveEventERKNS_18PlatformMouseEventEPNS_13HitTestResultE
__ZN7WebCore12EventHandler17prepareMouseEventERKNS_14HitTestRequestERKNS_18PlatformMouseEventE
__ZN7WebCore8Document17prepareMouseEventERKNS_14HitTestRequestERKNS_8IntPointERKNS_18PlatformMouseEventE
__ZN7WebCore8Document12setHoverNodeEN3WTF10PassRefPtrINS_4NodeEEE
__ZN7WebCore13ContainerNode9setActiveEbb
__ZN7WebCore13ContainerNode10setHoveredEb
__ZNK7WebCore12RenderObject13hoverAncestorEv
__ZNK7WebCore11RenderTheme12stateChangedEPNS_12RenderObjectENS_12ControlStateE
__ZNK7WebCore11RenderTheme13supportsHoverEPKNS_11RenderStyleE
__ZN7WebCore28MouseEventWithHitTestResultsC1ERKNS_18PlatformMouseEventERKNS_13HitTestResultE
__ZN7WebCore28MouseEventWithHitTestResultsC2ERKNS_18PlatformMouseEventERKNS_13HitTestResultE
__ZN7WebCore10ScrollView19scrollbarUnderMouseERKNS_18PlatformMouseEventE
__ZNK7WebCore28MouseEventWithHitTestResults9scrollbarEv
__ZN7WebCoreL24subframeForHitTestResultERKNS_28MouseEventWithHitTestResultsE
__ZNK7WebCore28MouseEventWithHitTestResults10targetNodeEv
__ZN7WebCore12EventHandler18dispatchMouseEventERKNS_12AtomicStringEPNS_4NodeEbiRKNS_18PlatformMouseEventEb
__ZN7WebCore12EventHandler26updateMouseEventTargetNodeEPNS_4NodeERKNS_18PlatformMouseEventEb
__ZN7WebCore15EventTargetNode18dispatchMouseEventERKNS_18PlatformMouseEventERKNS_12AtomicStringEiPNS_4NodeE
__ZN7WebCore15EventTargetNode18dispatchMouseEventERKNS_12AtomicStringEiiiiiibbbbbPNS_4NodeEN3WTF10PassRefPtrINS_5EventEEE
__ZN7WebCore10MouseEventC1ERKNS_12AtomicStringEbbN3WTF10PassRefPtrINS_9DOMWindowEEEiiiiibbbbtNS5_INS_15EventTargetNodeEEENS5_INS_9ClipboardEEEb
__ZN7WebCore10MouseEventC2ERKNS_12AtomicStringEbbN3WTF10PassRefPtrINS_9DOMWindowEEEiiiiibbbbtNS5_INS_15EventTargetNodeEEENS5_INS_9ClipboardEEEb
__ZN7WebCore17MouseRelatedEventC2ERKNS_12AtomicStringEbbN3WTF10PassRefPtrINS_9DOMWindowEEEiiiiibbbbb
__ZN7WebCoreL9contentsXEPNS_9DOMWindowE
__ZN7WebCoreL9contentsYEPNS_9DOMWindowE
__ZN7WebCore17MouseRelatedEvent15initCoordinatesEv
__ZN7WebCore17MouseRelatedEvent14receivedTargetEv
__ZNK7WebCore12RenderObject15absoluteToLocalENS_10FloatPointEbb
__ZNK7WebCore9RenderBox23mapAbsoluteToLocalPointEbbRNS_14TransformStateE
__ZNK7WebCore10RenderView23mapAbsoluteToLocalPointEbbRNS_14TransformStateE
__ZNK7WebCore12RenderObject22transformFromContainerEPKS0_RKNS_7IntSizeE
__ZN7WebCore20TransformationMatrix9translateEdd
__ZN7WebCore14TransformState14applyTransformERKNS_20TransformationMatrixEb
__ZN7WebCore14TransformState20flattenWithTransformERKNS_20TransformationMatrixE
__ZNK7WebCore20TransformationMatrix7inverseEv
__ZN7WebCoreL7inverseERA4_A4_KdRA4_A4_d
__ZNK7WebCore20TransformationMatrix12projectPointERKNS_10FloatPointE
__ZNK7WebCore10MouseEvent12isMouseEventEv
__ZN7WebCore27RenderTextControlSingleLine12forwardEventEPNS_5EventE
__ZNK7WebCore17MouseRelatedEvent5pageXEv
__ZNK7WebCore17MouseRelatedEvent5pageYEv
__ZN7WebCore17RenderTextControl12forwardEventEPNS_5EventE
__ZN7WebCore27TextControlInnerTextElement19defaultEventHandlerEPNS_5EventE
__ZN7WebCore10MouseEventD0Ev
__ZN7WebCore12EventHandler23handleMouseDraggedEventERKNS_28MouseEventWithHitTestResultsE
__ZN7WebCore6Chrome23mouseDidMoveOverElementERKNS_13HitTestResultEj
__ZN7WebCore6Chrome10setToolTipERKNS_13HitTestResultE
__ZNK7WebCore13HitTestResult15spellingToolTipEv
__ZN7WebCore8Document21markerContainingPointERKNS_8IntPointENS_14DocumentMarker10MarkerTypeE
__ZNK7WebCore13HitTestResult5titleEv
_WKStopObservingContentChanges
_WKObservedContentChange
-[DOMHTMLInputElement type]
-[DOMHTMLInputElement readOnly]
-[WAKView mouse:inRect:]
_WKMouseInRect
__ZN7WebCore12EventHandler9mouseDownEP9__GSEvent
__ZN7WebCore12EventHandler21handleMousePressEventERKNS_18PlatformMouseEventE
__ZN7WebCore8Document13setActiveNodeEN3WTF10PassRefPtrINS_4NodeEEE
__ZNK7WebCore11RenderTheme9isEnabledEPKNS_12RenderObjectE
__ZNK7WebCore11RenderLayer22isPointInResizeControlERKNS_8IntPointE
__ZNK7WebCore22HTMLFormControlElement11isFocusableEv
__ZNK7WebCore16HTMLInputElement16isMouseFocusableEv
__ZN7WebCore16HTMLInputElement18dispatchFocusEventEv
__ZN7WebCore12InputElement18dispatchFocusEventERNS_16InputElementDataEPNS_8DocumentE
__ZThn72_NK7WebCore16HTMLInputElement15isPasswordFieldEv
__ZNK7WebCore16HTMLInputElement15isPasswordFieldEv
__ZN7WebCore22HTMLFormControlElement18dispatchFocusEventEv
__ZN7WebCore5Frame19formElementDidFocusEPNS_7ElementE
-[DOMNode isSameNode:]
-[DOMHTMLInputElement form]
+[DOMHTMLFormElement(WebCoreInternal) _wrapHTMLFormElement:]
-[DOMHTMLInputElement name]
-[DOMHTMLElement title]
-[DOMHTMLFormElement action]
__ZNK7WebCore15HTMLFormElement6actionEv
-[DOMHTMLInputElement autocapitalize]
__ZNK7WebCore22HTMLFormControlElement14autocapitalizeEv
__ZNK7WebCore15HTMLFormElement14autocapitalizeEv
__ZNK7WebCore11HTMLElement11virtualFormEv
__ZNK7WebCore11HTMLElement16findFormAncestorEv
-[DOMHTMLInputElement autocorrect]
__ZNK7WebCore22HTMLFormControlElement11autocorrectEv
__ZNK7WebCore15HTMLFormElement11autocorrectEv
__ZNK7WebCore5Event11isDragEventEv
__ZNK7WebCore5Event12isWheelEventEv
__ZN7WebCore27RenderTextControlSingleLine27capsLockStateMayHaveChangedEv
__ZNK7WebCore16HTMLInputElement20shouldUseInputMethodEv
__ZN7WebCore12EventHandler21handleMousePressEventERKNS_28MouseEventWithHitTestResultsE
__ZN7WebCore12EventHandler9dragStateEv
__ZN7WebCore12EventHandler23canMouseDownStartSelectEPNS_4NodeE
__ZNK7WebCore4Node17canStartSelectionEv
__ZNK7WebCore8Document13isSVGDocumentEv
__ZN7WebCore12EventHandler17focusDocumentViewEv
__ZN7WebCore6Chrome11focusNSViewEP7WAKView
-[DOMNode(DOMNodeExtensions) nextFocusNode]
__ZN7WebCore13KeyboardEventC1Ev
__ZN7WebCore13KeyboardEventC2Ev
__ZN7WebCore7UIEventC2Ev
__ZN7WebCore5EventC2Ev
__ZN7WebCore8Document17nextFocusableNodeEPNS_4NodeEPNS_13KeyboardEventE
__ZNK7WebCore22HTMLFormControlElement8tabIndexEv
__ZNK7WebCore4Node8tabIndexEv
__ZN7WebCoreL25nextNodeWithExactTabIndexEPNS_4NodeEiPNS_13KeyboardEventE
__ZNK7WebCore4Node19isKeyboardFocusableEPNS_13KeyboardEventE
__ZNK7WebCore16HTMLInputElement19isKeyboardFocusableEPNS_13KeyboardEventE
__ZN7WebCore13KeyboardEventD0Ev
-[DOMNode(DOMNodeExtensions) previousFocusNode]
__ZN7WebCore8Document21previousFocusableNodeEPNS_4NodeEPNS_13KeyboardEventE
__ZNK7WebCore4Node20traversePreviousNodeEPKS0_
__ZNK7WebCore22HTMLFormControlElement19isKeyboardFocusableEPNS_13KeyboardEventE
__ZNK7WebCore17HTMLAnchorElement19isKeyboardFocusableEPNS_13KeyboardEventE
__ZNK7WebCore17HTMLAnchorElement11isFocusableEv
__ZNK7WebCore12EventHandler11tabsToLinksEPNS_13KeyboardEventE
__ZNK7WebCore12EventHandler24invertSenseOfTabsToLinksEPNS_13KeyboardEventE
__ZNK7WebCore12EventHandler17tabsToAllControlsEPNS_13KeyboardEventE
__ZNK7WebCore16HTMLLabelElement11isFocusableEv
__ZN7WebCore12EventHandler32handleMousePressEventSingleClickERKNS_28MouseEventWithHitTestResultsE
__ZN7WebCore19SelectionController8containsERKNS_8IntPointE
__ZNK7WebCore28MouseEventWithHitTestResults10localPointEv
__ZN7WebCore12RenderObject16positionForPointERKNS_8IntPointE
__ZNK7WebCore23TextControlInnerElement16isMouseFocusableEv
__ZN7WebCore17RenderTextControl16selectionChangedEb
__ZN7WebCore17RenderTextControl14selectionStartEv
__ZN7WebCore17RenderTextControl23indexForVisiblePositionERKNS_15VisiblePositionE
__ZN7WebCore17RenderTextControl12selectionEndEv
__ZN7WebCore27RenderTextControlSingleLine14cacheSelectionEii
__ZThn72_N7WebCore16HTMLInputElement14cacheSelectionEii
__ZN7WebCore17RenderTextControl17addFocusRingRectsEPNS_15GraphicsContextEii
__ZN7WebCore12EventHandler7mouseUpEP9__GSEvent
__ZN7WebCore12EventHandler23handleMouseReleaseEventERKNS_18PlatformMouseEventE
__ZNK7WebCore7UIEvent9isUIEventEv
__ZN7WebCore12EventHandler23handleMouseReleaseEventERKNS_28MouseEventWithHitTestResultsE
__ZN7WebCore12EventHandler13handleMouseUpERKNS_28MouseEventWithHitTestResultsE
__ZN7WebCore12EventHandler22eventLoopHandleMouseUpERKNS_28MouseEventWithHitTestResultsE
__ZN7WebCore12EventHandler24mouseDownViewIfStillGoodEv
__ZNK7WebCore12EventHandler18eventActivatedViewERKNS_18PlatformMouseEventE
__ZN7WebCore12EventHandler15invalidateClickEv
-[DOMHTMLElement blur]
__ZN7WebCore7Element4blurEv
__ZN7WebCore8Document27cancelFocusAppearanceUpdateEv
__ZNK7WebCore17RenderTextControl8isEditedEv
__ZN7WebCore16HTMLInputElement17dispatchBlurEventEv
__ZN7WebCore12InputElement17dispatchBlurEventERNS_16InputElementDataEPNS_8DocumentE
__ZN7WebCore5Frame22textFieldDidEndEditingEPNS_7ElementE
+[DOMHTMLInputElement(WebCoreInternal) _wrapHTMLInputElement:]
__ZN7WebCore22HTMLFormControlElement17dispatchBlurEventEv
__ZN7WebCore5Frame18formElementDidBlurEPNS_7ElementE
__ZN7WebCore12EventHandler8keyEventEP9__GSEvent
__ZN7WebCore21PlatformKeyboardEventC1EP9__GSEvent
__ZN7WebCore21PlatformKeyboardEventC2EP9__GSEvent
__ZN7WebCoreL24keyIdentifierForKeyEventEP9__GSEvent
__ZN7WebCore12EventHandler8keyEventERKNS_21PlatformKeyboardEventE
__ZN7WebCore12EventHandler15handleAccessKeyERKNS_21PlatformKeyboardEventE
__ZN7WebCore12EventHandler18accessKeyModifiersEv
__ZNK7WebCore12EventHandler38needsKeyboardEventDisambiguationQuirksEv
__ZN7WebCore21PlatformKeyboardEvent24disambiguateKeyDownEventENS0_4TypeEb
__ZN7WebCore13KeyboardEventC1ERKNS_21PlatformKeyboardEventEPNS_9DOMWindowE
__ZN7WebCore13KeyboardEventC2ERKNS_21PlatformKeyboardEventEPNS_9DOMWindowE
__ZN7WebCore6Editor24handleInputMethodKeydownEPNS_13KeyboardEventE
__ZNK7WebCore13KeyboardEvent15isKeyboardEventEv
__ZN7WebCore5Frame27doTextFieldCommandFromEventEPNS_7ElementEPNS_13KeyboardEventE
__ZN7WebCore12EventHandler27defaultKeyboardEventHandlerEPNS_13KeyboardEventE
__ZN7WebCore6Editor19handleKeyboardEventEPNS_13KeyboardEventE
__ZN3WTF6VectorIN7WebCore15KeypressCommandELm0EEaSERKS3_
__ZNK7WebCore23BeforeTextInsertedEvent25isBeforeTextInsertedEventEv
__ZN7WebCore12InputElement29handleBeforeTextInsertedEventERNS_16InputElementDataEPNS_8DocumentEPNS_5EventE
__ZN7WebCoreL19numGraphemeClustersEPNS_10StringImplE
__ZN7WebCore10RenderView15pushLayoutStateEPNS_12RenderObjectE
__ZN7WebCore11LayoutStateC1EPNS_12RenderObjectE
__ZN7WebCore11LayoutStateC2EPNS_12RenderObjectE
__ZN7WebCore27RenderTextControlSingleLine17subtreeHasChangedEv
__ZN7WebCore17RenderTextControl17subtreeHasChangedEv
__ZThn72_N7WebCore16HTMLInputElement20setValueFromRendererERKNS_6StringE
__ZN7WebCore16HTMLInputElement20setValueFromRendererERKNS_6StringE
__ZN7WebCore12InputElement20setValueFromRendererERNS_16InputElementDataEPNS_8DocumentERKNS_6StringE
__ZThn72_NK7WebCore16HTMLInputElement30searchEventsShouldBeDispatchedEv
__ZNK7WebCore16HTMLInputElement30searchEventsShouldBeDispatchedEv
__ZN7WebCore5Frame24textFieldDidBeginEditingEPNS_7ElementE
__ZN7WebCore5Frame24textDidChangeInTextFieldEPNS_7ElementE
-[DOMHTMLInputElement(FormPromptAdditions) _isEdited]
-[DOMHTMLInputElement(FormAutoFillTransition) _isTextField]
-[DOMElement offsetWidth]
__ZN7WebCore7Element11offsetWidthEv
__ZNK7WebCore9RenderBox11offsetWidthEv
__ZN7WebCoreL21adjustForAbsoluteZoomEiPNS_12RenderObjectE
-[DOMElement offsetHeight]
__ZN7WebCore7Element12offsetHeightEv
__ZNK7WebCore9RenderBox12offsetHeightEv
__ZN7WebCore15EventTargetNode16dispatchKeyEventERKNS_21PlatformKeyboardEventE
__ZN7WebCore17RenderTextControl9setEditedEb
__ZN7WebCore8Document35setUseSecureKeyboardEntryWhenActiveEb
__ZN7WebCore5Frame33updateSecureKeyboardEntryIfActiveEv
__ZN7WebCore21PlatformKeyboardEvent20currentCapsLockStateEv
__ZNK7WebCore10RenderText12originalTextEv
__ZN7WebCore10StringImpl6secureEtb
__ZN7WebCore10RenderText30momentarilyRevealLastCharacterEv
__ZN3WTF7HashMapIPN7WebCore10RenderTextEPNS1_5TimerIS2_EENS_7PtrHashIS3_EENS_10HashTraitsIS3_EENS9_IS6_EEE3addERKS3_RKS6_
__ZN3WTF9HashTableIPN7WebCore10RenderTextESt4pairIS3_PNS1_5TimerIS2_EEENS_18PairFirstExtractorIS8_EENS_7PtrHashIS3_EENS_14PairHashTraitsINS_10HashTraitsIS3_EENSE_IS7_EEEESF_E15deallocateTableEPS8_i
__ZN3WTF9HashTableIPN7WebCore10RenderTextESt4pairIS3_PNS1_5TimerIS2_EEENS_18PairFirstExtractorIS8_EENS_7PtrHashIS3_EENS_14PairHashTraitsINS_10HashTraitsIS3_EENSE_IS7_EEEESF_E13allocateTableEi
__ZN3WTF9HashTableIPN7WebCore10RenderTextESt4pairIS3_PNS1_5TimerIS2_EEENS_18PairFirstExtractorIS8_EENS_7PtrHashIS3_EENS_14PairHashTraitsINS_10HashTraitsIS3_EENSE_IS7_EEEESF_E6rehashEi
__ZN3WTF9HashTableIPN7WebCore10RenderTextESt4pairIS3_PNS1_5TimerIS2_EEENS_18PairFirstExtractorIS8_EENS_7PtrHashIS3_EENS_14PairHashTraitsINS_10HashTraitsIS3_EENSE_IS7_EEEESF_E6removeEPS8_
__ZN3WTF9HashTableIPN7WebCore10RenderTextESt4pairIS3_PNS1_5TimerIS2_EEENS_18PairFirstExtractorIS8_EENS_7PtrHashIS3_EENS_14PairHashTraitsINS_10HashTraitsIS3_EENSE_IS7_EEEESF_E47removeAndInvalidateWithoutEntryConsistencyCheckEPS8_
__ZN3WTF9HashTableIPN7WebCore10RenderTextESt4pairIS3_PNS1_5TimerIS2_EEENS_18PairFirstExtractorIS8_EENS_7PtrHashIS3_EENS_14PairHashTraitsINS_10HashTraitsIS3_EENSE_IS7_EEEESF_E6expandEv
__ZN3WTF9HashTableIPN7WebCore10RenderTextESt4pairIS3_PNS1_5TimerIS2_EEENS_18PairFirstExtractorIS8_EENS_7PtrHashIS3_EENS_14PairHashTraitsINS_10HashTraitsIS3_EENSE_IS7_EEEESF_E4findIS3_NS_22IdentityHashTranslatorIS3_S8_SC_EEEENS_17HashTableIteratorIS3_S8_SA_SC_SH_SF_EERKT_
__ZNK3WTF7HashMapIPN7WebCore10RenderTextEPNS1_5TimerIS2_EENS_7PtrHashIS3_EENS_10HashTraitsIS3_EENS9_IS6_EEE3getERKS3_
__ZN3WTF6VectorISt4pairIPKN7WebCore8FontDataEbELm1EE14expandCapacityEmPKS6_
__ZN3WTF6VectorISt4pairIPKN7WebCore8FontDataEbELm1EE14expandCapacityEm
__ZN3WTF6VectorISt4pairIPKN7WebCore8FontDataEbELm1EE15reserveCapacityEm
__ZN7WebCore9FontCache21getCustomFallbackFontEmRKNS_4FontE
__ZN7WebCore6Editor7commandERKNS_6StringE
__ZN7WebCore6Editor7commandERKNS_6StringENS_19EditorCommandSourceE
__ZN7WebCoreL16createCommandMapEv
__ZN3WTF7HashMapIN7WebCore6StringEPKNS1_21EditorInternalCommandENS1_15CaseFoldingHashENS_10HashTraitsIS2_EENS7_IS5_EEE3setERKS2_RKS5_
__ZN3WTF9HashTableIN7WebCore6StringESt4pairIS2_PKNS1_21EditorInternalCommandEENS_18PairFirstExtractorIS7_EENS1_15CaseFoldingHashENS_14PairHashTraitsINS_10HashTraitsIS2_EENSC_IS6_EEEESD_E13allocateTableEi
__ZN3WTF9HashTableIN7WebCore6StringESt4pairIS2_PKNS1_21EditorInternalCommandEENS_18PairFirstExtractorIS7_EENS1_15CaseFoldingHashENS_14PairHashTraitsINS_10HashTraitsIS2_EENSC_IS6_EEEESD_E4findIS2_NS_22IdentityHashTranslatorIS2_S7_SA_EEEENS_17HashTableIteratorIS2_S7_S9_SA_SF_SD_EERKT_
